 canvas

 Timestamp is 5cbfbca4 (Tue Apr 23 21:32:20 2019)

 Preferred load address is 10000000

 Start         Length     Name                   Class
 0001:00000000 00001dc0H .text$di                CODE
 0001:00001dc0 000432a0H .text$mn                CODE
 0001:00045060 00001c70H .text$x                 CODE
 0001:00046cd0 00000373H .text$yd                CODE
 0002:00000000 0000047cH .idata$5                DATA
 0002:0000047c 00000004H .00cfg                  DATA
 0002:00000480 00000004H .CRT$XCA                DATA
 0002:00000484 0000000cH .CRT$XCC                DATA
 0002:00000490 00000008H .CRT$XCL                DATA
 0002:00000498 00000038H .CRT$XCU                DATA
 0002:000004d0 00000004H .CRT$XCZ                DATA
 0002:000004d4 00000004H .CRT$XIA                DATA
 0002:000004d8 00000014H .CRT$XIC                DATA
 0002:000004ec 00000004H .CRT$XIZ                DATA
 0002:000004f0 00000004H .CRT$XPA                DATA
 0002:000004f4 00000008H .CRT$XPX                DATA
 0002:000004fc 00000004H .CRT$XPXA               DATA
 0002:00000500 00000004H .CRT$XPZ                DATA
 0002:00000504 00000004H .CRT$XTA                DATA
 0002:00000508 00000008H .CRT$XTZ                DATA
 0002:0000050c 00000000H .gfids$y                DATA
 0002:00000510 00012ed4H .rdata                  DATA
 0002:000133e4 000004bcH .rdata$r                DATA
 0002:000138a0 000001e4H .rdata$sxdata           DATA
 0002:00013a84 000003f4H .rdata$zzzdbg           DATA
 0002:00013e78 00000004H .rtc$IAA                DATA
 0002:00013e7c 00000004H .rtc$IZZ                DATA
 0002:00013e80 00000004H .rtc$TAA                DATA
 0002:00013e84 00000004H .rtc$TZZ                DATA
 0002:00013e88 00002874H .xdata$x                DATA
 0002:000166fc 00000020H .didat$2                DATA
 0002:0001671c 00000020H .didat$3                DATA
 0002:0001673c 000001a4H .didat$4                DATA
 0002:000168e0 00001b68H .didat$6                DATA
 0002:00018448 000001a8H .didat$7                DATA
 0002:000185f0 00000240H .edata                  DATA
 0002:00018830 000000c8H .idata$2                DATA
 0002:000188f8 00000014H .idata$3                DATA
 0002:0001890c 0000047cH .idata$4                DATA
 0002:00018d88 000017a4H .idata$6                DATA
 0003:00000000 000009e0H .data                   DATA
 0003:000009e0 00000308H .data$r                 DATA
 0003:00000ce8 000001a8H .didat$5                DATA
 0003:00000e90 00000e40H .bss                    DATA
 0004:00000000 00000060H .rsrc$01                DATA
 0004:00000060 00000180H .rsrc$02                DATA

  Address         Publics by Value              Rva+Base       Lib:Object

 0000:00000000       ___guard_iat_count         00000000     <absolute>
 0000:00000000       ___guard_fids_count        00000000     <absolute>
 0000:00000000       ___guard_longjmp_count     00000000     <absolute>
 0000:00000000       ___guard_longjmp_table     00000000     <absolute>
 0000:00000000       ___hybrid_code_map_count   00000000     <absolute>
 0000:00000000       __except_list              00000000     <absolute>
 0000:00000000       ___guard_fids_table        00000000     <absolute>
 0000:00000000       ___hybrid_auxiliary_iat    00000000     <absolute>
 0000:00000000       ___dynamic_value_reloc_table 00000000     <absolute>
 0000:00000000       ___guard_iat_table         00000000     <absolute>
 0000:00000000       ___volatile_metadata       00000000     <absolute>
 0000:00000000       ___enclave_config          00000000     <absolute>
 0000:00000000       ___hybrid_code_map         00000000     <absolute>
 0000:00000079       ___safe_se_handler_count   00000079     <absolute>
 0000:00000100       ___guard_flags             00000100     <absolute>
 0000:00000000       ___ImageBase               10000000     <linker-defined>
 0001:00001dc0       ?what@exception@stdext@@UBEPBDXZ 10002dc0 f i Backend.obj
 0001:00001dd0       @_guard_check_icall_nop@4  10002dd0 f i LIBCMT:guard_support.obj
 0001:00001dd0       ?stream_pdf_free@@YAXPADPAX@Z 10002dd0 f i Canvas.obj
 0001:00001dd0       ?init_closure_destination@@YAXPAUjpeg_compress_struct@@@Z 10002dd0 f i Canvas.obj
 0001:00001dd0       ?_Lock@?$basic_streambuf@DU?$char_traits@D@std@@@std@@UAEXXZ 10002dd0 f i Canvas.obj
 0001:00001dd0       ?_Doraise@exception@stdext@@MBEXXZ 10002dd0 f i Backend.obj
 0001:00001dd0       ?_Unlock@?$basic_streambuf@DU?$char_traits@D@std@@@std@@UAEXXZ 10002dd0 f i Canvas.obj
 0001:00001de0       ??_Gruntime_error@std@@UAEPAXI@Z 10002de0 f i Canvas.obj
 0001:00001de0       ??_Gexception@stdext@@UAEPAXI@Z 10002de0 f i Backend.obj
 0001:00001de0       ??_Eexception@stdext@@UAEPAXI@Z 10002de0 f i * CIL library *:* CIL module *
 0001:00001de0       ??_Eruntime_error@std@@UAEPAXI@Z 10002de0 f i * CIL library *:* CIL module *
 0001:00001e10       ??1ObjectWrap@Nan@@UAE@XZ  10002e10 f i Backend.obj
 0001:00001ea0       ?Wrap@ObjectWrap@Nan@@IAEXV?$Local@VObject@v8@@@v8@@@Z 10002ea0 f i Backend.obj
 0001:00001f50       ?Ref@ObjectWrap@Nan@@MAEXXZ 10002f50 f i Backend.obj
 0001:00001f80       ?Unref@ObjectWrap@Nan@@MAEXXZ 10002f80 f i Backend.obj
 0001:00002010       ?WeakCallback@ObjectWrap@Nan@@CAXABV?$WeakCallbackInfo@VObjectWrap@Nan@@@v8@@@Z 10003010 f i Backend.obj
 0001:00002060       ??_GObjectWrap@Nan@@UAEPAXI@Z 10003060 f i Backend.obj
 0001:00002060       ??_EObjectWrap@Nan@@UAEPAXI@Z 10003060 f i * CIL library *:* CIL module *
 0001:000020e0       ?underflow@?$basic_streambuf@DU?$char_traits@D@std@@@std@@MAEHXZ 100030e0 f i Canvas.obj
 0001:000020e0       ?getFormat@Backend@@UAE?AW4_cairo_format@@XZ 100030e0 f i Backend.obj
 0001:000020f0       ??0Backend@@IAE@V?$basic_string@DU?$char_traits@D@std@@V?$allocator@D@2@@std@@HH@Z 100030f0 f   Backend.obj
 0001:000021c0       ??_GBackend@@UAEPAXI@Z     100031c0 f i Backend.obj
 0001:000021c0       ??_EBackend@@UAEPAXI@Z     100031c0 f i * CIL library *:* CIL module *
 0001:000021e0       ??1Backend@@UAE@XZ         100031e0 f   Backend.obj
 0001:000022c0       ?init@Backend@@KAXABV?$FunctionCallbackInfo@VValue@v8@@@Nan@@@Z 100032c0 f   Backend.obj
 0001:00002420       ?recreateSurface@Backend@@UAEPAU_cairo_surface@@XZ 10003420 f   Backend.obj
 0001:00002430       ?getSurface@Backend@@QAEPAU_cairo_surface@@XZ 10003430 f   Backend.obj
 0001:00002450       ?destroySurface@Backend@@UAEXXZ 10003450 f   Backend.obj
 0001:00002470       ?getName@Backend@@QAE?AV?$basic_string@DU?$char_traits@D@std@@V?$allocator@D@2@@std@@XZ 10003470 f   Backend.obj
 0001:00002490       ?getWidth@Backend@@QAEHXZ  10003490 f   Backend.obj
 0001:000024a0       ?setWidth@Backend@@UAEXH@Z 100034a0 f   Backend.obj
 0001:000024b0       ?getHeight@Backend@@QAEHXZ 100034b0 f   Backend.obj
 0001:000024c0       ?setHeight@Backend@@UAEXH@Z 100034c0 f   Backend.obj
 0001:000024d0       ?append@?$basic_string@DU?$char_traits@D@std@@V?$allocator@D@2@@std@@QAEAAV12@QBD@Z 100034d0 f i Backend.obj
 0001:00002540       ??1?$pair@$$CBV?$basic_string@DU?$char_traits@D@std@@V?$allocator@D@2@@std@@H@std@@QAE@XZ 10003540 f i CanvasRenderingContext2d.obj
 0001:00002540       ??1?$basic_string@DU?$char_traits@D@std@@V?$allocator@D@2@@std@@QAE@XZ 10003540 f i Backend.obj
 0001:00002540       ?_Tidy_deallocate@?$basic_string@DU?$char_traits@D@std@@V?$allocator@D@2@@std@@QAEXXZ 10003540 f i Backend.obj
 0001:00002540       ??1?$pair@$$CBV?$basic_string@DU?$char_traits@D@std@@V?$allocator@D@2@@std@@I@std@@QAE@XZ 10003540 f i color.obj
 0001:00002540       ??1?$pair@$$CBV?$basic_string@DU?$char_traits@D@std@@V?$allocator@D@2@@std@@W4_cairo_operator@@@std@@QAE@XZ 10003540 f i CanvasRenderingContext2d.obj
 0001:00002590       ??0?$basic_string@DU?$char_traits@D@std@@V?$allocator@D@2@@std@@QAE@ABV01@@Z 10003590 f i Backend.obj
 0001:00002650       ??$?HDU?$char_traits@D@std@@V?$allocator@D@1@@std@@YA?AV?$basic_string@DU?$char_traits@D@std@@V?$allocator@D@2@@0@QBDABV10@@Z 10003650 f i Backend.obj
 0001:00002750       ??$?HDU?$char_traits@D@std@@V?$allocator@D@1@@std@@YA?AV?$basic_string@DU?$char_traits@D@std@@V?$allocator@D@2@@0@$$QAV10@QBD@Z 10003750 f i Backend.obj
 0001:000027a0       ??$_Reallocate_grow_by@V<lambda_ab246b20b9526e2ef7792587e4298a77>@@PBDI@?$basic_string@DU?$char_traits@D@std@@V?$allocator@D@2@@std@@QAEAAV01@IV<lambda_ab246b20b9526e2ef7792587e4298a77>@@PBDI@Z 100037a0 f i Backend.obj
 0001:000028f0       ?_Xlen@?$basic_string@DU?$char_traits@D@std@@V?$allocator@D@2@@std@@SAXXZ 100038f0 f i Backend.obj
 0001:00002900       ?reserve@?$basic_string@DU?$char_traits@D@std@@V?$allocator@D@2@@std@@QAEXI@Z 10003900 f i Backend.obj
 0001:00002a80       ?insert@?$basic_string@DU?$char_traits@D@std@@V?$allocator@D@2@@std@@QAEAAV12@IQBDI@Z 10003a80 f i Backend.obj
 0001:00002b30       ??$_Reallocate_grow_by@V<lambda_4d79bb85f269e6e8002a4599002d832c>@@IPBDI@?$basic_string@DU?$char_traits@D@std@@V?$allocator@D@2@@std@@QAEAAV01@IV<lambda_4d79bb85f269e6e8002a4599002d832c>@@IPBDI@Z 10003b30 f i Backend.obj
 0001:00002d30       ?New@?$Factory@VFunctionTemplate@v8@@@imp@Nan@@SA?AV?$Local@VFunctionTemplate@v8@@@v8@@P6AXABV?$FunctionCallbackInfo@VValue@v8@@@3@@ZV?$Local@VValue@v8@@@5@V?$Local@VSignature@v8@@@5@@Z 10003d30 f i ImageBackend.obj
 0001:00002ec0       ?AdjustExternalMemory@Nan@@YAHH@Z 10003ec0 f i ImageBackend.obj
 0001:00002f30       ??1HandleScope@Nan@@QAE@XZ 10003f30 f i ImageBackend.obj
 0001:00002f30       ??1EscapableHandleScope@Nan@@QAE@XZ 10003f30 f i Canvas.obj
 0001:00002f40       ??0ImageBackend@@QAE@HH@Z  10003f40 f   ImageBackend.obj
 0001:00002f90       ??_GImageBackend@@UAEPAXI@Z 10003f90 f i ImageBackend.obj
 0001:00002f90       ??_EImageBackend@@UAEPAXI@Z 10003f90 f i * CIL library *:* CIL module *
 0001:00002fb0       ?createSurface@ImageBackend@@EAEPAU_cairo_surface@@XZ 10003fb0 f   ImageBackend.obj
 0001:000030a0       ?destroySurface@ImageBackend@@EAEXXZ 100040a0 f   ImageBackend.obj
 0001:00003130       ?getFormat@ImageBackend@@UAE?AW4_cairo_format@@XZ 10004130 f   ImageBackend.obj
 0001:00003140       ?New@SvgBackend@@SAXABV?$FunctionCallbackInfo@VValue@v8@@@Nan@@@Z 10004140 f   SvgBackend.obj
 0001:00003140       ?New@ImageBackend@@SAXABV?$FunctionCallbackInfo@VValue@v8@@@Nan@@@Z 10004140 f   ImageBackend.obj
 0001:00003140       ?New@PdfBackend@@SAXABV?$FunctionCallbackInfo@VValue@v8@@@Nan@@@Z 10004140 f   PdfBackend.obj
 0001:00003150       ??0?$basic_string@DU?$char_traits@D@std@@V?$allocator@D@2@@std@@QAE@QBD@Z 10004150 f i ImageBackend.obj
 0001:00003190       ?assign@?$basic_string@DU?$char_traits@D@std@@V?$allocator@D@2@@std@@QAEAAV12@QBD@Z 10004190 f i ImageBackend.obj
 0001:000031c0       ?assign@?$basic_string@DU?$char_traits@D@std@@V?$allocator@D@2@@std@@QAEAAV12@QBDI@Z 100041c0 f i ImageBackend.obj
 0001:000032e0       ?backend@Canvas@@QAEPAVBackend@@XZ 100042e0 f i PdfBackend.obj
 0001:000032f0       ?surface@Canvas@@QAEPAU_cairo_surface@@XZ 100042f0 f i PdfBackend.obj
 0001:00003310       ?data@Canvas@@QAEPAEXZ     10004310 f i PdfBackend.obj
 0001:00003340       ?stride@Canvas@@QAEHXZ     10004340 f i PdfBackend.obj
 0001:00003370       ?nBytes@Canvas@@QAEHXZ     10004370 f i PdfBackend.obj
 0001:000033a0       ?getWidth@Canvas@@QAEHXZ   100043a0 f i PdfBackend.obj
 0001:000033b0       ?getHeight@Canvas@@QAEHXZ  100043b0 f i PdfBackend.obj
 0001:000033c0       ?writeVec@Closure@@SA?AW4_cairo_status@@PAXPBEI@Z 100043c0 f i PdfBackend.obj
 0001:00003440       ??1Closure@@QAE@XZ         10004440 f i PdfBackend.obj
 0001:000034e0       ??0PdfBackend@@QAE@HH@Z    100044e0 f   PdfBackend.obj
 0001:000035d0       ??_EPdfBackend@@UAEPAXI@Z  100045d0 f i * CIL library *:* CIL module *
 0001:000035d0       ??_GPdfBackend@@UAEPAXI@Z  100045d0 f i PdfBackend.obj
 0001:00003640       ?createSurface@PdfBackend@@EAEPAU_cairo_surface@@XZ 10004640 f   PdfBackend.obj
 0001:000036c0       ?recreateSurface@PdfBackend@@EAEPAU_cairo_surface@@XZ 100046c0 f   PdfBackend.obj
 0001:00003700       ??$_Insert_range@PBE@?$vector@EV?$allocator@E@std@@@std@@AAEXV?$_Vector_const_iterator@V?$_Vector_val@U?$_Simple_types@E@std@@@std@@@1@PBE1Uforward_iterator_tag@1@@Z 10004700 f i PdfBackend.obj
 0001:000038d0       ?_Xlength@?$vector@EV?$allocator@E@std@@@std@@CAXXZ 100048d0 f i PdfBackend.obj
 0001:000038d0       ?_Xlength@?$vector@NV?$allocator@N@std@@@std@@CAXXZ 100048d0 f i CanvasRenderingContext2d.obj
 0001:000038d0       ?_Xlength@?$vector@VFontFace@@V?$allocator@VFontFace@@@std@@@std@@CAXXZ 100048d0 f i Canvas.obj
 0001:000038d0       ?_Xlength@?$vector@V?$_List_unchecked_const_iterator@V?$_List_val@U?$_List_simple_types@V?$basic_string@DU?$char_traits@D@std@@V?$allocator@D@2@@std@@@std@@@std@@U_Iterator_base0@2@@std@@V?$allocator@V?$_List_unchecked_const_iterator@V?$_List_val@U?$_List_simple_types@V?$basic_string@DU?$char_traits@D@std@@V?$allocator@D@2@@std@@@std@@@std@@U_Iterator_base0@2@@std@@@2@@std@@CAXXZ 100048d0 f i Canvas.obj
 0001:000038e0       ?_Change_array@?$vector@EV?$allocator@E@std@@@std@@AAEXQAEII@Z 100048e0 f i PdfBackend.obj
 0001:00003940       ??0SvgBackend@@QAE@HH@Z    10004940 f   SvgBackend.obj
 0001:000039d0       ??_GSvgBackend@@UAEPAXI@Z  100049d0 f i SvgBackend.obj
 0001:000039d0       ??_ESvgBackend@@UAEPAXI@Z  100049d0 f i * CIL library *:* CIL module *
 0001:00003a40       ?createSurface@SvgBackend@@EAEPAU_cairo_surface@@XZ 10004a40 f   SvgBackend.obj
 0001:00003ac0       ?recreateSurface@SvgBackend@@EAEPAU_cairo_surface@@XZ 10004ac0 f   SvgBackend.obj
 0001:00003b00       ??1Parser@BMPParser@@QAE@XZ 10004b00 f   BMPParser.obj
 0001:00003bc0       ?parse@Parser@BMPParser@@QAEXPAEH0@Z 10004bc0 f   BMPParser.obj
 0001:00004a50       ?getErrMsg@Parser@BMPParser@@QBE?AV?$basic_string@DU?$char_traits@D@std@@V?$allocator@D@2@@std@@XZ 10005a50 f   BMPParser.obj
 0001:00004c70       ?getStr@Parser@BMPParser@@AAE?AV?$basic_string@DU?$char_traits@D@std@@V?$allocator@D@2@@std@@H_N@Z 10005c70 f   BMPParser.obj
 0001:00004ee0       ?skip@Parser@BMPParser@@AAEXH@Z 10005ee0 f   BMPParser.obj
 0001:00004f10       ?setOp@Parser@BMPParser@@AAEXV?$basic_string@DU?$char_traits@D@std@@V?$allocator@D@2@@std@@@Z 10005f10 f   BMPParser.obj
 0001:00004fa0       ?setErrUnsupported@Parser@BMPParser@@AAEXV?$basic_string@DU?$char_traits@D@std@@V?$allocator@D@2@@std@@@Z 10005fa0 f   BMPParser.obj
 0001:00005040       ?setErrUnknown@Parser@BMPParser@@AAEXV?$basic_string@DU?$char_traits@D@std@@V?$allocator@D@2@@std@@@Z 10006040 f   BMPParser.obj
 0001:000050e0       ?setErr@Parser@BMPParser@@AAEXV?$basic_string@DU?$char_traits@D@std@@V?$allocator@D@2@@std@@@Z 100060e0 f   BMPParser.obj
 0001:00005180       ??4?$basic_string@DU?$char_traits@D@std@@V?$allocator@D@2@@std@@QAEAAV01@$$QAV01@@Z 10006180 f i BMPParser.obj
 0001:00005200       ??0?$basic_string@DU?$char_traits@D@std@@V?$allocator@D@2@@std@@QAE@ID@Z 10006200 f i BMPParser.obj
 0001:00005340       ?push_back@?$basic_string@DU?$char_traits@D@std@@V?$allocator@D@2@@std@@QAEXD@Z 10006340 f i BMPParser.obj
 0001:00005480       ??$?HDU?$char_traits@D@std@@V?$allocator@D@1@@std@@YA?AV?$basic_string@DU?$char_traits@D@std@@V?$allocator@D@2@@0@ABV10@QBD@Z 10006480 f i BMPParser.obj
 0001:00005570       ??$?9DU?$char_traits@D@std@@V?$allocator@D@1@@std@@YA_NABV?$basic_string@DU?$char_traits@D@std@@V?$allocator@D@2@@0@QBD@Z 10006570 f i BMPParser.obj
 0001:000055b0       ??$get@H$00@Parser@BMPParser@@AAEHXZ 100065b0 f i BMPParser.obj
 0001:000055b0       ??$get@I$00@Parser@BMPParser@@AAEIXZ 100065b0 f i BMPParser.obj
 0001:00005600       ??$get@G$00@Parser@BMPParser@@AAEGXZ 10006600 f i BMPParser.obj
 0001:00005650       ??$?HDU?$char_traits@D@std@@V?$allocator@D@1@@std@@YA?AV?$basic_string@DU?$char_traits@D@std@@V?$allocator@D@2@@0@$$QAV10@ABV10@@Z 10006650 f i BMPParser.obj
 0001:000056f0       ??$_Traits_equal@U?$char_traits@D@std@@@std@@YA_NQBDI0I@Z 100066f0 f i BMPParser.obj
 0001:00005760       ?Initialize@Backends@@SAXV?$Local@VObject@v8@@@v8@@@Z 10006760 f   Backends.obj
 0001:00005b00       ?_Raise@exception@stdext@@QBEXXZ 10006b00 f i Canvas.obj
 0001:00005b30       ??0runtime_error@std@@QAE@PBD@Z 10006b30 f i Canvas.obj
 0001:00005b50       ??1runtime_error@std@@UAE@XZ 10006b50 f i Canvas.obj
 0001:00005b50       ??1failure@ios_base@std@@UAE@XZ 10006b50 f i Canvas.obj
 0001:00005b60       ??_E_Facet_base@std@@UAEPAXI@Z 10006b60 f i * CIL library *:* CIL module *
 0001:00005b60       ??_G_Facet_base@std@@UAEPAXI@Z 10006b60 f i Canvas.obj
 0001:00005b90       ?_Incref@facet@locale@std@@UAEXXZ 10006b90 f i Canvas.obj
 0001:00005ba0       ?_Decref@facet@locale@std@@UAEPAV_Facet_base@3@XZ 10006ba0 f i Canvas.obj
 0001:00005bc0       ??1locale@std@@QAE@XZ      10006bc0 f i Canvas.obj
 0001:00005c10       ?_Getcat@?$ctype@D@std@@SAIPAPBVfacet@locale@2@PBV42@@Z 10006c10 f i Canvas.obj
 0001:00005dd0       ?do_tolower@?$ctype@D@std@@MBEDD@Z 10006dd0 f i Canvas.obj
 0001:00005df0       ?do_tolower@?$ctype@D@std@@MBEPBDPADPBD@Z 10006df0 f i Canvas.obj
 0001:00005e30       ?do_toupper@?$ctype@D@std@@MBEDD@Z 10006e30 f i Canvas.obj
 0001:00005e50       ?do_toupper@?$ctype@D@std@@MBEPBDPADPBD@Z 10006e50 f i Canvas.obj
 0001:00005e90       ?do_widen@?$ctype@D@std@@MBEDD@Z 10006e90 f i Canvas.obj
 0001:00005ea0       ?do_widen@?$ctype@D@std@@MBEPBDPBD0PAD@Z 10006ea0 f i Canvas.obj
 0001:00005ec0       ?do_narrow@?$ctype@D@std@@MBEDDD@Z 10006ec0 f i Canvas.obj
 0001:00005ed0       ?do_narrow@?$ctype@D@std@@MBEPBDPBD0DPAD@Z 10006ed0 f i Canvas.obj
 0001:00005ef0       ??_E?$ctype@D@std@@MAEPAXI@Z 10006ef0 f i * CIL library *:* CIL module *
 0001:00005ef0       ??_G?$ctype@D@std@@MAEPAXI@Z 10006ef0 f i Canvas.obj
 0001:00005f40       ?default_error_condition@error_category@std@@UBE?AVerror_condition@2@H@Z 10006f40 f i Canvas.obj
 0001:00005f50       ?equivalent@error_category@std@@UBE_NHABVerror_condition@2@@Z 10006f50 f i Canvas.obj
 0001:00005fb0       ?equivalent@error_category@std@@UBE_NABVerror_code@2@H@Z 10006fb0 f i Canvas.obj
 0001:00005fe0       ?make_error_code@std@@YA?AVerror_code@1@W4io_errc@1@@Z 10006fe0 f i Canvas.obj
 0001:00006010       ??0_System_error@std@@IAE@Verror_code@1@ABV?$basic_string@DU?$char_traits@D@std@@V?$allocator@D@2@@1@@Z 10007010 f i Canvas.obj
 0001:00006210       ??_Gfailure@ios_base@std@@UAEPAXI@Z 10007210 f i Canvas.obj
 0001:00006210       ??_G_System_error@std@@UAEPAXI@Z 10007210 f i Canvas.obj
 0001:00006210       ??_Efailure@ios_base@std@@UAEPAXI@Z 10007210 f i * CIL library *:* CIL module *
 0001:00006210       ??_E_System_error@std@@UAEPAXI@Z 10007210 f i * CIL library *:* CIL module *
 0001:00006240       ?name@_Iostream_error_category@std@@UBEPBDXZ 10007240 f i Canvas.obj
 0001:00006250       ?message@_Iostream_error_category@std@@UBE?AV?$basic_string@DU?$char_traits@D@std@@V?$allocator@D@2@@2@H@Z 10007250 f i Canvas.obj
 0001:000062d0       ??_G_Iostream_error_category@std@@UAEPAXI@Z 100072d0 f i Canvas.obj
 0001:000062d0       ??_E_Iostream_error_category@std@@UAEPAXI@Z 100072d0 f i * CIL library *:* CIL module *
 0001:000062f0       ??0failure@ios_base@std@@QAE@PBDABVerror_code@2@@Z 100072f0 f i Canvas.obj
 0001:000063d0       ?_Doraise@failure@ios_base@std@@MBEXXZ 100073d0 f i Canvas.obj
 0001:000063e0       ??_Gios_base@std@@UAEPAXI@Z 100073e0 f i Canvas.obj
 0001:000063e0       ??_Eios_base@std@@UAEPAXI@Z 100073e0 f i * CIL library *:* CIL module *
 0001:000065b0       ?Call@Nan@@YA?AV?$MaybeLocal@VValue@v8@@@v8@@V?$Local@VFunction@v8@@@3@V?$Local@VObject@v8@@@3@HQAV?$Local@VValue@v8@@@3@@Z 100075b0 f i Canvas.obj
 0001:00006650       ??$New@VNumber@v8@@N@Nan@@YA?AV?$Local@VNumber@v8@@@v8@@N@Z 10007650 f i CanvasRenderingContext2d.obj
 0001:00006650       ?New@?$Factory@VNumber@v8@@@imp@Nan@@SA?AV?$Local@VNumber@v8@@@v8@@N@Z 10007650 f i Canvas.obj
 0001:00006680       ?ThrowError@Nan@@YAXPBD@Z  10007680 f i Canvas.obj
 0001:00006720       ?ThrowTypeError@Nan@@YAXPBD@Z 10007720 f i Canvas.obj
 0001:000067c0       ?CopyBuffer@Nan@@YA?AV?$MaybeLocal@VObject@v8@@@v8@@PBDI@Z 100077c0 f i Canvas.obj
 0001:00006810       ??0Utf8String@Nan@@QAE@V?$Local@VValue@v8@@@v8@@@Z 10007810 f i Canvas.obj
 0001:00006910       ??1Utf8String@Nan@@QAE@XZ  10007910 f i Canvas.obj
 0001:00006930       ?Call@Callback@Nan@@QBE?AV?$MaybeLocal@VValue@v8@@@v8@@HQAV?$Local@VValue@v8@@@4@PAVAsyncResource@2@@Z 10007930 f i Canvas.obj
 0001:00006a20       ?Call@Nan@@YA?AV?$MaybeLocal@VValue@v8@@@v8@@ABVCallback@1@V?$Local@VObject@v8@@@3@HQAV?$Local@VValue@v8@@@3@@Z 10007a20 f i Canvas.obj
 0001:00006ae0       ?SetPrototypeMethod@Nan@@YAXV?$Local@VFunctionTemplate@v8@@@v8@@PBDP6AXABV?$FunctionCallbackInfo@VValue@v8@@@1@@Z@Z 10007ae0 f i Canvas.obj
 0001:00006bc0       ?SetAccessor@Nan@@YAXV?$Local@VObjectTemplate@v8@@@v8@@V?$Local@VString@v8@@@3@P6AX1ABV?$PropertyCallbackInfo@VValue@v8@@@1@@ZP6AX1V?$Local@VValue@v8@@@3@ABV?$PropertyCallbackInfo@X@1@@Z4W4AccessControl@3@W4PropertyAttribute@3@V?$Local@VAccessorSignature@v8@@@3@@Z 10007bc0 f i Canvas.obj
 0001:00006d30       ??0PngClosure@@QAE@PAVCanvas@@@Z 10007d30 f i Canvas.obj
 0001:00006d90       ??0JpegClosure@@QAE@PAVCanvas@@@Z 10007d90 f i Canvas.obj
 0001:00006e40       ??1JpegClosure@@QAE@XZ     10007e40 f i Canvas.obj
 0001:00007010       ?setjmp_wrapper@@YA_NPAUpng_struct_def@@@Z 10008010 f   Canvas.obj
 0001:000075b0       ?empty_closure_output_buffer@@YAEPAUjpeg_compress_struct@@@Z 100085b0 f   Canvas.obj
 0001:000076c0       ?term_closure_destination@@YAXPAUjpeg_compress_struct@@@Z 100086c0 f   Canvas.obj
 0001:000077d0       ?encode_jpeg@@YAXUjpeg_compress_struct@@PAU_cairo_surface@@H_NHH@Z 100087d0 f   Canvas.obj
 0001:00007940       ?write_to_jpeg_stream@@YAXPAU_cairo_surface@@HPAUJpegClosure@@@Z 10008940 f   Canvas.obj
 0001:00007a40       ?write_to_jpeg_buffer@@YAXPAU_cairo_surface@@PAUJpegClosure@@@Z 10008a40 f   Canvas.obj
 0001:00007ae0       ?Initialize@Canvas@@SAXV?$Local@VObject@v8@@@v8@@@Z 10008ae0 f   Canvas.obj
 0001:00008310       ?New@Canvas@@SAXABV?$FunctionCallbackInfo@VValue@v8@@@Nan@@@Z 10009310 f   Canvas.obj
 0001:000088a0       ?GetType@Canvas@@SAXV?$Local@VString@v8@@@v8@@ABV?$PropertyCallbackInfo@VValue@v8@@@Nan@@@Z 100098a0 f   Canvas.obj
 0001:00008900       ?GetStride@Canvas@@SAXV?$Local@VString@v8@@@v8@@ABV?$PropertyCallbackInfo@VValue@v8@@@Nan@@@Z 10009900 f   Canvas.obj
 0001:00008960       ?GetWidth@Canvas@@SAXV?$Local@VString@v8@@@v8@@ABV?$PropertyCallbackInfo@VValue@v8@@@Nan@@@Z 10009960 f   Canvas.obj
 0001:000089b0       ?SetWidth@Canvas@@SAXV?$Local@VString@v8@@@v8@@V?$Local@VValue@v8@@@3@ABV?$PropertyCallbackInfo@X@Nan@@@Z 100099b0 f   Canvas.obj
 0001:00008a90       ?GetHeight@Canvas@@SAXV?$Local@VString@v8@@@v8@@ABV?$PropertyCallbackInfo@VValue@v8@@@Nan@@@Z 10009a90 f   Canvas.obj
 0001:00008ae0       ?SetHeight@Canvas@@SAXV?$Local@VString@v8@@@v8@@V?$Local@VValue@v8@@@3@ABV?$PropertyCallbackInfo@X@Nan@@@Z 10009ae0 f   Canvas.obj
 0001:00008bc0       ?ToPngBufferAsync@Canvas@@SAXPAUuv_work_s@@@Z 10009bc0 f   Canvas.obj
 0001:00008c30       ?ToJpegBufferAsync@Canvas@@SAXPAUuv_work_s@@@Z 10009c30 f   Canvas.obj
 0001:00008c60       ?ToBufferAsyncAfter@Canvas@@SAXPAUuv_work_s@@@Z 10009c60 f   Canvas.obj
 0001:00009550       ?ToBuffer@Canvas@@SAXABV?$FunctionCallbackInfo@VValue@v8@@@Nan@@@Z 1000a550 f   Canvas.obj
 0001:00009e80       ??1PngClosure@@QAE@XZ      1000ae80 f i Canvas.obj
 0001:00009e90       ??1TryCatch@Nan@@QAE@XZ    1000ae90 f i Canvas.obj
 0001:00009fc0       ?StreamPNGSync@Canvas@@SAXABV?$FunctionCallbackInfo@VValue@v8@@@Nan@@@Z 1000afc0 f   Canvas.obj
 0001:0000a270       ?StreamPDFSync@Canvas@@SAXABV?$FunctionCallbackInfo@VValue@v8@@@Nan@@@Z 1000b270 f   Canvas.obj
 0001:0000a6a0       ?StreamJPEGSync@Canvas@@SAXABV?$FunctionCallbackInfo@VValue@v8@@@Nan@@@Z 1000b6a0 f   Canvas.obj
 0001:0000a830       ?str_value@@YAPADV?$Local@VValue@v8@@@v8@@PBD_N@Z 1000b830 f   Canvas.obj
 0001:0000a910       ?RegisterFont@Canvas@@SAXABV?$FunctionCallbackInfo@VValue@v8@@@Nan@@@Z 1000b910 f   Canvas.obj
 0001:0000acc0       ??_GCanvas@@EAEPAXI@Z      1000bcc0 f i Canvas.obj
 0001:0000acc0       ??_ECanvas@@EAEPAXI@Z      1000bcc0 f i * CIL library *:* CIL module *
 0001:0000ad60       ?GetStyleFromCSSString@Canvas@@SA?AW4PangoStyle@@PBD@Z 1000bd60 f   Canvas.obj
 0001:0000ae10       ?GetWeightFromCSSString@Canvas@@SA?AW4PangoWeight@@PBD@Z 1000be10 f   Canvas.obj
 0001:0000b0b0       ?ResolveFontDescription@Canvas@@SAPAU_PangoFontDescription@@PBU2@@Z 1000c0b0 f   Canvas.obj
 0001:0000b790       ??_D?$basic_istringstream@DU?$char_traits@D@std@@V?$allocator@D@2@@std@@QAEXXZ 1000c790 f i Canvas.obj
 0001:0000b820       ??1?$unordered_set@V?$basic_string@DU?$char_traits@D@std@@V?$allocator@D@2@@std@@U?$hash@V?$basic_string@DU?$char_traits@D@std@@V?$allocator@D@2@@std@@@2@U?$equal_to@V?$basic_string@DU?$char_traits@D@std@@V?$allocator@D@2@@std@@@2@V?$allocator@V?$basic_string@DU?$char_traits@D@std@@V?$allocator@D@2@@std@@@2@@std@@QAE@XZ 1000c820 f i Canvas.obj
 0001:0000b830       ??1?$_Hash@V?$_Uset_traits@V?$basic_string@DU?$char_traits@D@std@@V?$allocator@D@2@@std@@V?$_Uhash_compare@V?$basic_string@DU?$char_traits@D@std@@V?$allocator@D@2@@std@@U?$hash@V?$basic_string@DU?$char_traits@D@std@@V?$allocator@D@2@@std@@@2@U?$equal_to@V?$basic_string@DU?$char_traits@D@std@@V?$allocator@D@2@@std@@@2@@2@V?$allocator@V?$basic_string@DU?$char_traits@D@std@@V?$allocator@D@2@@std@@@2@$0A@@std@@@std@@QAE@XZ 1000c830 f i Canvas.obj
 0001:0000b910       ?resurface@Canvas@@QAEXV?$Local@VObject@v8@@@v8@@@Z 1000c910 f   Canvas.obj
 0001:0000ba60       ?createCairoContext@Canvas@@QAEPAU_cairo@@XZ 1000ca60 f   Canvas.obj
 0001:0000bab0       ?Error@Canvas@@SA?AV?$Local@VValue@v8@@@v8@@W4_cairo_status@@@Z 1000cab0 f   Canvas.obj
 0001:0000bb00       ??1?$vector@V?$_List_unchecked_const_iterator@V?$_List_val@U?$_List_simple_types@V?$basic_string@DU?$char_traits@D@std@@V?$allocator@D@2@@std@@@std@@@std@@U_Iterator_base0@2@@std@@V?$allocator@V?$_List_unchecked_const_iterator@V?$_List_val@U?$_List_simple_types@V?$basic_string@DU?$char_traits@D@std@@V?$allocator@D@2@@std@@@std@@@std@@U_Iterator_base0@2@@std@@@2@@std@@QAE@XZ 1000cb00 f i Canvas.obj
 0001:0000bb60       ??1?$list@V?$basic_string@DU?$char_traits@D@std@@V?$allocator@D@2@@std@@V?$allocator@V?$basic_string@DU?$char_traits@D@std@@V?$allocator@D@2@@std@@@2@@std@@QAE@XZ 1000cb60 f i Canvas.obj
 0001:0000bbf0       ??0?$TypedArrayContents@E@Nan@@QAE@V?$Local@VValue@v8@@@v8@@@Z 1000cbf0 f i Canvas.obj
 0001:0000bcb0       ??1?$_Yarn@D@std@@QAE@XZ   1000ccb0 f i Canvas.obj
 0001:0000bcb0       ??1?$_Yarn@_W@std@@QAE@XZ  1000ccb0 f i Canvas.obj
 0001:0000bcd0       ??0?$basic_istringstream@DU?$char_traits@D@std@@V?$allocator@D@2@@std@@QAE@ABV?$basic_string@DU?$char_traits@D@std@@V?$allocator@D@2@@1@H@Z 1000ccd0 f i Canvas.obj
 0001:0000bfa0       ?seekpos@?$basic_stringbuf@DU?$char_traits@D@std@@V?$allocator@D@2@@std@@MAE?AV?$fpos@U_Mbstatet@@@2@V32@H@Z 1000cfa0 f i Canvas.obj
 0001:0000c0a0       ?seekoff@?$basic_stringbuf@DU?$char_traits@D@std@@V?$allocator@D@2@@std@@MAE?AV?$fpos@U_Mbstatet@@@2@_JHH@Z 1000d0a0 f i Canvas.obj
 0001:0000c210       ?underflow@?$basic_stringbuf@DU?$char_traits@D@std@@V?$allocator@D@2@@std@@MAEHXZ 1000d210 f i Canvas.obj
 0001:0000c270       ?pbackfail@?$basic_stringbuf@DU?$char_traits@D@std@@V?$allocator@D@2@@std@@MAEHH@Z 1000d270 f i Canvas.obj
 0001:0000c2c0       ?overflow@?$basic_stringbuf@DU?$char_traits@D@std@@V?$allocator@D@2@@std@@MAEHH@Z 1000d2c0 f i Canvas.obj
 0001:0000c470       ??1?$basic_stringbuf@DU?$char_traits@D@std@@V?$allocator@D@2@@std@@UAE@XZ 1000d470 f i Canvas.obj
 0001:0000c580       ??1?$basic_istream@DU?$char_traits@D@std@@@std@@UAE@XZ 1000d580 f i Canvas.obj
 0001:0000c5a0       ?imbue@?$basic_streambuf@DU?$char_traits@D@std@@@std@@MAEXABVlocale@2@@Z 1000d5a0 f i Canvas.obj
 0001:0000c5b0       ?sync@?$basic_streambuf@DU?$char_traits@D@std@@@std@@MAEHXZ 1000d5b0 f i Canvas.obj
 0001:0000c5c0       ?setbuf@?$basic_streambuf@DU?$char_traits@D@std@@@std@@MAEPAV12@PAD_J@Z 1000d5c0 f i Canvas.obj
 0001:0000c5d0       ?seekpos@?$basic_streambuf@DU?$char_traits@D@std@@@std@@MAE?AV?$fpos@U_Mbstatet@@@2@V32@H@Z 1000d5d0 f i Canvas.obj
 0001:0000c600       ?seekoff@?$basic_streambuf@DU?$char_traits@D@std@@@std@@MAE?AV?$fpos@U_Mbstatet@@@2@_JHH@Z 1000d600 f i Canvas.obj
 0001:0000c630       ?xsputn@?$basic_streambuf@DU?$char_traits@D@std@@@std@@MAE_JPBD_J@Z 1000d630 f i Canvas.obj
 0001:0000c710       ?xsgetn@?$basic_streambuf@DU?$char_traits@D@std@@@std@@MAE_JPAD_J@Z 1000d710 f i Canvas.obj
 0001:0000c810       ?uflow@?$basic_streambuf@DU?$char_traits@D@std@@@std@@MAEHXZ 1000d810 f i Canvas.obj
 0001:0000c840       ?showmanyc@?$basic_streambuf@DU?$char_traits@D@std@@@std@@MAE_JXZ 1000d840 f i Canvas.obj
 0001:0000c850       ?overflow@?$basic_streambuf@DU?$char_traits@D@std@@@std@@MAEHH@Z 1000d850 f i Canvas.obj
 0001:0000c850       ?pbackfail@?$basic_streambuf@DU?$char_traits@D@std@@@std@@MAEHH@Z 1000d850 f i Canvas.obj
 0001:0000c860       ??1?$basic_streambuf@DU?$char_traits@D@std@@@std@@UAE@XZ 1000d860 f i Canvas.obj
 0001:0000c8d0       ??1?$basic_ios@DU?$char_traits@D@std@@@std@@UAE@XZ 1000d8d0 f i Canvas.obj
 0001:0000c920       ??_G?$basic_istringstream@DU?$char_traits@D@std@@V?$allocator@D@2@@std@@UAEPAXI@Z 1000d920 f i Canvas.obj
 0001:0000c920       ??_E?$basic_istringstream@DU?$char_traits@D@std@@V?$allocator@D@2@@std@@UAEPAXI@Z 1000d920 f i * CIL library *:* CIL module *
 0001:0000c950       ??_E?$basic_stringbuf@DU?$char_traits@D@std@@V?$allocator@D@2@@std@@UAEPAXI@Z 1000d950 f i * CIL library *:* CIL module *
 0001:0000c950       ??_G?$basic_stringbuf@DU?$char_traits@D@std@@V?$allocator@D@2@@std@@UAEPAXI@Z 1000d950 f i Canvas.obj
 0001:0000c970       ??_G?$basic_istream@DU?$char_traits@D@std@@@std@@UAEPAXI@Z 1000d970 f i Canvas.obj
 0001:0000c970       ??_E?$basic_istream@DU?$char_traits@D@std@@@std@@UAEPAXI@Z 1000d970 f i * CIL library *:* CIL module *
 0001:0000c9f0       ??_E?$basic_streambuf@DU?$char_traits@D@std@@@std@@UAEPAXI@Z 1000d9f0 f i * CIL library *:* CIL module *
 0001:0000c9f0       ??_G?$basic_streambuf@DU?$char_traits@D@std@@@std@@UAEPAXI@Z 1000d9f0 f i Canvas.obj
 0001:0000ca80       ??_E?$basic_ios@DU?$char_traits@D@std@@@std@@UAEPAXI@Z 1000da80 f i * CIL library *:* CIL module *
 0001:0000ca80       ??_G?$basic_ios@DU?$char_traits@D@std@@@std@@UAEPAXI@Z 1000da80 f i Canvas.obj
 0001:0000cae0       ?_Pnavail@?$basic_streambuf@DU?$char_traits@D@std@@@std@@IBE_JXZ 1000dae0 f i Canvas.obj
 0001:0000cb00       ?_Gnavail@?$basic_streambuf@DU?$char_traits@D@std@@@std@@IBE_JXZ 1000db00 f i Canvas.obj
 0001:0000cb20       ?_Init@?$_Hash@V?$_Uset_traits@V?$basic_string@DU?$char_traits@D@std@@V?$allocator@D@2@@std@@V?$_Uhash_compare@V?$basic_string@DU?$char_traits@D@std@@V?$allocator@D@2@@std@@U?$hash@V?$basic_string@DU?$char_traits@D@std@@V?$allocator@D@2@@std@@@2@U?$equal_to@V?$basic_string@DU?$char_traits@D@std@@V?$allocator@D@2@@std@@@2@@2@V?$allocator@V?$basic_string@DU?$char_traits@D@std@@V?$allocator@D@2@@std@@@2@$0A@@std@@@std@@IAEXI@Z 1000db20 f i Canvas.obj
 0001:0000cc60       ?assign@?$vector@V?$_List_unchecked_const_iterator@V?$_List_val@U?$_List_simple_types@V?$basic_string@DU?$char_traits@D@std@@V?$allocator@D@2@@std@@@std@@@std@@U_Iterator_base0@2@@std@@V?$allocator@V?$_List_unchecked_const_iterator@V?$_List_val@U?$_List_simple_types@V?$basic_string@DU?$char_traits@D@std@@V?$allocator@D@2@@std@@@std@@@std@@U_Iterator_base0@2@@std@@@2@@std@@QAEXIABV?$_List_unchecked_const_iterator@V?$_List_val@U?$_List_simple_types@V?$basic_string@DU?$char_traits@D@std@@V?$allocator@D@2@@std@@@std@@@std@@U_Iterator_base0@2@@2@@Z 1000dc60 f i Canvas.obj
 0001:0000cdd0       ?_Freenode@?$_List_buy@V?$basic_string@DU?$char_traits@D@std@@V?$allocator@D@2@@std@@V?$allocator@V?$basic_string@DU?$char_traits@D@std@@V?$allocator@D@2@@std@@@2@@std@@QAEXPAU?$_List_node@V?$basic_string@DU?$char_traits@D@std@@V?$allocator@D@2@@std@@PAX@2@@Z 1000ddd0 f i Canvas.obj
 0001:0000ce30       ?setstate@?$basic_ios@DU?$char_traits@D@std@@@std@@QAEXH_N@Z 1000de30 f i Canvas.obj
 0001:0000ced0       ??$use_facet@V?$ctype@D@std@@@std@@YAABV?$ctype@D@0@ABVlocale@0@@Z 1000ded0 f i Canvas.obj
 0001:0000cff0       ??$New@VString@v8@@V?$basic_string@DU?$char_traits@D@std@@V?$allocator@D@2@@std@@@Nan@@YA?AV?$MaybeLocal@VString@v8@@@v8@@V?$basic_string@DU?$char_traits@D@std@@V?$allocator@D@2@@std@@@Z 1000dff0 f i Canvas.obj
 0001:0000d0b0       ??$New@VFunctionTemplate@v8@@V?$NonCopyablePersistentTraits@VFunctionTemplate@v8@@@2@@Nan@@YA?AV?$Local@VFunctionTemplate@v8@@@v8@@ABV?$Persistent@VFunctionTemplate@v8@@V?$NonCopyablePersistentTraits@VFunctionTemplate@v8@@@2@@0@@Z 1000e0b0 f i Canvas.obj
 0001:0000d0e0       ??$Unwrap@VContext2d@@@ObjectWrap@Nan@@SAPAVContext2d@@V?$Local@VObject@v8@@@v8@@@Z 1000e0e0 f i Canvas.obj
 0001:0000d0e0       ??$Unwrap@VImage@@@ObjectWrap@Nan@@SAPAVImage@@V?$Local@VObject@v8@@@v8@@@Z 1000e0e0 f i CanvasPattern.obj
 0001:0000d0e0       ??$Unwrap@VPattern@@@ObjectWrap@Nan@@SAPAVPattern@@V?$Local@VObject@v8@@@v8@@@Z 1000e0e0 f i CanvasRenderingContext2d.obj
 0001:0000d0e0       ??$Unwrap@VGradient@@@ObjectWrap@Nan@@SAPAVGradient@@V?$Local@VObject@v8@@@v8@@@Z 1000e0e0 f i CanvasGradient.obj
 0001:0000d0e0       ??$Unwrap@VImageData@@@ObjectWrap@Nan@@SAPAVImageData@@V?$Local@VObject@v8@@@v8@@@Z 1000e0e0 f i CanvasRenderingContext2d.obj
 0001:0000d0e0       ??$Unwrap@VCanvas@@@ObjectWrap@Nan@@SAPAVCanvas@@V?$Local@VObject@v8@@@v8@@@Z 1000e0e0 f i Canvas.obj
 0001:0000d150       ??$_Emplace_reallocate@ABVFontFace@@@?$vector@VFontFace@@V?$allocator@VFontFace@@@std@@@std@@QAEPAVFontFace@@QAV2@ABV2@@Z 1000e150 f i Canvas.obj
 0001:0000d300       ??$_Fill_unchecked@PAV?$_List_unchecked_const_iterator@V?$_List_val@U?$_List_simple_types@V?$basic_string@DU?$char_traits@D@std@@V?$allocator@D@2@@std@@@std@@@std@@U_Iterator_base0@2@@std@@V12@@std@@YAXPAV?$_List_unchecked_const_iterator@V?$_List_val@U?$_List_simple_types@V?$basic_string@DU?$char_traits@D@std@@V?$allocator@D@2@@std@@@std@@@std@@U_Iterator_base0@2@@0@0ABV10@@Z 1000e300 f i Canvas.obj
 0001:0000d380       ??1?$unique_ptr@V_Facet_base@std@@U?$default_delete@V_Facet_base@std@@@2@@std@@QAE@XZ 1000e380 f i Canvas.obj
 0001:0000d390       ??$getline@DU?$char_traits@D@std@@V?$allocator@D@2@@std@@YAAAV?$basic_istream@DU?$char_traits@D@std@@@0@$$QAV10@AAV?$basic_string@DU?$char_traits@D@std@@V?$allocator@D@2@@0@D@Z 1000e390 f i Canvas.obj
 0001:0000d5a0       ??$_Immortalize_impl@V_Iostream_error_category@std@@@std@@YGHPAX0PAPAX@Z 1000e5a0 f i Canvas.obj
 0001:0000d5c0       ??$_Insert@V?$basic_string@DU?$char_traits@D@std@@V?$allocator@D@2@@std@@U_Not_a_node_tag@2@@?$_Hash@V?$_Uset_traits@V?$basic_string@DU?$char_traits@D@std@@V?$allocator@D@2@@std@@V?$_Uhash_compare@V?$basic_string@DU?$char_traits@D@std@@V?$allocator@D@2@@std@@U?$hash@V?$basic_string@DU?$char_traits@D@std@@V?$allocator@D@2@@std@@@2@U?$equal_to@V?$basic_string@DU?$char_traits@D@std@@V?$allocator@D@2@@std@@@2@@2@V?$allocator@V?$basic_string@DU?$char_traits@D@std@@V?$allocator@D@2@@std@@@2@$0A@@std@@@std@@IAE?AU?$pair@V?$_List_const_iterator@V?$_List_val@U?$_List_simple_types@V?$basic_string@DU?$char_traits@D@std@@V?$allocator@D@2@@std@@@std@@@std@@@std@@_N@1@$$QAV?$basic_string@DU?$char_traits@D@std@@V?$allocator@D@2@@1@U_Not_a_node_tag@1@@Z 1000e5c0 f i Canvas.obj
 0001:0000d780       ??1sentry@?$basic_istream@DU?$char_traits@D@std@@@std@@QAE@XZ 1000e780 f i Canvas.obj
 0001:0000d7e0       ?_Check_size@?$_Hash@V?$_Uset_traits@V?$basic_string@DU?$char_traits@D@std@@V?$allocator@D@2@@std@@V?$_Uhash_compare@V?$basic_string@DU?$char_traits@D@std@@V?$allocator@D@2@@std@@U?$hash@V?$basic_string@DU?$char_traits@D@std@@V?$allocator@D@2@@std@@@2@U?$equal_to@V?$basic_string@DU?$char_traits@D@std@@V?$allocator@D@2@@std@@@2@@2@V?$allocator@V?$basic_string@DU?$char_traits@D@std@@V?$allocator@D@2@@std@@@2@$0A@@std@@@std@@IAEXXZ 1000e7e0 f i Canvas.obj
 0001:0000d870       ??1_Sentry_base@?$basic_ostream@DU?$char_traits@D@std@@@std@@QAE@XZ 1000e870 f i Canvas.obj
 0001:0000d870       ??1_Sentry_base@?$basic_istream@DU?$char_traits@D@std@@@std@@QAE@XZ 1000e870 f i Canvas.obj
 0001:0000d8c0       ?sbumpc@?$basic_streambuf@DU?$char_traits@D@std@@@std@@QAEHXZ 1000e8c0 f i Canvas.obj
 0001:0000d920       ?_Reinsert@?$_Hash@V?$_Uset_traits@V?$basic_string@DU?$char_traits@D@std@@V?$allocator@D@2@@std@@V?$_Uhash_compare@V?$basic_string@DU?$char_traits@D@std@@V?$allocator@D@2@@std@@U?$hash@V?$basic_string@DU?$char_traits@D@std@@V?$allocator@D@2@@std@@@2@U?$equal_to@V?$basic_string@DU?$char_traits@D@std@@V?$allocator@D@2@@std@@@2@@2@V?$allocator@V?$basic_string@DU?$char_traits@D@std@@V?$allocator@D@2@@std@@@2@$0A@@std@@@std@@IAEXXZ 1000e920 f i Canvas.obj
 0001:0000da70       ?flush@?$basic_ostream@DU?$char_traits@D@std@@@std@@QAEAAV12@XZ 1000ea70 f i Canvas.obj
 0001:0000dba0       ??1sentry@?$basic_ostream@DU?$char_traits@D@std@@@std@@QAE@XZ 1000eba0 f i Canvas.obj
 0001:0000dc3a       ??_E?$basic_istream@DU?$char_traits@D@std@@@std@@$4PPPPPPPM@A@AEPAXI@Z 1000ec3a f i Canvas.obj
 0001:0000dc42       ??_E?$basic_istringstream@DU?$char_traits@D@std@@V?$allocator@D@2@@std@@$4PPPPPPPM@A@AEPAXI@Z 1000ec42 f i Canvas.obj
 0001:0000dc50       ?New@Gradient@@SAXABV?$FunctionCallbackInfo@VValue@v8@@@Nan@@@Z 1000ec50 f   CanvasGradient.obj
 0001:0000e1f0       ?AddColorStop@Gradient@@SAXABV?$FunctionCallbackInfo@VValue@v8@@@Nan@@@Z 1000f1f0 f   CanvasGradient.obj
 0001:0000e410       ??0Gradient@@QAE@NNNN@Z    1000f410 f   CanvasGradient.obj
 0001:0000e470       ??_GGradient@@EAEPAXI@Z    1000f470 f i CanvasGradient.obj
 0001:0000e470       ??_EGradient@@EAEPAXI@Z    1000f470 f i * CIL library *:* CIL module *
 0001:0000e510       ??0Gradient@@QAE@NNNNNN@Z  1000f510 f   CanvasGradient.obj
 0001:0000e580       ?Initialize@Pattern@@SAXV?$Local@VObject@v8@@@v8@@@Z 1000f580 f   CanvasPattern.obj
 0001:0000e730       ?New@Pattern@@SAXABV?$FunctionCallbackInfo@VValue@v8@@@Nan@@@Z 1000f730 f   CanvasPattern.obj
 0001:0000eac0       ??_GPattern@@EAEPAXI@Z     1000fac0 f i CanvasPattern.obj
 0001:0000eac0       ??_EPattern@@EAEPAXI@Z     1000fac0 f i * CIL library *:* CIL module *
 0001:0000eb60       ?NewInstance@Nan@@YA?AV?$MaybeLocal@VObject@v8@@@v8@@V?$Local@VFunction@v8@@@3@HQAV?$Local@VValue@v8@@@3@@Z 1000fb60 f i CanvasRenderingContext2d.obj
 0001:0000ec00       ?GetFunction@Nan@@YA?AV?$MaybeLocal@VFunction@v8@@@v8@@V?$Local@VFunctionTemplate@v8@@@3@@Z 1000fc00 f i CanvasRenderingContext2d.obj
 0001:0000edc0       ?Initialize@Context2d@@SAXV?$Local@VObject@v8@@@v8@@@Z 1000fdc0 f   CanvasRenderingContext2d.obj
 0001:0000fb50       ??_EContext2d@@EAEPAXI@Z   10010b50 f i * CIL library *:* CIL module *
 0001:0000fb50       ??_GContext2d@@EAEPAXI@Z   10010b50 f i CanvasRenderingContext2d.obj
 0001:0000fc40       ??1?$Persistent@VValue@v8@@V?$NonCopyablePersistentTraits@VValue@v8@@@2@@Nan@@QAE@XZ 10010c40 f i CanvasRenderingContext2d.obj
 0001:0000fc80       ?resetState@Context2d@@QAEX_N@Z 10010c80 f   CanvasRenderingContext2d.obj
 0001:0000fe30       ?_resetPersistentHandles@Context2d@@AAEXXZ 10010e30 f   CanvasRenderingContext2d.obj
 0001:0000fec0       ?restorePath@Context2d@@QAEXXZ 10010ec0 f   CanvasRenderingContext2d.obj
 0001:0000ff00       ?create_transparent_gradient@@YAPAU_cairo_pattern@@PAU1@M@Z 10010f00 f   CanvasRenderingContext2d.obj
 0001:000100c0       ?create_transparent_pattern@@YAPAU_cairo_pattern@@PAU1@M@Z 100110c0 f   CanvasRenderingContext2d.obj
 0001:00010170       ?setFillRule@Context2d@@QAEXV?$Local@VValue@v8@@@v8@@@Z 10011170 f i CanvasRenderingContext2d.obj
 0001:00010240       ?fill@Context2d@@QAEX_N@Z  10011240 f   CanvasRenderingContext2d.obj
 0001:000104c0       ?stroke@Context2d@@QAEX_N@Z 100114c0 f   CanvasRenderingContext2d.obj
 0001:00010740       ?shadow@Context2d@@QAEXP6AXPAU_cairo@@@Z@Z 10011740 f   CanvasRenderingContext2d.obj
 0001:00010b20       ?setSourceRGBA@Context2d@@QAEXUrgba_t@@@Z 10011b20 f i CanvasRenderingContext2d.obj
 0001:00010b70       ?setSourceRGBA@Context2d@@QAEXPAU_cairo@@Urgba_t@@@Z 10011b70 f i CanvasRenderingContext2d.obj
 0001:00010bc0       ?hasShadow@Context2d@@QAE_NXZ 10011bc0 f i CanvasRenderingContext2d.obj
 0001:00010c10       ?blur@Context2d@@QAEXPAU_cairo_surface@@H@Z 10011c10 f   CanvasRenderingContext2d.obj
 0001:00010e70       ?New@Context2d@@SAXABV?$FunctionCallbackInfo@VValue@v8@@@Nan@@@Z 10011e70 f   CanvasRenderingContext2d.obj
 0001:00011470       ?SaveExternalModules@Context2d@@SAXABV?$FunctionCallbackInfo@VValue@v8@@@Nan@@@Z 10012470 f   CanvasRenderingContext2d.obj
 0001:00011550       ?GetFormat@Context2d@@SAXV?$Local@VString@v8@@@v8@@ABV?$PropertyCallbackInfo@VValue@v8@@@Nan@@@Z 10012550 f   CanvasRenderingContext2d.obj
 0001:000116b0       ?AddPage@Context2d@@SAXABV?$FunctionCallbackInfo@VValue@v8@@@Nan@@@Z 100126b0 f   CanvasRenderingContext2d.obj
 0001:000118e0       ?PutImageData@Context2d@@SAXABV?$FunctionCallbackInfo@VValue@v8@@@Nan@@@Z 100128e0 f   CanvasRenderingContext2d.obj
 0001:000120e0       ?GetImageData@Context2d@@SAXABV?$FunctionCallbackInfo@VValue@v8@@@Nan@@@Z 100130e0 f   CanvasRenderingContext2d.obj
 0001:00012810       ?CreateImageData@Context2d@@SAXABV?$FunctionCallbackInfo@VValue@v8@@@Nan@@@Z 10013810 f   CanvasRenderingContext2d.obj
 0001:00012da0       ?DrawImage@Context2d@@SAXABV?$FunctionCallbackInfo@VValue@v8@@@Nan@@@Z 10013da0 f   CanvasRenderingContext2d.obj
 0001:00013740       ?GetGlobalAlpha@Context2d@@SAXV?$Local@VString@v8@@@v8@@ABV?$PropertyCallbackInfo@VValue@v8@@@Nan@@@Z 10014740 f   CanvasRenderingContext2d.obj
 0001:00013790       ?SetGlobalAlpha@Context2d@@SAXV?$Local@VString@v8@@@v8@@V?$Local@VValue@v8@@@3@ABV?$PropertyCallbackInfo@X@Nan@@@Z 10014790 f   CanvasRenderingContext2d.obj
 0001:00013870       ?GetGlobalCompositeOperation@Context2d@@SAXV?$Local@VString@v8@@@v8@@ABV?$PropertyCallbackInfo@VValue@v8@@@Nan@@@Z 10014870 f   CanvasRenderingContext2d.obj
 0001:00013a50       ?SetPatternQuality@Context2d@@SAXV?$Local@VString@v8@@@v8@@V?$Local@VValue@v8@@@3@ABV?$PropertyCallbackInfo@X@Nan@@@Z 10014a50 f   CanvasRenderingContext2d.obj
 0001:00013c90       ?GetPatternQuality@Context2d@@SAXV?$Local@VString@v8@@@v8@@ABV?$PropertyCallbackInfo@VValue@v8@@@Nan@@@Z 10014c90 f   CanvasRenderingContext2d.obj
 0001:00013d40       ?SetImageSmoothingEnabled@Context2d@@SAXV?$Local@VString@v8@@@v8@@V?$Local@VValue@v8@@@3@ABV?$PropertyCallbackInfo@X@Nan@@@Z 10014d40 f   CanvasRenderingContext2d.obj
 0001:00013df0       ?GetImageSmoothingEnabled@Context2d@@SAXV?$Local@VString@v8@@@v8@@ABV?$PropertyCallbackInfo@VValue@v8@@@Nan@@@Z 10014df0 f   CanvasRenderingContext2d.obj
 0001:00013e40       ?SetGlobalCompositeOperation@Context2d@@SAXV?$Local@VString@v8@@@v8@@V?$Local@VValue@v8@@@3@ABV?$PropertyCallbackInfo@X@Nan@@@Z 10014e40 f   CanvasRenderingContext2d.obj
 0001:000148b0       ??1?$_Tree@V?$_Tmap_traits@V?$basic_string@DU?$char_traits@D@std@@V?$allocator@D@2@@std@@W4_cairo_operator@@U?$less@V?$basic_string@DU?$char_traits@D@std@@V?$allocator@D@2@@std@@@2@V?$allocator@U?$pair@$$CBV?$basic_string@DU?$char_traits@D@std@@V?$allocator@D@2@@std@@W4_cairo_operator@@@std@@@2@$0A@@std@@@std@@QAE@XZ 100158b0 f i CanvasRenderingContext2d.obj
 0001:000148b0       ??1?$_Tree@V?$_Tmap_traits@V?$basic_string@DU?$char_traits@D@std@@V?$allocator@D@2@@std@@HU?$less@V?$basic_string@DU?$char_traits@D@std@@V?$allocator@D@2@@std@@@2@V?$allocator@U?$pair@$$CBV?$basic_string@DU?$char_traits@D@std@@V?$allocator@D@2@@std@@H@std@@@2@$0A@@std@@@std@@QAE@XZ 100158b0 f i CanvasRenderingContext2d.obj
 0001:000148b0       ??1?$map@V?$basic_string@DU?$char_traits@D@std@@V?$allocator@D@2@@std@@W4_cairo_operator@@U?$less@V?$basic_string@DU?$char_traits@D@std@@V?$allocator@D@2@@std@@@2@V?$allocator@U?$pair@$$CBV?$basic_string@DU?$char_traits@D@std@@V?$allocator@D@2@@std@@W4_cairo_operator@@@std@@@2@@std@@QAE@XZ 100158b0 f i CanvasRenderingContext2d.obj
 0001:000148b0       ??1?$map@V?$basic_string@DU?$char_traits@D@std@@V?$allocator@D@2@@std@@HU?$less@V?$basic_string@DU?$char_traits@D@std@@V?$allocator@D@2@@std@@@2@V?$allocator@U?$pair@$$CBV?$basic_string@DU?$char_traits@D@std@@V?$allocator@D@2@@std@@H@std@@@2@@std@@QAE@XZ 100158b0 f i CanvasRenderingContext2d.obj
 0001:000148e0       ?GetShadowOffsetX@Context2d@@SAXV?$Local@VString@v8@@@v8@@ABV?$PropertyCallbackInfo@VValue@v8@@@Nan@@@Z 100158e0 f   CanvasRenderingContext2d.obj
 0001:00014950       ?SetShadowOffsetX@Context2d@@SAXV?$Local@VString@v8@@@v8@@V?$Local@VValue@v8@@@3@ABV?$PropertyCallbackInfo@X@Nan@@@Z 10015950 f   CanvasRenderingContext2d.obj
 0001:00014a00       ?GetShadowOffsetY@Context2d@@SAXV?$Local@VString@v8@@@v8@@ABV?$PropertyCallbackInfo@VValue@v8@@@Nan@@@Z 10015a00 f   CanvasRenderingContext2d.obj
 0001:00014a70       ?SetShadowOffsetY@Context2d@@SAXV?$Local@VString@v8@@@v8@@V?$Local@VValue@v8@@@3@ABV?$PropertyCallbackInfo@X@Nan@@@Z 10015a70 f   CanvasRenderingContext2d.obj
 0001:00014b20       ?GetShadowBlur@Context2d@@SAXV?$Local@VString@v8@@@v8@@ABV?$PropertyCallbackInfo@VValue@v8@@@Nan@@@Z 10015b20 f   CanvasRenderingContext2d.obj
 0001:00014b70       ?SetShadowBlur@Context2d@@SAXV?$Local@VString@v8@@@v8@@V?$Local@VValue@v8@@@3@ABV?$PropertyCallbackInfo@X@Nan@@@Z 10015b70 f   CanvasRenderingContext2d.obj
 0001:00014c30       ?GetAntiAlias@Context2d@@SAXV?$Local@VString@v8@@@v8@@ABV?$PropertyCallbackInfo@VValue@v8@@@Nan@@@Z 10015c30 f   CanvasRenderingContext2d.obj
 0001:00014cc0       ?SetAntiAlias@Context2d@@SAXV?$Local@VString@v8@@@v8@@V?$Local@VValue@v8@@@3@ABV?$PropertyCallbackInfo@X@Nan@@@Z 10015cc0 f   CanvasRenderingContext2d.obj
 0001:00014eb0       ?GetTextDrawingMode@Context2d@@SAXV?$Local@VString@v8@@@v8@@ABV?$PropertyCallbackInfo@VValue@v8@@@Nan@@@Z 10015eb0 f   CanvasRenderingContext2d.obj
 0001:00014f30       ?SetTextDrawingMode@Context2d@@SAXV?$Local@VString@v8@@@v8@@V?$Local@VValue@v8@@@3@ABV?$PropertyCallbackInfo@X@Nan@@@Z 10015f30 f   CanvasRenderingContext2d.obj
 0001:000150c0       ?GetQuality@Context2d@@SAXV?$Local@VString@v8@@@v8@@ABV?$PropertyCallbackInfo@VValue@v8@@@Nan@@@Z 100160c0 f   CanvasRenderingContext2d.obj
 0001:00015170       ?SetQuality@Context2d@@SAXV?$Local@VString@v8@@@v8@@V?$Local@VValue@v8@@@3@ABV?$PropertyCallbackInfo@X@Nan@@@Z 10016170 f   CanvasRenderingContext2d.obj
 0001:00015370       ?GetCurrentTransform@Context2d@@SAXV?$Local@VString@v8@@@v8@@ABV?$PropertyCallbackInfo@VValue@v8@@@Nan@@@Z 10016370 f   CanvasRenderingContext2d.obj
 0001:00015570       ?SetCurrentTransform@Context2d@@SAXV?$Local@VString@v8@@@v8@@V?$Local@VValue@v8@@@3@ABV?$PropertyCallbackInfo@X@Nan@@@Z 10016570 f   CanvasRenderingContext2d.obj
 0001:00015bb0       ?GetFillStyle@Context2d@@SAXV?$Local@VString@v8@@@v8@@ABV?$PropertyCallbackInfo@VValue@v8@@@Nan@@@Z 10016bb0 f   CanvasRenderingContext2d.obj
 0001:00015c80       ?SetFillStyle@Context2d@@SAXV?$Local@VString@v8@@@v8@@V?$Local@VValue@v8@@@3@ABV?$PropertyCallbackInfo@X@Nan@@@Z 10016c80 f   CanvasRenderingContext2d.obj
 0001:00016030       ?GetStrokeStyle@Context2d@@SAXV?$Local@VString@v8@@@v8@@ABV?$PropertyCallbackInfo@VValue@v8@@@Nan@@@Z 10017030 f   CanvasRenderingContext2d.obj
 0001:00016110       ?SetStrokeStyle@Context2d@@SAXV?$Local@VString@v8@@@v8@@V?$Local@VValue@v8@@@3@ABV?$PropertyCallbackInfo@X@Nan@@@Z 10017110 f   CanvasRenderingContext2d.obj
 0001:000164d0       ?GetMiterLimit@Context2d@@SAXV?$Local@VString@v8@@@v8@@ABV?$PropertyCallbackInfo@VValue@v8@@@Nan@@@Z 100174d0 f   CanvasRenderingContext2d.obj
 0001:00016540       ?SetMiterLimit@Context2d@@SAXV?$Local@VString@v8@@@v8@@V?$Local@VValue@v8@@@3@ABV?$PropertyCallbackInfo@X@Nan@@@Z 10017540 f   CanvasRenderingContext2d.obj
 0001:00016600       ?GetLineWidth@Context2d@@SAXV?$Local@VString@v8@@@v8@@ABV?$PropertyCallbackInfo@VValue@v8@@@Nan@@@Z 10017600 f   CanvasRenderingContext2d.obj
 0001:00016670       ?SetLineWidth@Context2d@@SAXV?$Local@VString@v8@@@v8@@V?$Local@VValue@v8@@@3@ABV?$PropertyCallbackInfo@X@Nan@@@Z 10017670 f   CanvasRenderingContext2d.obj
 0001:00016740       ?GetLineJoin@Context2d@@SAXV?$Local@VString@v8@@@v8@@ABV?$PropertyCallbackInfo@VValue@v8@@@Nan@@@Z 10017740 f   CanvasRenderingContext2d.obj
 0001:000167c0       ?SetLineJoin@Context2d@@SAXV?$Local@VString@v8@@@v8@@V?$Local@VValue@v8@@@3@ABV?$PropertyCallbackInfo@X@Nan@@@Z 100177c0 f   CanvasRenderingContext2d.obj
 0001:00016940       ?GetLineCap@Context2d@@SAXV?$Local@VString@v8@@@v8@@ABV?$PropertyCallbackInfo@VValue@v8@@@Nan@@@Z 10017940 f   CanvasRenderingContext2d.obj
 0001:000169c0       ?SetLineCap@Context2d@@SAXV?$Local@VString@v8@@@v8@@V?$Local@VValue@v8@@@3@ABV?$PropertyCallbackInfo@X@Nan@@@Z 100179c0 f   CanvasRenderingContext2d.obj
 0001:00016b40       ?IsPointInPath@Context2d@@SAXABV?$FunctionCallbackInfo@VValue@v8@@@Nan@@@Z 10017b40 f   CanvasRenderingContext2d.obj
 0001:00016d80       ?SetShadowColor@Context2d@@SAXV?$Local@VString@v8@@@v8@@V?$Local@VValue@v8@@@3@ABV?$PropertyCallbackInfo@X@Nan@@@Z 10017d80 f   CanvasRenderingContext2d.obj
 0001:00016f40       ?GetShadowColor@Context2d@@SAXV?$Local@VString@v8@@@v8@@ABV?$PropertyCallbackInfo@VValue@v8@@@Nan@@@Z 10017f40 f   CanvasRenderingContext2d.obj
 0001:00016ff0       ?CreatePattern@Context2d@@SAXABV?$FunctionCallbackInfo@VValue@v8@@@Nan@@@Z 10017ff0 f   CanvasRenderingContext2d.obj
 0001:000171d0       ?CreateLinearGradient@Context2d@@SAXABV?$FunctionCallbackInfo@VValue@v8@@@Nan@@@Z 100181d0 f   CanvasRenderingContext2d.obj
 0001:00017370       ?CreateRadialGradient@Context2d@@SAXABV?$FunctionCallbackInfo@VValue@v8@@@Nan@@@Z 10018370 f   CanvasRenderingContext2d.obj
 0001:00017540       ?BezierCurveTo@Context2d@@SAXABV?$FunctionCallbackInfo@VValue@v8@@@Nan@@@Z 10018540 f   CanvasRenderingContext2d.obj
 0001:000175c0       ?QuadraticCurveTo@Context2d@@SAXABV?$FunctionCallbackInfo@VValue@v8@@@Nan@@@Z 100185c0 f   CanvasRenderingContext2d.obj
 0001:000176f0       ?Save@Context2d@@SAXABV?$FunctionCallbackInfo@VValue@v8@@@Nan@@@Z 100186f0 f   CanvasRenderingContext2d.obj
 0001:00017790       ?Restore@Context2d@@SAXABV?$FunctionCallbackInfo@VValue@v8@@@Nan@@@Z 10018790 f   CanvasRenderingContext2d.obj
 0001:00017820       ?BeginPath@Context2d@@SAXABV?$FunctionCallbackInfo@VValue@v8@@@Nan@@@Z 10018820 f   CanvasRenderingContext2d.obj
 0001:00017850       ?ClosePath@Context2d@@SAXABV?$FunctionCallbackInfo@VValue@v8@@@Nan@@@Z 10018850 f   CanvasRenderingContext2d.obj
 0001:00017880       ?Rotate@Context2d@@SAXABV?$FunctionCallbackInfo@VValue@v8@@@Nan@@@Z 10018880 f   CanvasRenderingContext2d.obj
 0001:000178e0       ?Transform@Context2d@@SAXABV?$FunctionCallbackInfo@VValue@v8@@@Nan@@@Z 100188e0 f   CanvasRenderingContext2d.obj
 0001:00017970       ?ResetTransform@Context2d@@SAXABV?$FunctionCallbackInfo@VValue@v8@@@Nan@@@Z 10018970 f   CanvasRenderingContext2d.obj
 0001:000179a0       ?SetTransform@Context2d@@SAXABV?$FunctionCallbackInfo@VValue@v8@@@Nan@@@Z 100189a0 f   CanvasRenderingContext2d.obj
 0001:000179d0       ?Translate@Context2d@@SAXABV?$FunctionCallbackInfo@VValue@v8@@@Nan@@@Z 100189d0 f   CanvasRenderingContext2d.obj
 0001:00017a30       ?Scale@Context2d@@SAXABV?$FunctionCallbackInfo@VValue@v8@@@Nan@@@Z 10018a30 f   CanvasRenderingContext2d.obj
 0001:00017a90       ?Clip@Context2d@@SAXABV?$FunctionCallbackInfo@VValue@v8@@@Nan@@@Z 10018a90 f   CanvasRenderingContext2d.obj
 0001:00017ae0       ?Fill@Context2d@@SAXABV?$FunctionCallbackInfo@VValue@v8@@@Nan@@@Z 10018ae0 f   CanvasRenderingContext2d.obj
 0001:00017b40       ?Stroke@Context2d@@SAXABV?$FunctionCallbackInfo@VValue@v8@@@Nan@@@Z 10018b40 f   CanvasRenderingContext2d.obj
 0001:00017b60       ?paintText@@YAXABV?$FunctionCallbackInfo@VValue@v8@@@Nan@@_N@Z 10018b60 f   CanvasRenderingContext2d.obj
 0001:00017e30       ?FillText@Context2d@@SAXABV?$FunctionCallbackInfo@VValue@v8@@@Nan@@@Z 10018e30 f   CanvasRenderingContext2d.obj
 0001:00017e40       ?StrokeText@Context2d@@SAXABV?$FunctionCallbackInfo@VValue@v8@@@Nan@@@Z 10018e40 f   CanvasRenderingContext2d.obj
 0001:00017e50       ?getBaselineAdjustment@@YANPAU_PangoLayout@@F@Z 10018e50 f i CanvasRenderingContext2d.obj
 0001:00017f30       ?setTextPath@Context2d@@QAEXNN@Z 10018f30 f   CanvasRenderingContext2d.obj
 0001:00018060       ?LineTo@Context2d@@SAXABV?$FunctionCallbackInfo@VValue@v8@@@Nan@@@Z 10019060 f   CanvasRenderingContext2d.obj
 0001:000180c0       ?MoveTo@Context2d@@SAXABV?$FunctionCallbackInfo@VValue@v8@@@Nan@@@Z 100190c0 f   CanvasRenderingContext2d.obj
 0001:00018120       ?GetFont@Context2d@@SAXV?$Local@VString@v8@@@v8@@ABV?$PropertyCallbackInfo@VValue@v8@@@Nan@@@Z 10019120 f   CanvasRenderingContext2d.obj
 0001:000181a0       ?SetFont@Context2d@@SAXV?$Local@VString@v8@@@v8@@V?$Local@VValue@v8@@@3@ABV?$PropertyCallbackInfo@X@Nan@@@Z 100191a0 f   CanvasRenderingContext2d.obj
 0001:000186d0       ?GetTextBaseline@Context2d@@SAXV?$Local@VString@v8@@@v8@@ABV?$PropertyCallbackInfo@VValue@v8@@@Nan@@@Z 100196d0 f   CanvasRenderingContext2d.obj
 0001:00018750       ?SetTextBaseline@Context2d@@SAXV?$Local@VString@v8@@@v8@@V?$Local@VValue@v8@@@3@ABV?$PropertyCallbackInfo@X@Nan@@@Z 10019750 f   CanvasRenderingContext2d.obj
 0001:00018ad0       ?GetTextAlign@Context2d@@SAXV?$Local@VString@v8@@@v8@@ABV?$PropertyCallbackInfo@VValue@v8@@@Nan@@@Z 10019ad0 f   CanvasRenderingContext2d.obj
 0001:00018b50       ?SetTextAlign@Context2d@@SAXV?$Local@VString@v8@@@v8@@V?$Local@VValue@v8@@@3@ABV?$PropertyCallbackInfo@X@Nan@@@Z 10019b50 f   CanvasRenderingContext2d.obj
 0001:00018e90       ?MeasureText@Context2d@@SAXABV?$FunctionCallbackInfo@VValue@v8@@@Nan@@@Z 10019e90 f   CanvasRenderingContext2d.obj
 0001:000194d0       ?SetLineDash@Context2d@@SAXABV?$FunctionCallbackInfo@VValue@v8@@@Nan@@@Z 1001a4d0 f   CanvasRenderingContext2d.obj
 0001:00019700       ?GetLineDash@Context2d@@SAXABV?$FunctionCallbackInfo@VValue@v8@@@Nan@@@Z 1001a700 f   CanvasRenderingContext2d.obj
 0001:00019830       ?SetLineDashOffset@Context2d@@SAXV?$Local@VString@v8@@@v8@@V?$Local@VValue@v8@@@3@ABV?$PropertyCallbackInfo@X@Nan@@@Z 1001a830 f   CanvasRenderingContext2d.obj
 0001:00019990       ?GetLineDashOffset@Context2d@@SAXV?$Local@VString@v8@@@v8@@ABV?$PropertyCallbackInfo@VValue@v8@@@Nan@@@Z 1001a990 f   CanvasRenderingContext2d.obj
 0001:00019a10       ?FillRect@Context2d@@SAXABV?$FunctionCallbackInfo@VValue@v8@@@Nan@@@Z 1001aa10 f   CanvasRenderingContext2d.obj
 0001:00019ad0       ?StrokeRect@Context2d@@SAXABV?$FunctionCallbackInfo@VValue@v8@@@Nan@@@Z 1001aad0 f   CanvasRenderingContext2d.obj
 0001:00019bc0       ?ClearRect@Context2d@@SAXABV?$FunctionCallbackInfo@VValue@v8@@@Nan@@@Z 1001abc0 f   CanvasRenderingContext2d.obj
 0001:00019ca0       ?Rect@Context2d@@SAXABV?$FunctionCallbackInfo@VValue@v8@@@Nan@@@Z 1001aca0 f   CanvasRenderingContext2d.obj
 0001:00019df0       ?Arc@Context2d@@SAXABV?$FunctionCallbackInfo@VValue@v8@@@Nan@@@Z 1001adf0 f   CanvasRenderingContext2d.obj
 0001:0001a530       ?ArcTo@Context2d@@SAXABV?$FunctionCallbackInfo@VValue@v8@@@Nan@@@Z 1001b530 f   CanvasRenderingContext2d.obj
 0001:0001ab10       ?Ellipse@Context2d@@SAXABV?$FunctionCallbackInfo@VValue@v8@@@Nan@@@Z 1001bb10 f   CanvasRenderingContext2d.obj
 0001:0001ad40       ??1?$vector@NV?$allocator@N@std@@@std@@QAE@XZ 1001bd40 f i CanvasRenderingContext2d.obj
 0001:0001ada0       ??0?$vector@NV?$allocator@N@std@@@std@@QAE@IABV?$allocator@N@1@@Z 1001bda0 f i CanvasRenderingContext2d.obj
 0001:0001ae40       ?find@?$_Tree@V?$_Tmap_traits@V?$basic_string@DU?$char_traits@D@std@@V?$allocator@D@2@@std@@HU?$less@V?$basic_string@DU?$char_traits@D@std@@V?$allocator@D@2@@std@@@2@V?$allocator@U?$pair@$$CBV?$basic_string@DU?$char_traits@D@std@@V?$allocator@D@2@@std@@H@std@@@2@$0A@@std@@@std@@QBE?AV?$_Tree_const_iterator@V?$_Tree_val@U?$_Tree_simple_types@U?$pair@$$CBV?$basic_string@DU?$char_traits@D@std@@V?$allocator@D@2@@std@@H@std@@@std@@@std@@@2@ABV?$basic_string@DU?$char_traits@D@std@@V?$allocator@D@2@@2@@Z 1001be40 f i CanvasRenderingContext2d.obj
 0001:0001afd0       ??0?$map@V?$basic_string@DU?$char_traits@D@std@@V?$allocator@D@2@@std@@HU?$less@V?$basic_string@DU?$char_traits@D@std@@V?$allocator@D@2@@std@@@2@V?$allocator@U?$pair@$$CBV?$basic_string@DU?$char_traits@D@std@@V?$allocator@D@2@@std@@H@std@@@2@@std@@QAE@V?$initializer_list@U?$pair@$$CBV?$basic_string@DU?$char_traits@D@std@@V?$allocator@D@2@@std@@H@std@@@1@@Z 1001bfd0 f i CanvasRenderingContext2d.obj
 0001:0001b0b0       ?erase@?$_Tree@V?$_Tmap_traits@V?$basic_string@DU?$char_traits@D@std@@V?$allocator@D@2@@std@@W4_cairo_operator@@U?$less@V?$basic_string@DU?$char_traits@D@std@@V?$allocator@D@2@@std@@@2@V?$allocator@U?$pair@$$CBV?$basic_string@DU?$char_traits@D@std@@V?$allocator@D@2@@std@@W4_cairo_operator@@@std@@@2@$0A@@std@@@std@@QAE?AV?$_Tree_iterator@V?$_Tree_val@U?$_Tree_simple_types@U?$pair@$$CBV?$basic_string@DU?$char_traits@D@std@@V?$allocator@D@2@@std@@W4_cairo_operator@@@std@@@std@@@std@@@2@V?$_Tree_const_iterator@V?$_Tree_val@U?$_Tree_simple_types@U?$pair@$$CBV?$basic_string@DU?$char_traits@D@std@@V?$allocator@D@2@@std@@W4_cairo_operator@@@std@@@std@@@std@@@2@0@Z 1001c0b0 f i CanvasRenderingContext2d.obj
 0001:0001b0b0       ?erase@?$_Tree@V?$_Tmap_traits@V?$basic_string@DU?$char_traits@D@std@@V?$allocator@D@2@@std@@HU?$less@V?$basic_string@DU?$char_traits@D@std@@V?$allocator@D@2@@std@@@2@V?$allocator@U?$pair@$$CBV?$basic_string@DU?$char_traits@D@std@@V?$allocator@D@2@@std@@H@std@@@2@$0A@@std@@@std@@QAE?AV?$_Tree_iterator@V?$_Tree_val@U?$_Tree_simple_types@U?$pair@$$CBV?$basic_string@DU?$char_traits@D@std@@V?$allocator@D@2@@std@@H@std@@@std@@@std@@@2@V?$_Tree_const_iterator@V?$_Tree_val@U?$_Tree_simple_types@U?$pair@$$CBV?$basic_string@DU?$char_traits@D@std@@V?$allocator@D@2@@std@@H@std@@@std@@@std@@@2@0@Z 1001c0b0 f i CanvasRenderingContext2d.obj
 0001:0001b240       ?_Extract@?$_Tree_val@U?$_Tree_simple_types@U?$pair@$$CBV?$basic_string@DU?$char_traits@D@std@@V?$allocator@D@2@@std@@I@std@@@std@@@std@@QAEPAU?$_Tree_node@U?$pair@$$CBV?$basic_string@DU?$char_traits@D@std@@V?$allocator@D@2@@std@@I@std@@PAX@2@V?$_Tree_const_iterator@V?$_Tree_val@U?$_Tree_simple_types@U?$pair@$$CBV?$basic_string@DU?$char_traits@D@std@@V?$allocator@D@2@@std@@I@std@@@std@@@std@@@2@@Z 1001c240 f i color.obj
 0001:0001b240       ?_Extract@?$_Tree_val@U?$_Tree_simple_types@U?$pair@$$CBV?$basic_string@DU?$char_traits@D@std@@V?$allocator@D@2@@std@@H@std@@@std@@@std@@QAEPAU?$_Tree_node@U?$pair@$$CBV?$basic_string@DU?$char_traits@D@std@@V?$allocator@D@2@@std@@H@std@@PAX@2@V?$_Tree_const_iterator@V?$_Tree_val@U?$_Tree_simple_types@U?$pair@$$CBV?$basic_string@DU?$char_traits@D@std@@V?$allocator@D@2@@std@@H@std@@@std@@@std@@@2@@Z 1001c240 f i CanvasRenderingContext2d.obj
 0001:0001b240       ?_Extract@?$_Tree_val@U?$_Tree_simple_types@U?$pair@$$CBV?$basic_string@DU?$char_traits@D@std@@V?$allocator@D@2@@std@@W4_cairo_operator@@@std@@@std@@@std@@QAEPAU?$_Tree_node@U?$pair@$$CBV?$basic_string@DU?$char_traits@D@std@@V?$allocator@D@2@@std@@W4_cairo_operator@@@std@@PAX@2@V?$_Tree_const_iterator@V?$_Tree_val@U?$_Tree_simple_types@U?$pair@$$CBV?$basic_string@DU?$char_traits@D@std@@V?$allocator@D@2@@std@@W4_cairo_operator@@@std@@@std@@@std@@@2@@Z 1001c240 f i CanvasRenderingContext2d.obj
 0001:0001b4d0       ?_Erase@?$_Tree@V?$_Tmap_traits@V?$basic_string@DU?$char_traits@D@std@@V?$allocator@D@2@@std@@HU?$less@V?$basic_string@DU?$char_traits@D@std@@V?$allocator@D@2@@std@@@2@V?$allocator@U?$pair@$$CBV?$basic_string@DU?$char_traits@D@std@@V?$allocator@D@2@@std@@H@std@@@2@$0A@@std@@@std@@IAEXPAU?$_Tree_node@U?$pair@$$CBV?$basic_string@DU?$char_traits@D@std@@V?$allocator@D@2@@std@@H@std@@PAX@2@@Z 1001c4d0 f i CanvasRenderingContext2d.obj
 0001:0001b4d0       ?_Erase@?$_Tree@V?$_Tmap_traits@V?$basic_string@DU?$char_traits@D@std@@V?$allocator@D@2@@std@@W4_cairo_operator@@U?$less@V?$basic_string@DU?$char_traits@D@std@@V?$allocator@D@2@@std@@@2@V?$allocator@U?$pair@$$CBV?$basic_string@DU?$char_traits@D@std@@V?$allocator@D@2@@std@@W4_cairo_operator@@@std@@@2@$0A@@std@@@std@@IAEXPAU?$_Tree_node@U?$pair@$$CBV?$basic_string@DU?$char_traits@D@std@@V?$allocator@D@2@@std@@W4_cairo_operator@@@std@@PAX@2@@Z 1001c4d0 f i CanvasRenderingContext2d.obj
 0001:0001b550       ?_Rrotate@?$_Tree_val@U?$_Tree_simple_types@U?$pair@$$CBV?$basic_string@DU?$char_traits@D@std@@V?$allocator@D@2@@std@@W4_cairo_operator@@@std@@@std@@@std@@QAEXPAU?$_Tree_node@U?$pair@$$CBV?$basic_string@DU?$char_traits@D@std@@V?$allocator@D@2@@std@@W4_cairo_operator@@@std@@PAX@2@@Z 1001c550 f i CanvasRenderingContext2d.obj
 0001:0001b550       ?_Rrotate@?$_Tree_val@U?$_Tree_simple_types@U?$pair@$$CBV?$basic_string@DU?$char_traits@D@std@@V?$allocator@D@2@@std@@I@std@@@std@@@std@@QAEXPAU?$_Tree_node@U?$pair@$$CBV?$basic_string@DU?$char_traits@D@std@@V?$allocator@D@2@@std@@I@std@@PAX@2@@Z 1001c550 f i color.obj
 0001:0001b550       ?_Rrotate@?$_Tree_val@U?$_Tree_simple_types@U?$pair@$$CBV?$basic_string@DU?$char_traits@D@std@@V?$allocator@D@2@@std@@H@std@@@std@@@std@@QAEXPAU?$_Tree_node@U?$pair@$$CBV?$basic_string@DU?$char_traits@D@std@@V?$allocator@D@2@@std@@H@std@@PAX@2@@Z 1001c550 f i CanvasRenderingContext2d.obj
 0001:0001b5b0       ?_Lrotate@?$_Tree_val@U?$_Tree_simple_types@U?$pair@$$CBV?$basic_string@DU?$char_traits@D@std@@V?$allocator@D@2@@std@@H@std@@@std@@@std@@QAEXPAU?$_Tree_node@U?$pair@$$CBV?$basic_string@DU?$char_traits@D@std@@V?$allocator@D@2@@std@@H@std@@PAX@2@@Z 1001c5b0 f i CanvasRenderingContext2d.obj
 0001:0001b5b0       ?_Lrotate@?$_Tree_val@U?$_Tree_simple_types@U?$pair@$$CBV?$basic_string@DU?$char_traits@D@std@@V?$allocator@D@2@@std@@W4_cairo_operator@@@std@@@std@@@std@@QAEXPAU?$_Tree_node@U?$pair@$$CBV?$basic_string@DU?$char_traits@D@std@@V?$allocator@D@2@@std@@W4_cairo_operator@@@std@@PAX@2@@Z 1001c5b0 f i CanvasRenderingContext2d.obj
 0001:0001b5b0       ?_Lrotate@?$_Tree_val@U?$_Tree_simple_types@U?$pair@$$CBV?$basic_string@DU?$char_traits@D@std@@V?$allocator@D@2@@std@@I@std@@@std@@@std@@QAEXPAU?$_Tree_node@U?$pair@$$CBV?$basic_string@DU?$char_traits@D@std@@V?$allocator@D@2@@std@@I@std@@PAX@2@@Z 1001c5b0 f i color.obj
 0001:0001b600       ??$Reset@VValue@v8@@@?$Persistent@VValue@v8@@V?$NonCopyablePersistentTraits@VValue@v8@@@2@@Nan@@QAEXABV?$Local@VValue@v8@@@v8@@@Z 1001c600 f i CanvasRenderingContext2d.obj
 0001:0001b640       ??$_Insert_hint@AAU?$pair@$$CBV?$basic_string@DU?$char_traits@D@std@@V?$allocator@D@2@@std@@W4_cairo_operator@@@std@@PAU?$_Tree_node@U?$pair@$$CBV?$basic_string@DU?$char_traits@D@std@@V?$allocator@D@2@@std@@W4_cairo_operator@@@std@@PAX@2@@?$_Tree@V?$_Tmap_traits@V?$basic_string@DU?$char_traits@D@std@@V?$allocator@D@2@@std@@W4_cairo_operator@@U?$less@V?$basic_string@DU?$char_traits@D@std@@V?$allocator@D@2@@std@@@2@V?$allocator@U?$pair@$$CBV?$basic_string@DU?$char_traits@D@std@@V?$allocator@D@2@@std@@W4_cairo_operator@@@std@@@2@$0A@@std@@@std@@IAE?AV?$_Tree_iterator@V?$_Tree_val@U?$_Tree_simple_types@U?$pair@$$CBV?$basic_string@DU?$char_traits@D@std@@V?$allocator@D@2@@std@@W4_cairo_operator@@@std@@@std@@@std@@@1@V?$_Tree_const_iterator@V?$_Tree_val@U?$_Tree_simple_types@U?$pair@$$CBV?$basic_string@DU?$char_traits@D@std@@V?$allocator@D@2@@std@@W4_cairo_operator@@@std@@@std@@@std@@@1@AAU?$pair@$$CBV?$basic_string@DU?$char_traits@D@std@@V?$allocator@D@2@@std@@W4_cairo_operator@@@1@PAU?$_Tree_node@U?$pair@$$CBV?$basic_string@DU?$char_traits@D@std@@V?$allocator@D@2@@std@@W4_cairo_operator@@@std@@PAX@1@@Z 1001c640 f i CanvasRenderingContext2d.obj
 0001:0001b640       ??$_Insert_hint@AAU?$pair@$$CBV?$basic_string@DU?$char_traits@D@std@@V?$allocator@D@2@@std@@H@std@@PAU?$_Tree_node@U?$pair@$$CBV?$basic_string@DU?$char_traits@D@std@@V?$allocator@D@2@@std@@H@std@@PAX@2@@?$_Tree@V?$_Tmap_traits@V?$basic_string@DU?$char_traits@D@std@@V?$allocator@D@2@@std@@HU?$less@V?$basic_string@DU?$char_traits@D@std@@V?$allocator@D@2@@std@@@2@V?$allocator@U?$pair@$$CBV?$basic_string@DU?$char_traits@D@std@@V?$allocator@D@2@@std@@H@std@@@2@$0A@@std@@@std@@IAE?AV?$_Tree_iterator@V?$_Tree_val@U?$_Tree_simple_types@U?$pair@$$CBV?$basic_string@DU?$char_traits@D@std@@V?$allocator@D@2@@std@@H@std@@@std@@@std@@@1@V?$_Tree_const_iterator@V?$_Tree_val@U?$_Tree_simple_types@U?$pair@$$CBV?$basic_string@DU?$char_traits@D@std@@V?$allocator@D@2@@std@@H@std@@@std@@@std@@@1@AAU?$pair@$$CBV?$basic_string@DU?$char_traits@D@std@@V?$allocator@D@2@@std@@H@1@PAU?$_Tree_node@U?$pair@$$CBV?$basic_string@DU?$char_traits@D@std@@V?$allocator@D@2@@std@@H@std@@PAX@1@@Z 1001c640 f i CanvasRenderingContext2d.obj
 0001:0001bb40       ?_Destroy_if_node@?$_Tree@V?$_Tmap_traits@V?$basic_string@DU?$char_traits@D@std@@V?$allocator@D@2@@std@@HU?$less@V?$basic_string@DU?$char_traits@D@std@@V?$allocator@D@2@@std@@@2@V?$allocator@U?$pair@$$CBV?$basic_string@DU?$char_traits@D@std@@V?$allocator@D@2@@std@@H@std@@@2@$0A@@std@@@std@@IAEXPAU?$_Tree_node@U?$pair@$$CBV?$basic_string@DU?$char_traits@D@std@@V?$allocator@D@2@@std@@H@std@@PAX@2@@Z 1001cb40 f i CanvasRenderingContext2d.obj
 0001:0001bb40       ?_Destroy_if_node@?$_Tree@V?$_Tmap_traits@V?$basic_string@DU?$char_traits@D@std@@V?$allocator@D@2@@std@@W4_cairo_operator@@U?$less@V?$basic_string@DU?$char_traits@D@std@@V?$allocator@D@2@@std@@@2@V?$allocator@U?$pair@$$CBV?$basic_string@DU?$char_traits@D@std@@V?$allocator@D@2@@std@@W4_cairo_operator@@@std@@@2@$0A@@std@@@std@@IAEXPAU?$_Tree_node@U?$pair@$$CBV?$basic_string@DU?$char_traits@D@std@@V?$allocator@D@2@@std@@W4_cairo_operator@@@std@@PAX@2@@Z 1001cb40 f i CanvasRenderingContext2d.obj
 0001:0001bb40       ?_Destroy_if_node@?$_Tree@V?$_Tmap_traits@V?$basic_string@DU?$char_traits@D@std@@V?$allocator@D@2@@std@@IU?$less@V?$basic_string@DU?$char_traits@D@std@@V?$allocator@D@2@@std@@@2@V?$allocator@U?$pair@$$CBV?$basic_string@DU?$char_traits@D@std@@V?$allocator@D@2@@std@@I@std@@@2@$0A@@std@@@std@@IAEXPAU?$_Tree_node@U?$pair@$$CBV?$basic_string@DU?$char_traits@D@std@@V?$allocator@D@2@@std@@I@std@@PAX@2@@Z 1001cb40 f i color.obj
 0001:0001bba0       ??$_Insert_at@AAU?$pair@$$CBV?$basic_string@DU?$char_traits@D@std@@V?$allocator@D@2@@std@@W4_cairo_operator@@@std@@PAU?$_Tree_node@U?$pair@$$CBV?$basic_string@DU?$char_traits@D@std@@V?$allocator@D@2@@std@@W4_cairo_operator@@@std@@PAX@2@@?$_Tree@V?$_Tmap_traits@V?$basic_string@DU?$char_traits@D@std@@V?$allocator@D@2@@std@@W4_cairo_operator@@U?$less@V?$basic_string@DU?$char_traits@D@std@@V?$allocator@D@2@@std@@@2@V?$allocator@U?$pair@$$CBV?$basic_string@DU?$char_traits@D@std@@V?$allocator@D@2@@std@@W4_cairo_operator@@@std@@@2@$0A@@std@@@std@@IAE?AV?$_Tree_iterator@V?$_Tree_val@U?$_Tree_simple_types@U?$pair@$$CBV?$basic_string@DU?$char_traits@D@std@@V?$allocator@D@2@@std@@W4_cairo_operator@@@std@@@std@@@std@@@1@_NPAU?$_Tree_node@U?$pair@$$CBV?$basic_string@DU?$char_traits@D@std@@V?$allocator@D@2@@std@@W4_cairo_operator@@@std@@PAX@1@AAU?$pair@$$CBV?$basic_string@DU?$char_traits@D@std@@V?$allocator@D@2@@std@@W4_cairo_operator@@@1@1@Z 1001cba0 f i CanvasRenderingContext2d.obj
 0001:0001bba0       ??$_Insert_at@AAU?$pair@$$CBV?$basic_string@DU?$char_traits@D@std@@V?$allocator@D@2@@std@@H@std@@PAU?$_Tree_node@U?$pair@$$CBV?$basic_string@DU?$char_traits@D@std@@V?$allocator@D@2@@std@@H@std@@PAX@2@@?$_Tree@V?$_Tmap_traits@V?$basic_string@DU?$char_traits@D@std@@V?$allocator@D@2@@std@@HU?$less@V?$basic_string@DU?$char_traits@D@std@@V?$allocator@D@2@@std@@@2@V?$allocator@U?$pair@$$CBV?$basic_string@DU?$char_traits@D@std@@V?$allocator@D@2@@std@@H@std@@@2@$0A@@std@@@std@@IAE?AV?$_Tree_iterator@V?$_Tree_val@U?$_Tree_simple_types@U?$pair@$$CBV?$basic_string@DU?$char_traits@D@std@@V?$allocator@D@2@@std@@H@std@@@std@@@std@@@1@_NPAU?$_Tree_node@U?$pair@$$CBV?$basic_string@DU?$char_traits@D@std@@V?$allocator@D@2@@std@@H@std@@PAX@1@AAU?$pair@$$CBV?$basic_string@DU?$char_traits@D@std@@V?$allocator@D@2@@std@@H@1@1@Z 1001cba0 f i CanvasRenderingContext2d.obj
 0001:0001bd40       ??$_Insert_nohint@AAU?$pair@$$CBV?$basic_string@DU?$char_traits@D@std@@V?$allocator@D@2@@std@@W4_cairo_operator@@@std@@PAU?$_Tree_node@U?$pair@$$CBV?$basic_string@DU?$char_traits@D@std@@V?$allocator@D@2@@std@@W4_cairo_operator@@@std@@PAX@2@@?$_Tree@V?$_Tmap_traits@V?$basic_string@DU?$char_traits@D@std@@V?$allocator@D@2@@std@@W4_cairo_operator@@U?$less@V?$basic_string@DU?$char_traits@D@std@@V?$allocator@D@2@@std@@@2@V?$allocator@U?$pair@$$CBV?$basic_string@DU?$char_traits@D@std@@V?$allocator@D@2@@std@@W4_cairo_operator@@@std@@@2@$0A@@std@@@std@@IAE?AU?$pair@V?$_Tree_iterator@V?$_Tree_val@U?$_Tree_simple_types@U?$pair@$$CBV?$basic_string@DU?$char_traits@D@std@@V?$allocator@D@2@@std@@W4_cairo_operator@@@std@@@std@@@std@@@std@@_N@1@_NAAU?$pair@$$CBV?$basic_string@DU?$char_traits@D@std@@V?$allocator@D@2@@std@@W4_cairo_operator@@@1@PAU?$_Tree_node@U?$pair@$$CBV?$basic_string@DU?$char_traits@D@std@@V?$allocator@D@2@@std@@W4_cairo_operator@@@std@@PAX@1@@Z 1001cd40 f i CanvasRenderingContext2d.obj
 0001:0001bd40       ??$_Insert_nohint@AAU?$pair@$$CBV?$basic_string@DU?$char_traits@D@std@@V?$allocator@D@2@@std@@H@std@@PAU?$_Tree_node@U?$pair@$$CBV?$basic_string@DU?$char_traits@D@std@@V?$allocator@D@2@@std@@H@std@@PAX@2@@?$_Tree@V?$_Tmap_traits@V?$basic_string@DU?$char_traits@D@std@@V?$allocator@D@2@@std@@HU?$less@V?$basic_string@DU?$char_traits@D@std@@V?$allocator@D@2@@std@@@2@V?$allocator@U?$pair@$$CBV?$basic_string@DU?$char_traits@D@std@@V?$allocator@D@2@@std@@H@std@@@2@$0A@@std@@@std@@IAE?AU?$pair@V?$_Tree_iterator@V?$_Tree_val@U?$_Tree_simple_types@U?$pair@$$CBV?$basic_string@DU?$char_traits@D@std@@V?$allocator@D@2@@std@@H@std@@@std@@@std@@@std@@_N@1@_NAAU?$pair@$$CBV?$basic_string@DU?$char_traits@D@std@@V?$allocator@D@2@@std@@H@1@PAU?$_Tree_node@U?$pair@$$CBV?$basic_string@DU?$char_traits@D@std@@V?$allocator@D@2@@std@@H@std@@PAX@1@@Z 1001cd40 f i CanvasRenderingContext2d.obj
 0001:0001bfa0       ?init_destination@JpegClosure@@SAXPAUjpeg_compress_struct@@@Z 1001cfa0 f   closure.obj
 0001:0001bfd0       ?empty_output_buffer@JpegClosure@@SAEPAUjpeg_compress_struct@@@Z 1001cfd0 f   closure.obj
 0001:0001c030       ?term_destination@JpegClosure@@SAXPAUjpeg_compress_struct@@@Z 1001d030 f   closure.obj
 0001:0001c050       ?resize@?$vector@EV?$allocator@E@std@@@std@@QAEXI@Z 1001d050 f i closure.obj
 0001:0001c160       ___local_stdio_printf_options 1001d160 f i color.obj
 0001:0001c170       _snprintf                  1001d170 f i color.obj
 0001:0001c280       ?rgba_create@@YA?AUrgba_t@@I@Z 1001d280 f   color.obj
 0001:0001c320       ?rgba_to_string@@YAXUrgba_t@@PADI@Z 1001d320 f   color.obj
 0001:0001d0e0       ?rgba_from_string@@YAHPBDPAF@Z 1001e0e0 f   color.obj
 0001:0001d2b0       ??1?$_Tree@V?$_Tmap_traits@V?$basic_string@DU?$char_traits@D@std@@V?$allocator@D@2@@std@@IU?$less@V?$basic_string@DU?$char_traits@D@std@@V?$allocator@D@2@@std@@@2@V?$allocator@U?$pair@$$CBV?$basic_string@DU?$char_traits@D@std@@V?$allocator@D@2@@std@@I@std@@@2@$0A@@std@@@std@@QAE@XZ 1001e2b0 f i color.obj
 0001:0001d2e0       ??0?$map@V?$basic_string@DU?$char_traits@D@std@@V?$allocator@D@2@@std@@IU?$less@V?$basic_string@DU?$char_traits@D@std@@V?$allocator@D@2@@std@@@2@V?$allocator@U?$pair@$$CBV?$basic_string@DU?$char_traits@D@std@@V?$allocator@D@2@@std@@I@std@@@2@@std@@QAE@V?$initializer_list@U?$pair@$$CBV?$basic_string@DU?$char_traits@D@std@@V?$allocator@D@2@@std@@I@std@@@1@@Z 1001e2e0 f i color.obj
 0001:0001d3d0       ?erase@?$_Tree@V?$_Tmap_traits@V?$basic_string@DU?$char_traits@D@std@@V?$allocator@D@2@@std@@IU?$less@V?$basic_string@DU?$char_traits@D@std@@V?$allocator@D@2@@std@@@2@V?$allocator@U?$pair@$$CBV?$basic_string@DU?$char_traits@D@std@@V?$allocator@D@2@@std@@I@std@@@2@$0A@@std@@@std@@QAE?AV?$_Tree_iterator@V?$_Tree_val@U?$_Tree_simple_types@U?$pair@$$CBV?$basic_string@DU?$char_traits@D@std@@V?$allocator@D@2@@std@@I@std@@@std@@@std@@@2@V?$_Tree_const_iterator@V?$_Tree_val@U?$_Tree_simple_types@U?$pair@$$CBV?$basic_string@DU?$char_traits@D@std@@V?$allocator@D@2@@std@@I@std@@@std@@@std@@@2@0@Z 1001e3d0 f i color.obj
 0001:0001d570       ?_Erase@?$_Tree@V?$_Tmap_traits@V?$basic_string@DU?$char_traits@D@std@@V?$allocator@D@2@@std@@IU?$less@V?$basic_string@DU?$char_traits@D@std@@V?$allocator@D@2@@std@@@2@V?$allocator@U?$pair@$$CBV?$basic_string@DU?$char_traits@D@std@@V?$allocator@D@2@@std@@I@std@@@2@$0A@@std@@@std@@IAEXPAU?$_Tree_node@U?$pair@$$CBV?$basic_string@DU?$char_traits@D@std@@V?$allocator@D@2@@std@@I@std@@PAX@2@@Z 1001e570 f i color.obj
 0001:0001d7c0       ??$?0AAY0M@$$CBDI$0A@@?$pair@$$CBV?$basic_string@DU?$char_traits@D@std@@V?$allocator@D@2@@std@@I@std@@QAE@AAY0M@$$CBD$$QAI@Z 1001e7c0 f i color.obj
 0001:0001d7c0       ??$?0AAY06$$CBDI$0A@@?$pair@$$CBV?$basic_string@DU?$char_traits@D@std@@V?$allocator@D@2@@std@@I@std@@QAE@AAY06$$CBD$$QAI@Z 1001e7c0 f i color.obj
 0001:0001d7c0       ??$?0AAY0M@$$CBDH$0A@@?$pair@$$CBV?$basic_string@DU?$char_traits@D@std@@V?$allocator@D@2@@std@@I@std@@QAE@AAY0M@$$CBD$$QAH@Z 1001e7c0 f i color.obj
 0001:0001d7c0       ??$?0AAY07$$CBDI$0A@@?$pair@$$CBV?$basic_string@DU?$char_traits@D@std@@V?$allocator@D@2@@std@@I@std@@QAE@AAY07$$CBD$$QAI@Z 1001e7c0 f i color.obj
 0001:0001d7c0       ??$?0AAY0P@$$CBDH$0A@@?$pair@$$CBV?$basic_string@DU?$char_traits@D@std@@V?$allocator@D@2@@std@@I@std@@QAE@AAY0P@$$CBD$$QAH@Z 1001e7c0 f i color.obj
 0001:0001d7c0       ??$?0AAY0BA@$$CBDH$0A@@?$pair@$$CBV?$basic_string@DU?$char_traits@D@std@@V?$allocator@D@2@@std@@I@std@@QAE@AAY0BA@$$CBD$$QAH@Z 1001e7c0 f i color.obj
 0001:0001d7c0       ??$?0AAY0O@$$CBDH$0A@@?$pair@$$CBV?$basic_string@DU?$char_traits@D@std@@V?$allocator@D@2@@std@@I@std@@QAE@AAY0O@$$CBD$$QAH@Z 1001e7c0 f i color.obj
 0001:0001d7c0       ??$?0AAY0L@$$CBDH$0A@@?$pair@$$CBV?$basic_string@DU?$char_traits@D@std@@V?$allocator@D@2@@std@@I@std@@QAE@AAY0L@$$CBD$$QAH@Z 1001e7c0 f i color.obj
 0001:0001d7c0       ??$?0AAY08$$CBDH$0A@@?$pair@$$CBV?$basic_string@DU?$char_traits@D@std@@V?$allocator@D@2@@std@@I@std@@QAE@AAY08$$CBD$$QAH@Z 1001e7c0 f i color.obj
 0001:0001d7c0       ??$?0AAY05$$CBDI$0A@@?$pair@$$CBV?$basic_string@DU?$char_traits@D@std@@V?$allocator@D@2@@std@@I@std@@QAE@AAY05$$CBD$$QAI@Z 1001e7c0 f i color.obj
 0001:0001d7c0       ??$?0AAY09$$CBDH$0A@@?$pair@$$CBV?$basic_string@DU?$char_traits@D@std@@V?$allocator@D@2@@std@@I@std@@QAE@AAY09$$CBD$$QAH@Z 1001e7c0 f i color.obj
 0001:0001d7c0       ??$?0AAY0O@$$CBDI$0A@@?$pair@$$CBV?$basic_string@DU?$char_traits@D@std@@V?$allocator@D@2@@std@@I@std@@QAE@AAY0O@$$CBD$$QAI@Z 1001e7c0 f i color.obj
 0001:0001d7c0       ??$?0AAY04$$CBDH$0A@@?$pair@$$CBV?$basic_string@DU?$char_traits@D@std@@V?$allocator@D@2@@std@@I@std@@QAE@AAY04$$CBD$$QAH@Z 1001e7c0 f i color.obj
 0001:0001d7c0       ??$?0AAY0L@$$CBDI$0A@@?$pair@$$CBV?$basic_string@DU?$char_traits@D@std@@V?$allocator@D@2@@std@@I@std@@QAE@AAY0L@$$CBD$$QAI@Z 1001e7c0 f i color.obj
 0001:0001d7c0       ??$?0AAY08$$CBDI$0A@@?$pair@$$CBV?$basic_string@DU?$char_traits@D@std@@V?$allocator@D@2@@std@@I@std@@QAE@AAY08$$CBD$$QAI@Z 1001e7c0 f i color.obj
 0001:0001d7c0       ??$?0AAY03$$CBDI$0A@@?$pair@$$CBV?$basic_string@DU?$char_traits@D@std@@V?$allocator@D@2@@std@@I@std@@QAE@AAY03$$CBD$$QAI@Z 1001e7c0 f i color.obj
 0001:0001d7c0       ??$?0AAY0N@$$CBDI$0A@@?$pair@$$CBV?$basic_string@DU?$char_traits@D@std@@V?$allocator@D@2@@std@@I@std@@QAE@AAY0N@$$CBD$$QAI@Z 1001e7c0 f i color.obj
 0001:0001d7c0       ??$?0AAY04$$CBDI$0A@@?$pair@$$CBV?$basic_string@DU?$char_traits@D@std@@V?$allocator@D@2@@std@@I@std@@QAE@AAY04$$CBD$$QAI@Z 1001e7c0 f i color.obj
 0001:0001d7c0       ??$?0AAY09$$CBDI$0A@@?$pair@$$CBV?$basic_string@DU?$char_traits@D@std@@V?$allocator@D@2@@std@@I@std@@QAE@AAY09$$CBD$$QAI@Z 1001e7c0 f i color.obj
 0001:0001d830       ??$?0AAY0BB@$$CBDH$0A@@?$pair@$$CBV?$basic_string@DU?$char_traits@D@std@@V?$allocator@D@2@@std@@I@std@@QAE@AAY0BB@$$CBD$$QAH@Z 1001e830 f i color.obj
 0001:0001d890       ??$?0AAY0BC@$$CBDH$0A@@?$pair@$$CBV?$basic_string@DU?$char_traits@D@std@@V?$allocator@D@2@@std@@I@std@@QAE@AAY0BC@$$CBD$$QAH@Z 1001e890 f i color.obj
 0001:0001d8f0       ??$?0AAY0BA@$$CBDI$0A@@?$pair@$$CBV?$basic_string@DU?$char_traits@D@std@@V?$allocator@D@2@@std@@I@std@@QAE@AAY0BA@$$CBD$$QAI@Z 1001e8f0 f i color.obj
 0001:0001d950       ??$?0AAY0N@$$CBDH$0A@@?$pair@$$CBV?$basic_string@DU?$char_traits@D@std@@V?$allocator@D@2@@std@@I@std@@QAE@AAY0N@$$CBD$$QAH@Z 1001e950 f i color.obj
 0001:0001d9b0       ??$_Insert_hint@AAU?$pair@$$CBV?$basic_string@DU?$char_traits@D@std@@V?$allocator@D@2@@std@@I@std@@PAU?$_Tree_node@U?$pair@$$CBV?$basic_string@DU?$char_traits@D@std@@V?$allocator@D@2@@std@@I@std@@PAX@2@@?$_Tree@V?$_Tmap_traits@V?$basic_string@DU?$char_traits@D@std@@V?$allocator@D@2@@std@@IU?$less@V?$basic_string@DU?$char_traits@D@std@@V?$allocator@D@2@@std@@@2@V?$allocator@U?$pair@$$CBV?$basic_string@DU?$char_traits@D@std@@V?$allocator@D@2@@std@@I@std@@@2@$0A@@std@@@std@@IAE?AV?$_Tree_iterator@V?$_Tree_val@U?$_Tree_simple_types@U?$pair@$$CBV?$basic_string@DU?$char_traits@D@std@@V?$allocator@D@2@@std@@I@std@@@std@@@std@@@1@V?$_Tree_const_iterator@V?$_Tree_val@U?$_Tree_simple_types@U?$pair@$$CBV?$basic_string@DU?$char_traits@D@std@@V?$allocator@D@2@@std@@I@std@@@std@@@std@@@1@AAU?$pair@$$CBV?$basic_string@DU?$char_traits@D@std@@V?$allocator@D@2@@std@@I@1@PAU?$_Tree_node@U?$pair@$$CBV?$basic_string@DU?$char_traits@D@std@@V?$allocator@D@2@@std@@I@std@@PAX@1@@Z 1001e9b0 f i color.obj
 0001:0001deb0       ??$_Insert_at@AAU?$pair@$$CBV?$basic_string@DU?$char_traits@D@std@@V?$allocator@D@2@@std@@I@std@@PAU?$_Tree_node@U?$pair@$$CBV?$basic_string@DU?$char_traits@D@std@@V?$allocator@D@2@@std@@I@std@@PAX@2@@?$_Tree@V?$_Tmap_traits@V?$basic_string@DU?$char_traits@D@std@@V?$allocator@D@2@@std@@IU?$less@V?$basic_string@DU?$char_traits@D@std@@V?$allocator@D@2@@std@@@2@V?$allocator@U?$pair@$$CBV?$basic_string@DU?$char_traits@D@std@@V?$allocator@D@2@@std@@I@std@@@2@$0A@@std@@@std@@IAE?AV?$_Tree_iterator@V?$_Tree_val@U?$_Tree_simple_types@U?$pair@$$CBV?$basic_string@DU?$char_traits@D@std@@V?$allocator@D@2@@std@@I@std@@@std@@@std@@@1@_NPAU?$_Tree_node@U?$pair@$$CBV?$basic_string@DU?$char_traits@D@std@@V?$allocator@D@2@@std@@I@std@@PAX@1@AAU?$pair@$$CBV?$basic_string@DU?$char_traits@D@std@@V?$allocator@D@2@@std@@I@1@1@Z 1001eeb0 f i color.obj
 0001:0001e070       ??$_Insert_nohint@AAU?$pair@$$CBV?$basic_string@DU?$char_traits@D@std@@V?$allocator@D@2@@std@@I@std@@PAU?$_Tree_node@U?$pair@$$CBV?$basic_string@DU?$char_traits@D@std@@V?$allocator@D@2@@std@@I@std@@PAX@2@@?$_Tree@V?$_Tmap_traits@V?$basic_string@DU?$char_traits@D@std@@V?$allocator@D@2@@std@@IU?$less@V?$basic_string@DU?$char_traits@D@std@@V?$allocator@D@2@@std@@@2@V?$allocator@U?$pair@$$CBV?$basic_string@DU?$char_traits@D@std@@V?$allocator@D@2@@std@@I@std@@@2@$0A@@std@@@std@@IAE?AU?$pair@V?$_Tree_iterator@V?$_Tree_val@U?$_Tree_simple_types@U?$pair@$$CBV?$basic_string@DU?$char_traits@D@std@@V?$allocator@D@2@@std@@I@std@@@std@@@std@@@std@@_N@1@_NAAU?$pair@$$CBV?$basic_string@DU?$char_traits@D@std@@V?$allocator@D@2@@std@@I@1@PAU?$_Tree_node@U?$pair@$$CBV?$basic_string@DU?$char_traits@D@std@@V?$allocator@D@2@@std@@I@std@@PAX@1@@Z 1001f070 f i color.obj
 0001:0001e2c0       ?Export@Nan@@YAXV?$Local@VObject@v8@@@v8@@PBDP6AXABV?$FunctionCallbackInfo@VValue@v8@@@1@@Z@Z 1001f2c0 f i Image.obj
 0001:0001e3f0       ?Initialize@Image@@SAXV?$Local@VObject@v8@@@v8@@@Z 1001f3f0 f   Image.obj
 0001:0001e860       ?New@Image@@SAXABV?$FunctionCallbackInfo@VValue@v8@@@Nan@@@Z 1001f860 f   Image.obj
 0001:0001ea10       ?GetComplete@Image@@SAXV?$Local@VString@v8@@@v8@@ABV?$PropertyCallbackInfo@VValue@v8@@@Nan@@@Z 1001fa10 f   Image.obj
 0001:0001ea60       ?GetDataMode@Image@@SAXV?$Local@VString@v8@@@v8@@ABV?$PropertyCallbackInfo@VValue@v8@@@Nan@@@Z 1001fa60 f   Image.obj
 0001:0001eab0       ?SetDataMode@Image@@SAXV?$Local@VString@v8@@@v8@@V?$Local@VValue@v8@@@3@ABV?$PropertyCallbackInfo@X@Nan@@@Z 1001fab0 f   Image.obj
 0001:0001eb60       ?GetNaturalWidth@Image@@SAXV?$Local@VString@v8@@@v8@@ABV?$PropertyCallbackInfo@VValue@v8@@@Nan@@@Z 1001fb60 f   Image.obj
 0001:0001ebb0       ?GetWidth@Image@@SAXV?$Local@VString@v8@@@v8@@ABV?$PropertyCallbackInfo@VValue@v8@@@Nan@@@Z 1001fbb0 f   Image.obj
 0001:0001ebb0       ?GetHeight@ImageData@@SAXV?$Local@VString@v8@@@v8@@ABV?$PropertyCallbackInfo@VValue@v8@@@Nan@@@Z 1001fbb0 f   ImageData.obj
 0001:0001ec00       ?SetWidth@Image@@SAXV?$Local@VString@v8@@@v8@@V?$Local@VValue@v8@@@3@ABV?$PropertyCallbackInfo@X@Nan@@@Z 1001fc00 f   Image.obj
 0001:0001ecb0       ?GetNaturalHeight@Image@@SAXV?$Local@VString@v8@@@v8@@ABV?$PropertyCallbackInfo@VValue@v8@@@Nan@@@Z 1001fcb0 f   Image.obj
 0001:0001ed00       ?GetHeight@Image@@SAXV?$Local@VString@v8@@@v8@@ABV?$PropertyCallbackInfo@VValue@v8@@@Nan@@@Z 1001fd00 f   Image.obj
 0001:0001ed50       ?SetHeight@Image@@SAXV?$Local@VString@v8@@@v8@@V?$Local@VValue@v8@@@3@ABV?$PropertyCallbackInfo@X@Nan@@@Z 1001fd50 f   Image.obj
 0001:0001ee00       ?GetSource@Image@@SAXABV?$FunctionCallbackInfo@VValue@v8@@@Nan@@@Z 1001fe00 f   Image.obj
 0001:0001ee70       ?clearData@Image@@QAEXXZ   1001fe70 f   Image.obj
 0001:0001eef0       ?SetSource@Image@@SAXABV?$FunctionCallbackInfo@VValue@v8@@@Nan@@@Z 1001fef0 f   Image.obj
 0001:0001f390       ??1CanvasError@@QAE@XZ     10020390 f i Image.obj
 0001:0001f470       ?loadFromBuffer@Image@@QAE?AW4_cairo_status@@PAEI@Z 10020470 f   Image.obj
 0001:0001f5e0       ?readPNG@Image@@SA?AW4_cairo_status@@PAXPAEI@Z 100205e0 f   Image.obj
 0001:0001f610       ??_GImage@@EAEPAXI@Z       10020610 f i Image.obj
 0001:0001f610       ??_EImage@@EAEPAXI@Z       10020610 f i * CIL library *:* CIL module *
 0001:0001f6b0       ?loadSurface@Image@@QAE?AW4_cairo_status@@XZ 100206b0 f   Image.obj
 0001:0001f9b0       ?jpegToARGB@Image@@QAEXPAUjpeg_decompress_struct@@PAE1V?$function@$$A6AIPAE@Z@std@@@Z 100209b0 f   Image.obj
 0001:0001fa90       ??1?$function@$$A6AIPAE@Z@std@@QAE@XZ 10020a90 f i Image.obj
 0001:0001fac0       ?decodeJPEGIntoSurface@Image@@QAE?AW4_cairo_status@@PAUjpeg_decompress_struct@@@Z 10020ac0 f   Image.obj
 0001:0001fcb0       ?decodeJPEGBufferIntoMimeSurface@Image@@QAE?AW4_cairo_status@@PAEI@Z 10020cb0 f   Image.obj
 0001:0001fea0       ?clearMimeData@@YAXPAX@Z   10020ea0 f   Image.obj
 0001:0001fed0       ?assignDataAsMime@Image@@QAE?AW4_cairo_status@@PAEHPBD@Z 10020ed0 f   Image.obj
 0001:0001ff70       ?loadJPEGFromBuffer@Image@@QAE?AW4_cairo_status@@PAEI@Z 10020f70 f   Image.obj
 0001:00020090       ?loadJPEG@Image@@QAE?AW4_cairo_status@@PAU_iobuf@@@Z 10021090 f   Image.obj
 0001:00020180       ?loadBMPFromBuffer@Image@@QAE?AW4_cairo_status@@PAEI@Z 10021180 f   Image.obj
 0001:000203d0       ?isSVG@Image@@SAHPAEI@Z    100213d0 f   Image.obj
 0001:00020420       ?isBMP@Image@@SAHPAEI@Z    10021420 f   Image.obj
 0001:00020750       ?ThrowRangeError@Nan@@YAXPBD@Z 10021750 f i ImageData.obj
 0001:000207f0       ??_GImageData@@UAEPAXI@Z   100217f0 f i ImageData.obj
 0001:000207f0       ??_EImageData@@UAEPAXI@Z   100217f0 f i * CIL library *:* CIL module *
 0001:00020870       ?Initialize@ImageData@@SAXV?$Local@VObject@v8@@@v8@@@Z 10021870 f   ImageData.obj
 0001:00020a90       ?New@ImageData@@SAXABV?$FunctionCallbackInfo@VValue@v8@@@Nan@@@Z 10021a90 f   ImageData.obj
 0001:00021080       ?GetWidth@ImageData@@SAXV?$Local@VString@v8@@@v8@@ABV?$PropertyCallbackInfo@VValue@v8@@@Nan@@@Z 10022080 f   ImageData.obj
 0001:000210d0       ?init@@YAXV?$Local@VObject@v8@@@v8@@@Z 100220d0 f   init.obj
 0001:000213f0       ?_name_def_compare@@YAHPBX0@Z 100223f0 f   register_font.obj
 0001:00021410       ?_free_g_list_item@@YAXPAX0@Z 10022410 f   register_font.obj
 0001:00021420       ?get_family_name@@YAPADPAUFT_FaceRec_@@@Z 10022420 f   register_font.obj
 0001:00021620       ?get_pango_font_description@@YAPAU_PangoFontDescription@@PAE@Z 10022620 f   register_font.obj
 0001:00021866       __imp_load_?GetCurrentContext@Isolate@v8@@QAE?AV?$Local@VContext@v8@@@2@XZ 10022866 f   node:node.exe
 0001:00021870       __tailMerge_node_exe       10022870     node:node.exe
 0001:00021881       __imp_load_?GetCurrent@Isolate@v8@@SAPAV12@XZ 10022881 f   node:node.exe
 0001:0002188b       __imp_load_??1HandleScope@v8@@QAE@XZ 1002288b f   node:node.exe
 0001:00021895       __imp_load_??0HandleScope@v8@@QAE@PAVIsolate@1@@Z 10022895 f   node:node.exe
 0001:0002189f       __imp_load_?ClearWeak@V8@v8@@CAPAXPAPAVObject@internal@2@@Z 1002289f f   node:node.exe
 0001:000218a9       __imp_load_?MakeWeak@V8@v8@@CAXPAPAVObject@internal@2@PAXP6AXABV?$WeakCallbackInfo@X@2@@ZW4WeakCallbackType@2@@Z 100228a9 f   node:node.exe
 0001:000218b3       __imp_load_?DisposeGlobal@V8@v8@@CAXPAPAVObject@internal@2@@Z 100228b3 f   node:node.exe
 0001:000218bd       __imp_load_?GlobalizeReference@V8@v8@@CAPAPAVObject@internal@2@PAVIsolate@42@PAPAV342@@Z 100228bd f   node:node.exe
 0001:000218c7       __imp_load_?Uint32Value@Value@v8@@QBE?AV?$Maybe@I@2@V?$Local@VContext@v8@@@2@@Z 100228c7 f   node:node.exe
 0001:000218d1       __imp_load_?IsNumber@Value@v8@@QBE_NXZ 100228d1 f   node:node.exe
 0001:000218db       __imp_load_?SetAlignedPointerInInternalField@Object@v8@@QAEXHPAX@Z 100228db f   node:node.exe
 0001:000218e5       __imp_load_?InternalFieldCount@Object@v8@@QAEHXZ 100228e5 f   node:node.exe
 0001:000218ef       __imp_load_?Value@External@v8@@QBEPAXXZ 100228ef f   node:node.exe
 0001:000218f9       __imp_load_?New@External@v8@@SA?AV?$Local@VExternal@v8@@@2@PAVIsolate@2@PAX@Z 100228f9 f   node:node.exe
 0001:00021903       __imp_load_?ReportExternalAllocationLimitReached@Isolate@v8@@AAEXXZ 10022903 f   node:node.exe
 0001:0002190d       __imp_load_?CreateHandle@HandleScope@v8@@KAPAPAVObject@internal@2@PAVIsolate@42@PAV342@@Z 1002290d f   node:node.exe
 0001:00021917       __imp_load_?CreateHandle@HandleScope@v8@@CAPAPAVObject@internal@2@PAVHeapObject@42@PAV342@@Z 10022917 f   node:node.exe
 0001:00021921       __imp_load_?SetClassName@FunctionTemplate@v8@@QAEXV?$Local@VString@v8@@@2@@Z 10022921 f   node:node.exe
 0001:0002192b       __imp_load_?InstanceTemplate@FunctionTemplate@v8@@QAE?AV?$Local@VObjectTemplate@v8@@@2@XZ 1002292b f   node:node.exe
 0001:00021935       __imp_load_?GetFunction@FunctionTemplate@v8@@QAE?AV?$Local@VFunction@v8@@@2@XZ 10022935 f   node:node.exe
 0001:0002193f       __imp_load_?New@FunctionTemplate@v8@@SA?AV?$Local@VFunctionTemplate@v8@@@2@PAVIsolate@2@P6AXABV?$FunctionCallbackInfo@VValue@v8@@@2@@ZV?$Local@VValue@v8@@@2@V?$Local@VSignature@v8@@@2@HW4ConstructorBehavior@2@@Z 1002293f f   node:node.exe
 0001:00021949       __imp_load_?ToLocalEmpty@V8@v8@@CAXXZ 10022949 f   node:node.exe
 0001:00021953       __imp_load_?Escape@EscapableHandleScope@v8@@AAEPAPAVObject@internal@2@PAPAV342@@Z 10022953 f   node:node.exe
 0001:0002195d       __imp_load_??0EscapableHandleScope@v8@@QAE@PAVIsolate@1@@Z 1002295d f   node:node.exe
 0001:00021967       __imp_load_?NewFromUtf8@String@v8@@SA?AV?$MaybeLocal@VString@v8@@@2@PAVIsolate@2@PBDW4NewStringType@2@H@Z 10022967 f   node:node.exe
 0001:00021971       __imp_load_?SlowGetInternalField@Object@v8@@AAE?AV?$Local@VValue@v8@@@2@H@Z 10022971 f   node:node.exe
 0001:0002197b       __imp_load_?SetInternalField@Object@v8@@QAEXHV?$Local@VValue@v8@@@2@@Z 1002297b f   node:node.exe
 0001:00021985       __imp_load_?Set@Object@v8@@QAE_NV?$Local@VValue@v8@@@2@0@Z 10022985 f   node:node.exe
 0001:0002198f       __imp_load_?SetInternalFieldCount@ObjectTemplate@v8@@QAEXH@Z 1002298f f   node:node.exe
 0001:00021999       __imp_load_?NewInstance@ObjectTemplate@v8@@QAE?AV?$MaybeLocal@VObject@v8@@@2@V?$Local@VContext@v8@@@2@@Z 10022999 f   node:node.exe
 0001:000219a3       __imp_load_?New@ObjectTemplate@v8@@SA?AV?$Local@VObjectTemplate@v8@@@2@PAVIsolate@2@V?$Local@VFunctionTemplate@v8@@@2@@Z 100229a3 f   node:node.exe
 0001:000219ad       __imp_load_??1EscapableHandleScope@v8@@QAE@XZ 100229ad f   node:node.exe
 0001:000219b7       __imp_load_?New@Object@v8@@SA?AV?$Local@VObject@v8@@@2@PAVIsolate@2@@Z 100229b7 f   node:node.exe
 0001:000219c1       __imp_load__uv_queue_work  100229c1 f   node:node.exe
 0001:000219cb       __imp_load_?Global@Context@v8@@QAE?AV?$Local@VObject@v8@@@2@XZ 100229cb f   node:node.exe
 0001:000219d5       __imp_load_?NewFromUnsigned@Integer@v8@@SA?AV?$Local@VInteger@v8@@@2@PAVIsolate@2@I@Z 100229d5 f   node:node.exe
 0001:000219df       __imp_load_?New@Signature@v8@@SA?AV?$Local@VSignature@v8@@@2@PAVIsolate@2@V?$Local@VFunctionTemplate@v8@@@2@@Z 100229df f   node:node.exe
 0001:000219e9       __imp_load_?ThrowException@Isolate@v8@@QAE?AV?$Local@VValue@v8@@@2@V32@@Z 100229e9 f   node:node.exe
 0001:000219f3       __imp_load_?Length@TypedArray@v8@@QAEIXZ 100229f3 f   node:node.exe
 0001:000219fd       __imp_load_?Set@Template@v8@@QAEXV?$Local@VName@v8@@@2@V?$Local@VData@v8@@@2@W4PropertyAttribute@2@@Z 100229fd f   node:node.exe
 0001:00021a07       __imp_load_?ByteLength@ArrayBufferView@v8@@QAEIXZ 10022a07 f   node:node.exe
 0001:00021a11       __imp_load_?ByteOffset@ArrayBufferView@v8@@QAEIXZ 10022a11 f   node:node.exe
 0001:00021a1b       __imp_load_?Buffer@ArrayBufferView@v8@@QAE?AV?$Local@VArrayBuffer@v8@@@2@XZ 10022a1b f   node:node.exe
 0001:00021a25       __imp_load_?Error@Exception@v8@@SA?AV?$Local@VValue@v8@@@2@V?$Local@VString@v8@@@2@@Z 10022a25 f   node:node.exe
 0001:00021a2f       __imp_load_?TypeError@Exception@v8@@SA?AV?$Local@VValue@v8@@@2@V?$Local@VString@v8@@@2@@Z 10022a2f f   node:node.exe
 0001:00021a39       __imp_load_?New@AccessorSignature@v8@@SA?AV?$Local@VAccessorSignature@v8@@@2@PAVIsolate@2@V?$Local@VFunctionTemplate@v8@@@2@@Z 10022a39 f   node:node.exe
 0001:00021a43       __imp_load_?HasInstance@FunctionTemplate@v8@@QAE_NV?$Local@VValue@v8@@@2@@Z 10022a43 f   node:node.exe
 0001:00021a4d       __imp_load_?PrototypeTemplate@FunctionTemplate@v8@@QAE?AV?$Local@VObjectTemplate@v8@@@2@XZ 10022a4d f   node:node.exe
 0001:00021a57       __imp_load_?GetContents@ArrayBuffer@v8@@QAE?AVContents@12@XZ 10022a57 f   node:node.exe
 0001:00021a61       __imp_load_?StrictEquals@Value@v8@@QBE_NV?$Local@VValue@v8@@@2@@Z 10022a61 f   node:node.exe
 0001:00021a6b       __imp_load_?NumberValue@Value@v8@@QBE?AV?$Maybe@N@2@V?$Local@VContext@v8@@@2@@Z 10022a6b f   node:node.exe
 0001:00021a75       __imp_load_?BooleanValue@Value@v8@@QBE?AV?$Maybe@_N@2@V?$Local@VContext@v8@@@2@@Z 10022a75 f   node:node.exe
 0001:00021a7f       __imp_load_?ToUint32@Value@v8@@QBE?AV?$MaybeLocal@VUint32@v8@@@2@V?$Local@VContext@v8@@@2@@Z 10022a7f f   node:node.exe
 0001:00021a89       __imp_load_?ToObject@Value@v8@@QBE?AV?$MaybeLocal@VObject@v8@@@2@V?$Local@VContext@v8@@@2@@Z 10022a89 f   node:node.exe
 0001:00021a93       __imp_load_?IsUint8ClampedArray@Value@v8@@QBE_NXZ 10022a93 f   node:node.exe
 0001:00021a9d       __imp_load_?IsArrayBufferView@Value@v8@@QBE_NXZ 10022a9d f   node:node.exe
 0001:00021aa7       __imp_load_?IsUint32@Value@v8@@QBE_NXZ 10022aa7 f   node:node.exe
 0001:00021ab1       __imp_load_?IsBoolean@Value@v8@@QBE_NXZ 10022ab1 f   node:node.exe
 0001:00021abb       __imp_load_?IsObject@Value@v8@@QBE_NXZ 10022abb f   node:node.exe
 0001:00021ac5       __imp_load_?IsFunction@Value@v8@@QBE_NXZ 10022ac5 f   node:node.exe
 0001:00021acf       __imp_load_?ReThrow@TryCatch@v8@@QAE?AV?$Local@VValue@v8@@@2@XZ 10022acf f   node:node.exe
 0001:00021ad9       __imp_load_?HasCaught@TryCatch@v8@@QBE_NXZ 10022ad9 f   node:node.exe
 0001:00021ae3       __imp_load_??1TryCatch@v8@@QAE@XZ 10022ae3 f   node:node.exe
 0001:00021aed       __imp_load_??0TryCatch@v8@@QAE@PAVIsolate@1@@Z 10022aed f   node:node.exe
 0001:00021af7       __imp_load_?WriteUtf8@String@v8@@QBEHPADHPAHH@Z 10022af7 f   node:node.exe
 0001:00021b01       __imp_load_?Length@String@v8@@QBEHXZ 10022b01 f   node:node.exe
 0001:00021b0b       __imp_load_?New@Number@v8@@SA?AV?$Local@VNumber@v8@@@2@PAVIsolate@2@N@Z 10022b0b f   node:node.exe
 0001:00021b15       __imp_load_?SlowGetAlignedPointerFromInternalField@Object@v8@@AAEPAXH@Z 10022b15 f   node:node.exe
 0001:00021b1f       __imp_load_?Get@Object@v8@@QAE?AV?$Local@VValue@v8@@@2@V32@@Z 10022b1f f   node:node.exe
 0001:00021b29       __imp_load_?Set@Object@v8@@QAE?AV?$Maybe@_N@2@V?$Local@VContext@v8@@@2@V?$Local@VValue@v8@@@2@1@Z 10022b29 f   node:node.exe
 0001:00021b33       __imp_load_?Call@Function@v8@@QAE?AV?$MaybeLocal@VValue@v8@@@2@V?$Local@VContext@v8@@@2@V?$Local@VValue@v8@@@2@HQAV52@@Z 10022b33 f   node:node.exe
 0001:00021b3d       __imp_load_?SetAccessor@ObjectTemplate@v8@@QAEXV?$Local@VName@v8@@@2@P6AX0ABV?$PropertyCallbackInfo@VValue@v8@@@2@@ZP6AX0V?$Local@VValue@v8@@@2@ABV?$PropertyCallbackInfo@X@2@@Z3W4AccessControl@2@W4PropertyAttribute@2@V?$Local@VAccessorSignature@v8@@@2@@Z 10022b3d f   node:node.exe
 0001:00021b47       __imp_load_?New@Buffer@node@@YA?AV?$MaybeLocal@VObject@v8@@@v8@@PAVIsolate@4@PADIP6AX1PAX@Z2@Z 10022b47 f   node:node.exe
 0001:00021b51       __imp_load_?New@Buffer@node@@YA?AV?$MaybeLocal@VObject@v8@@@v8@@PAVIsolate@4@PADI@Z 10022b51 f   node:node.exe
 0001:00021b5b       __imp_load_?Copy@Buffer@node@@YA?AV?$MaybeLocal@VObject@v8@@@v8@@PAVIsolate@4@PBDI@Z 10022b5b f   node:node.exe
 0001:00021b65       __imp_load_?MakeCallback@node@@YA?AV?$Local@VValue@v8@@@v8@@PAVIsolate@3@V?$Local@VObject@v8@@@3@V?$Local@VFunction@v8@@@3@HPAV23@@Z 10022b65 f   node:node.exe
 0001:00021b6f       __imp_load__uv_default_loop 10022b6f f   node:node.exe
 0001:00021b79       __imp_load_?ToString@Value@v8@@QBE?AV?$Local@VString@v8@@@2@XZ 10022b79 f   node:node.exe
 0001:00021b83       __imp_load_?New@Uint8ClampedArray@v8@@SA?AV?$Local@VUint8ClampedArray@v8@@@2@V?$Local@VArrayBuffer@v8@@@2@II@Z 10022b83 f   node:node.exe
 0001:00021b8d       __imp_load_?New@Integer@v8@@SA?AV?$Local@VInteger@v8@@@2@PAVIsolate@2@H@Z 10022b8d f   node:node.exe
 0001:00021b97       __imp_load_?New@Array@v8@@SA?AV?$Local@VArray@v8@@@2@PAVIsolate@2@H@Z 10022b97 f   node:node.exe
 0001:00021ba1       __imp_load_?Length@Array@v8@@QBEIXZ 10022ba1 f   node:node.exe
 0001:00021bab       __imp_load_?GetFunction@FunctionTemplate@v8@@QAE?AV?$MaybeLocal@VFunction@v8@@@2@V?$Local@VContext@v8@@@2@@Z 10022bab f   node:node.exe
 0001:00021bb5       __imp_load_?New@ArrayBuffer@v8@@SA?AV?$Local@VArrayBuffer@v8@@@2@PAVIsolate@2@I@Z 10022bb5 f   node:node.exe
 0001:00021bbf       __imp_load_?FromJustIsNothing@V8@v8@@CAXXZ 10022bbf f   node:node.exe
 0001:00021bc9       __imp_load_?InstanceOf@Value@v8@@QAE?AV?$Maybe@_N@2@V?$Local@VContext@v8@@@2@V?$Local@VObject@v8@@@2@@Z 10022bc9 f   node:node.exe
 0001:00021bd3       __imp_load_?Int32Value@Value@v8@@QBE?AV?$Maybe@H@2@V?$Local@VContext@v8@@@2@@Z 10022bd3 f   node:node.exe
 0001:00021bdd       __imp_load_?ToInt32@Value@v8@@QBE?AV?$MaybeLocal@VInt32@v8@@@2@V?$Local@VContext@v8@@@2@@Z 10022bdd f   node:node.exe
 0001:00021be7       __imp_load_?ToString@Value@v8@@QBE?AV?$MaybeLocal@VString@v8@@@2@V?$Local@VContext@v8@@@2@@Z 10022be7 f   node:node.exe
 0001:00021bf1       __imp_load_?IsArray@Value@v8@@QBE_NXZ 10022bf1 f   node:node.exe
 0001:00021bfb       __imp_load_?New@Float64Array@v8@@SA?AV?$Local@VFloat64Array@v8@@@2@V?$Local@VArrayBuffer@v8@@@2@II@Z 10022bfb f   node:node.exe
 0001:00021c05       __imp_load_?New@Uint16Array@v8@@SA?AV?$Local@VUint16Array@v8@@@2@V?$Local@VArrayBuffer@v8@@@2@II@Z 10022c05 f   node:node.exe
 0001:00021c0f       __imp_load_?Get@Object@v8@@QAE?AV?$MaybeLocal@VValue@v8@@@2@V?$Local@VContext@v8@@@2@V?$Local@VValue@v8@@@2@@Z 10022c0f f   node:node.exe
 0001:00021c19       __imp_load_?Get@Object@v8@@QAE?AV?$Local@VValue@v8@@@2@I@Z 10022c19 f   node:node.exe
 0001:00021c23       __imp_load_?NewInstance@Function@v8@@QBE?AV?$MaybeLocal@VObject@v8@@@2@V?$Local@VContext@v8@@@2@HQAV?$Local@VValue@v8@@@2@@Z 10022c23 f   node:node.exe
 0001:00021c2d       __imp_load_?New@Function@v8@@SA?AV?$Local@VFunction@v8@@@2@PAVIsolate@2@P6AXABV?$FunctionCallbackInfo@VValue@v8@@@2@@ZV?$Local@VValue@v8@@@2@H@Z 10022c2d f   node:node.exe
 0001:00021c37       __imp_load_?Call@Function@v8@@QAE?AV?$Local@VValue@v8@@@2@V32@HQAV32@@Z 10022c37 f   node:node.exe
 0001:00021c41       __imp_load_?HasInstance@Buffer@node@@YA_NV?$Local@VValue@v8@@@v8@@@Z 10022c41 f   node:node.exe
 0001:00021c4b       __imp_load_?Data@Buffer@node@@YAPADV?$Local@VObject@v8@@@v8@@@Z 10022c4b f   node:node.exe
 0001:00021c55       __imp_load_?Length@Buffer@node@@YAIV?$Local@VObject@v8@@@v8@@@Z 10022c55 f   node:node.exe
 0001:00021c5f       __imp_load_?ErrnoException@node@@YA?AV?$Local@VValue@v8@@@v8@@PAVIsolate@3@HPBD11@Z 10022c5f f   node:node.exe
 0001:00021c69       __imp_load_?RangeError@Exception@v8@@SA?AV?$Local@VValue@v8@@@2@V?$Local@VString@v8@@@2@@Z 10022c69 f   node:node.exe
 0001:00021c73       __imp_load_?IsUint16Array@Value@v8@@QBE_NXZ 10022c73 f   node:node.exe
 0001:00021c7d       __imp_load__node_module_register 10022c7d f   node:node.exe
 0001:00021c87       ??0bad_alloc@std@@QAE@ABV01@@Z 10022c87 f i libcpmt:xthrow.obj
 0001:00021ca2       ??0bad_alloc@std@@QAE@XZ   10022ca2 f i libcpmt:xthrow.obj
 0001:00021cba       ??0bad_function_call@std@@QAE@ABV01@@Z 10022cba f i libcpmt:xthrow.obj
 0001:00021cd5       ??0bad_function_call@std@@QAE@XZ 10022cd5 f i libcpmt:xthrow.obj
 0001:00021ce6       ??0exception@std@@QAE@ABV01@@Z 10022ce6 f i libcpmt:xthrow.obj
 0001:00021d12       ??0exception@std@@QAE@QBD@Z 10022d12 f i libcpmt:xthrow.obj
 0001:00021d47       ??0length_error@std@@QAE@ABV01@@Z 10022d47 f i libcpmt:xthrow.obj
 0001:00021d62       ??0length_error@std@@QAE@PBD@Z 10022d62 f i libcpmt:xthrow.obj
 0001:00021d81       ??0logic_error@std@@QAE@ABV01@@Z 10022d81 f i libcpmt:xthrow.obj
 0001:00021d9c       ??1bad_alloc@std@@UAE@XZ   10022d9c f i libcpmt:xthrow.obj
 0001:00021d9c       ??1bad_exception@std@@UAE@XZ 10022d9c f i libvcruntime:frame.obj
 0001:00021d9c       ??1length_error@std@@UAE@XZ 10022d9c f i libcpmt:xthrow.obj
 0001:00021d9c       ??1bad_array_new_length@std@@UAE@XZ 10022d9c f i LIBCMT:throw_bad_alloc.obj
 0001:00021d9c       ??1bad_function_call@std@@UAE@XZ 10022d9c f i libcpmt:xthrow.obj
 0001:00021dad       ??_Gbad_function_call@std@@UAEPAXI@Z 10022dad f i libcpmt:xthrow.obj
 0001:00021dad       ??_Elength_error@std@@UAEPAXI@Z 10022dad f i libcpmt:xthrow.obj
 0001:00021dad       ??_Ebad_function_call@std@@UAEPAXI@Z 10022dad f i libcpmt:xthrow.obj
 0001:00021dad       ??_Gbad_array_new_length@std@@UAEPAXI@Z 10022dad f i LIBCMT:throw_bad_alloc.obj
 0001:00021dad       ??_Ebad_array_new_length@std@@UAEPAXI@Z 10022dad f i LIBCMT:throw_bad_alloc.obj
 0001:00021dad       ??_Glogic_error@std@@UAEPAXI@Z 10022dad f i libcpmt:xthrow.obj
 0001:00021dad       ??_Gbad_exception@std@@UAEPAXI@Z 10022dad f i libvcruntime:frame.obj
 0001:00021dad       ??_Gexception@std@@UAEPAXI@Z 10022dad f i libcpmt:xthrow.obj
 0001:00021dad       ??_Elogic_error@std@@UAEPAXI@Z 10022dad f i libcpmt:xthrow.obj
 0001:00021dad       ??_Ebad_exception@std@@UAEPAXI@Z 10022dad f i libvcruntime:frame.obj
 0001:00021dad       ??_Ebad_alloc@std@@UAEPAXI@Z 10022dad f i libcpmt:xthrow.obj
 0001:00021dad       ??_Glength_error@std@@UAEPAXI@Z 10022dad f i libcpmt:xthrow.obj
 0001:00021dad       ??_Gbad_alloc@std@@UAEPAXI@Z 10022dad f i libcpmt:xthrow.obj
 0001:00021dad       ??_Eexception@std@@UAEPAXI@Z 10022dad f i libcpmt:xthrow.obj
 0001:00021dda       ?__scrt_throw_std_bad_alloc@@YAXXZ 10022dda f   LIBCMT:throw_bad_alloc.obj
 0001:00021dda       ?_Xbad_alloc@std@@YAXXZ    10022dda f   libcpmt:xthrow.obj
 0001:00021df7       ?_Xbad_function_call@std@@YAXXZ 10022df7 f   libcpmt:xthrow.obj
 0001:00021e14       ?_Xlength_error@std@@YAXPBD@Z 10022e14 f   libcpmt:xthrow.obj
 0001:00021e34       ?what@bad_function_call@std@@UBEPBDXZ 10022e34 f i libcpmt:xthrow.obj
 0001:00021e3a       ?what@exception@std@@UBEPBDXZ 10022e3a f i libcpmt:xthrow.obj
 0001:00021e47       ??0_Init_locks@std@@QAE@XZ 10022e47 f   libcpmt:xlock.obj
 0001:00021e74       ??0_Lockit@std@@QAE@H@Z    10022e74 f   libcpmt:xlock.obj
 0001:00021ea5       ??1_Init_locks@std@@QAE@XZ 10022ea5 f   libcpmt:xlock.obj
 0001:00021ecc       ??1_Lockit@std@@QAE@XZ     10022ecc f   libcpmt:xlock.obj
 0001:00021eeb       ?_Execute_once@std@@YAHAAUonce_flag@1@P6GHPAX1PAPAX@Z1@Z 10022eeb f   libcpmt:xonce.obj
 0001:00021f03       ??0_Locimp@locale@std@@AAE@_N@Z 10022f03 f i libcpmt:locale0.obj
 0001:00021f44       ??1_Fac_node@std@@QAE@XZ   10022f44 f i libcpmt:locale0.obj
 0001:00021fa3       ??1_Fac_tidy_reg_t@std@@QAE@XZ 10022fa3 f i libcpmt:locale0.obj
 0001:00021fca       ??1_Locimp@locale@std@@MAE@XZ 10022fca f i libcpmt:locale0.obj
 0001:00022023       ??4?$_Yarn@D@std@@QAEAAV01@PBD@Z 10023023 f i libcpmt:locale0.obj
 0001:00022077       ??_G_Locimp@locale@std@@MAEPAXI@Z 10023077 f i libcpmt:locale0.obj
 0001:00022077       ??_E_Locimp@locale@std@@MAEPAXI@Z 10023077 f i libcpmt:locale0.obj
 0001:00022099       ?_Facet_Register@std@@YAXPAV_Facet_base@1@@Z 10023099 f   libcpmt:locale0.obj
 0001:000220c5       ?_Getgloballocale@locale@std@@CAPAV_Locimp@12@XZ 100230c5 f   libcpmt:locale0.obj
 0001:000220cb       ?_Init@locale@std@@CAPAV_Locimp@12@_N@Z 100230cb f   libcpmt:locale0.obj
 0001:0002215b       ?_Locimp_dtor@_Locimp@locale@std@@CAXPAV123@@Z 1002315b f   libcpmt:locale0.obj
 0001:000221d2       ?_Locinfo_ctor@_Locinfo@std@@SAXPAV12@PBD@Z 100231d2 f   libcpmt:locale0.obj
 0001:0002221d       ?_Locinfo_dtor@_Locinfo@std@@SAXPAV12@@Z 1002321d f   libcpmt:locale0.obj
 0001:00022237       ?_New_Locimp@_Locimp@locale@std@@CAPAV123@_N@Z 10023237 f   libcpmt:locale0.obj
 0001:0002225a       ?_Setgloballocale@locale@std@@CAXPAX@Z 1002325a f   libcpmt:locale0.obj
 0001:00022282       __Deletegloballocale       10023282 f   libcpmt:locale0.obj
 0001:000222e7       ?_Callfns@ios_base@std@@AAEXW4event@12@@Z 100232e7 f i libcpmt:ios.obj
 0001:0002231a       ?_Ios_base_dtor@ios_base@std@@CAXPAV12@@Z 1002331a f   libcpmt:ios.obj
 0001:0002235a       ?_Tidy@ios_base@std@@AAEXXZ 1002335a f i libcpmt:ios.obj
 0001:000223a2       ?_Syserror_map@std@@YAPBDH@Z 100233a2 f   libcpmt:syserror.obj
 0001:000223c7       __Getctype                 100233c7 f   libcpmt:_tolower.obj
 0001:0002242f       __Tolower                  1002342f f   libcpmt:_tolower.obj
 0001:0002252d       __Toupper                  1002352d f   libcpmt:_toupper.obj
 0001:0002262b       __Mtxdst                   1002362b f   libcpmt:xmtx.obj
 0001:00022639       __Mtxinit                  10023639 f   libcpmt:xmtx.obj
 0001:00022650       __Mtxlock                  10023650 f   libcpmt:xmtx.obj
 0001:0002265e       __Mtxunlock                1002365e f   libcpmt:xmtx.obj
 0001:00022a16       ___crtInitOnceExecuteOnce  10023a16 f   libcpmt:winapisupp.obj
 0001:00022aa4       ___crtInitializeCriticalSectionEx 10023aa4 f   libcpmt:winapisupp.obj
 0001:00022add       ??1_Init_atexit@@QAE@XZ    10023add f i libcpmt:iosptrs.obj
 0001:00022b40       ?_Atexit@@YAXP6AXXZ@Z      10023b40 f   libcpmt:iosptrs.obj
 0001:00022b6e       ___crtLCMapStringA         10023b6e f   libcpmt:StlLCMapStringA.obj
 0001:00022d43       __freea_crt                10023d43 f i libcpmt:StlLCMapStringA.obj
 0001:00022d61       _GetTableIndexFromLocaleName 10023d61 f   libcpmt:winapinls.obj
 0001:00022daf       ___crtDownlevelLocaleNameToLCID 10023daf f   libcpmt:winapinls.obj
 0001:00022dd9       ___crtLCMapStringEx        10023dd9 f   libcpmt:winapinls.obj
 0001:00022e30       ___wcsnicmp_ascii          10023e30 f   libcpmt:winapinls.obj
 0001:00022e98       @__security_check_cookie@4 10023e98 f   LIBCMT:secchk.obj
 0001:00022ea9       ??2@YAPAXI@Z               10023ea9 f   LIBCMT:new_scalar.obj
 0001:00022ed9       ??3@YAXPAXI@Z              10023ed9 f   LIBCMT:delete_scalar_size.obj
 0001:00022ee7       ??$__crt_fast_encode_pointer@PAP6AXXZ@@YAPAP6AXXZQAP6AXXZ@Z 10023ee7 f i LIBCMT:utility.obj
 0001:00022ee7       ??$__crt_fast_encode_pointer@PAX@@YAPAXQAX@Z 10023ee7 f i libvcruntime:winapi_downlevel.obj
 0001:00022f48       ___scrt_acquire_startup_lock 10023f48 f   LIBCMT:utility.obj
 0001:00022f7a       ___scrt_dllmain_after_initialize_c 10023f7a f   LIBCMT:utility.obj
 0001:00022fa5       ___scrt_dllmain_before_initialize_c 10023fa5 f   LIBCMT:utility.obj
 0001:00022fb3       ___scrt_dllmain_crt_thread_attach 10023fb3 f   LIBCMT:utility.obj
 0001:00022fd2       ___scrt_dllmain_crt_thread_detach 10023fd2 f   LIBCMT:utility.obj
 0001:00022fe2       ___scrt_dllmain_exception_filter 10023fe2 f   LIBCMT:utility.obj
 0001:00023016       ___scrt_dllmain_uninitialize_c 10024016 f   LIBCMT:utility.obj
 0001:00023039       ___scrt_dllmain_uninitialize_critical 10024039 f   LIBCMT:utility.obj
 0001:00023046       ___scrt_initialize_crt     10024046 f   LIBCMT:utility.obj
 0001:0002307f       ___scrt_initialize_onexit_tables 1002407f f   LIBCMT:utility.obj
 0001:00023124       ___scrt_is_nonwritable_in_current_image 10024124 f   LIBCMT:utility.obj
 0001:000231b8       ___scrt_release_startup_lock 100241b8 f   LIBCMT:utility.obj
 0001:000231d5       ___scrt_uninitialize_crt   100241d5 f   LIBCMT:utility.obj
 0001:000231fd       __onexit                   100241fd f   LIBCMT:utility.obj
 0001:00023238       _atexit                    10024238 f   LIBCMT:utility.obj
 0001:0002324d       ??_Etype_info@@UAEPAXI@Z   1002424d f i LIBCMT:std_type_info_static.obj
 0001:0002324d       ??_Gtype_info@@UAEPAXI@Z   1002424d f i LIBCMT:std_type_info_static.obj
 0001:00023270       ??_V@YAXPAX@Z              10024270 f   LIBCMT:delete_array.obj
 0001:00023275       ??_U@YAPAXIABUnothrow_t@std@@@Z 10024275 f   LIBCMT:new_array_nothrow.obj
 0001:0002327e       ??_M@YGXPAXIIP6EX0@Z@Z     1002427e f   LIBCMT:ehvecdtr.obj
 0001:00023303       ?__ArrayUnwind@@YGXPAXIIP6EX0@Z@Z 10024303 f   LIBCMT:ehvecdtr.obj
 0001:0002337c       ??_U@YAPAXI@Z              1002437c f   LIBCMT:new_array.obj
 0001:000236a5       __DllMainCRTStartup@12     100246a5 f   LIBCMT:dll_dllmain.obj
 0001:000236c8       __EH_epilog3               100246c8 f   LIBCMT:ehprolg3.obj
 0001:000236dd       __EH_epilog3_GS            100246dd f   LIBCMT:ehprolg3.obj
 0001:000236ee       __EH_prolog3               100246ee f   LIBCMT:ehprolg3.obj
 0001:00023722       __EH_prolog3_GS            10024722 f   LIBCMT:ehprolg3.obj
 0001:00023759       __EH_prolog3_catch         10024759 f   LIBCMT:ehprolg3.obj
 0001:00023790       __alloca_probe_16          10024790 f   LIBCMT:alloca16.obj
 0001:000237a6       __alloca_probe_8           100247a6     LIBCMT:alloca16.obj
 0001:000237c0       __allmul                   100247c0 f   LIBCMT:llmul.obj
 0001:00023800       __aulldiv                  10024800 f   LIBCMT:ulldiv.obj
 0001:00023868       ___raise_securityfailure   10024868 f   LIBCMT:gs_report.obj
 0001:00023890       ___report_gsfailure        10024890 f   LIBCMT:gs_report.obj
 0001:00023989       ___report_rangecheckfailure 10024989 f   LIBCMT:gs_report.obj
 0001:00023995       ___report_securityfailure  10024995 f   LIBCMT:gs_report.obj
 0001:00023a63       ??0bad_array_new_length@std@@QAE@ABV01@@Z 10024a63 f i LIBCMT:throw_bad_alloc.obj
 0001:00023a7e       ??0bad_array_new_length@std@@QAE@XZ 10024a7e f i LIBCMT:throw_bad_alloc.obj
 0001:00023a96       ?__scrt_throw_std_bad_array_new_length@@YAXXZ 10024a96 f   LIBCMT:throw_bad_alloc.obj
 0001:00023ab3       ??3@YAXPAX@Z               10024ab3 f   LIBCMT:delete_scalar.obj
 0001:00023ab8       ___isa_available_init      10024ab8 f   LIBCMT:cpu_disp.obj
 0001:00023c4f       __get_startup_argv_mode    10024c4f f   LIBCMT:argv_mode.obj
 0001:00023c53       ___scrt_is_ucrt_dll_in_use 10024c53 f   LIBCMT:ucrt_detection.obj
 0001:00023c5f       ___scrt_fastfail           10024c5f f   LIBCMT:utility_desktop.obj
 0001:00023d79       __crt_debugger_hook        10024d79 f   LIBCMT:utility_desktop.obj
 0001:00023d90       __SEH_prolog4              10024d90 f   LIBCMT:sehprolg4.obj
 0001:00023dd6       __SEH_epilog4              10024dd6 f   LIBCMT:sehprolg4.obj
 0001:00023deb       ??2@YAPAXIABUnothrow_t@std@@@Z 10024deb f   LIBCMT:new_scalar_nothrow.obj
 0001:00023e88       ___security_init_cookie    10024e88 f   LIBCMT:gs_support.obj
 0001:00023ed3       _DllMain@12                10024ed3 f   LIBCMT:dll_dllmain_stub.obj
 0001:00023ed9       ?__scrt_initialize_type_info@@YAXXZ 10024ed9 f   LIBCMT:tncleanup.obj
 0001:00023ee5       ?__scrt_uninitialize_type_info@@YAXXZ 10024ee5 f   LIBCMT:tncleanup.obj
 0001:00023ef1       ___local_stdio_scanf_options 10024ef1 f i LIBCMT:default_local_stdio_options.obj
 0001:00023ef7       ___scrt_initialize_default_local_stdio_options 10024ef7 f   LIBCMT:default_local_stdio_options.obj
 0001:00023f14       ___scrt_get_dyn_tls_init_callback 10024f14 f   LIBCMT:dyn_tls_init.obj
 0001:00023f1a       __RTC_Initialize           10024f1a f   LIBCMT:initsect.obj
 0001:00023f46       __RTC_Terminate            10024f46 f   LIBCMT:initsect.obj
 0001:00023f80       __alloca_probe             10024f80 f   LIBCMT:chkstk.obj
 0001:00023f80       __chkstk                   10024f80 f   LIBCMT:chkstk.obj
 0001:00023fad       ?GetRangeOfTrysToCheck@__FrameHandler3@@SA?AU?$pair@Viterator@TryBlockMap@__FrameHandler3@@V123@@std@@AAVTryBlockMap@1@HH@Z 10024fad f   libvcruntime:trnsctrl.obj
 0001:0002402f       ?_CallCatchBlock2@@YAPAXPAUEHRegistrationNode@@PBU_s_FuncInfo@@PAXHK@Z 1002502f f   libvcruntime:trnsctrl.obj
 0001:0002408d       ?_CallSETranslator@@YAHPAUEHExceptionRecord@@PAUEHRegistrationNode@@PAX2PBU_s_FuncInfo@@H1@Z 1002508d f   libvcruntime:trnsctrl.obj
 0001:00024168       ?_JumpToContinuation@@YGXPAXPAUEHRegistrationNode@@@Z 10025168 f   libvcruntime:trnsctrl.obj
 0001:00024198       ?_UnwindNestedFrames@@YGXPAUEHRegistrationNode@@PAUEHExceptionRecord@@@Z 10025198 f   libvcruntime:trnsctrl.obj
 0001:000241eb       __CatchGuardHandler        100251eb f   libvcruntime:trnsctrl.obj
 0001:0002421c       __CreateFrameInfo          1002521c f   libvcruntime:trnsctrl.obj
 0001:00024240       __FindAndUnlinkFrame       10025240 f   libvcruntime:trnsctrl.obj
 0001:00024285       __TranslatorGuardHandler   10025285 f   libvcruntime:trnsctrl.obj
 0001:00024322       ___CxxFrameHandler3        10025322 f   libvcruntime:trnsctrl.obj
 0001:00024358       __get_purecall_handler     10025358 f   libvcruntime:purevirt.obj
 0001:0002436d       __purecall                 1002536d f   libvcruntime:purevirt.obj
 0001:00024389       ___DestructExceptionObject 10025389 f   libvcruntime:ehhelpers.obj
 0001:00024429       ?_CallMemberFunction0@@YGXQAX0@Z 10025429 f i libvcruntime:ehhelpers.obj
 0001:00024436       __IsExceptionObjectToBeDestroyed 10025436 f   libvcruntime:ehhelpers.obj
 0001:0002445c       ___AdjustPointer           1002545c f   libvcruntime:ehhelpers.obj
 0001:00024481       ___FrameUnwindFilter       10025481 f   libvcruntime:ehhelpers.obj
 0001:000244c6       ___std_terminate           100254c6 f   libvcruntime:ehhelpers.obj
 0001:000244cb       _longjmp                   100254cb f   libvcruntime:longjmpc.obj
 0001:000244e0       _strstr                    100254e0 f   libvcruntime:strstr.obj
 0001:00024743       ___std_exception_copy      10025743 f   libvcruntime:std_exception.obj
 0001:000247a6       ___std_exception_destroy   100257a6 f   libvcruntime:std_exception.obj
 0001:000247c5       __CxxThrowException@8      100257c5 f   libvcruntime:throw.obj
 0001:00024840       _memcpy                    10025840 f   libvcruntime:memcpy.obj
 0001:00024dc0       _memmove                   10025dc0 f   libvcruntime:memmove.obj
 0001:00025340       _memset                    10026340 f   libvcruntime:memset.obj
 0001:000254a0       _memchr                    100264a0 f   libvcruntime:memchr.obj
 0001:0002554d       _memcmp                    1002654d f   libvcruntime:memcmp.obj
 0001:000264f1       ___vcrt_initialize         100274f1 f   libvcruntime:initialization.obj
 0001:0002651a       ___vcrt_thread_attach      1002751a f   libvcruntime:initialization.obj
 0001:00026525       ___vcrt_thread_detach      10027525 f   libvcruntime:initialization.obj
 0001:00026530       ___vcrt_uninitialize       10027530 f   libvcruntime:initialization.obj
 0001:0002654f       ___vcrt_uninitialize_critical 1002754f f   libvcruntime:initialization.obj
 0001:000265a0       __except_handler4          100275a0 f   libvcruntime:chandler4.obj
 0001:000266f7       ___std_type_info_compare   100276f7 f   libvcruntime:std_type_info.obj
 0001:00026733       ___std_type_info_destroy_list 10027733 f   libvcruntime:std_type_info.obj
 0001:00026756       ___vcrt_freefls@4          10027756 f   libvcruntime:per_thread_data.obj
 0001:00026772       ___vcrt_freeptd            10027772 f   libvcruntime:per_thread_data.obj
 0001:000267a8       ___vcrt_getptd             100277a8 f   libvcruntime:per_thread_data.obj
 0001:000267b6       ___vcrt_getptd_noexit      100277b6 f   libvcruntime:per_thread_data.obj
 0001:00026848       ___vcrt_initialize_ptd     10027848 f   libvcruntime:per_thread_data.obj
 0001:0002687b       ___vcrt_uninitialize_ptd   1002787b f   libvcruntime:per_thread_data.obj
 0001:00026f8d       ??$TypeMatchHelper@V__FrameHandler3@@@@YAHPBU_s_HandlerType@@PBU_s_CatchableType@@PBU_s_ThrowInfo@@@Z 10027f8d f i libvcruntime:frame.obj
 0001:0002701b       ??$__InternalCxxFrameHandler@V__FrameHandler3@@@@YA?AW4_EXCEPTION_DISPOSITION@@PAUEHExceptionRecord@@PAUEHRegistrationNode@@PAU_CONTEXT@@PAXPBU_s_FuncInfo@@H1E@Z 1002801b f i libvcruntime:frame.obj
 0001:0002711d       ??0bad_exception@std@@QAE@ABV01@@Z 1002811d f i libvcruntime:frame.obj
 0001:00027138       ??0bad_exception@std@@QAE@XZ 10028138 f i libvcruntime:frame.obj
 0001:00027150       ??8type_info@@QBE_NABV0@@Z 10028150 f i libvcruntime:frame.obj
 0001:000273b7       ?FrameUnwindToEmptyState@__FrameHandler3@@SAXPAUEHRegistrationNode@@PAXPBU_s_FuncInfo@@@Z 100283b7 f   libvcruntime:frame.obj
 0001:000273cf       ?FrameUnwindToState@__FrameHandler3@@SAXPAUEHRegistrationNode@@PAXPBU_s_FuncInfo@@H@Z 100283cf f   libvcruntime:frame.obj
 0001:00027551       ?_CallMemberFunction1@@YGXQAX00@Z 10028551 f i libvcruntime:frame.obj
 0001:00027561       ?_CallMemberFunction2@@YGXQAX00H@Z 10028561 f i libvcruntime:frame.obj
 0001:00027574       ?getESTypes@__FrameHandler3@@SAPBU_s_ESTypeList@@PBU_s_FuncInfo@@@Z 10028574 f i libvcruntime:frame.obj
 0001:00027580       __CallSettingFrame@12      10028580 f   libvcruntime:lowhelpr.obj
 0001:000275a7       __NLG_Return               100285a7     libvcruntime:lowhelpr.obj
 0001:000275cc       ___except_validate_context_record 100285cc f   libvcruntime:jbcxrval.obj
 0001:000275fc       ___except_validate_jump_buffer 100285fc f   libvcruntime:jbcxrval.obj
 0001:00027629       ___vcrt_initialize_pure_virtual_call_handler 10028629 f   libvcruntime:purevirt_data.obj
 0001:00027640       ___longjmp_internal        10028640 f   libvcruntime:longjmp.obj
 0001:00027700       _strchr                    10028700 f   libvcruntime:strchr.obj
 0001:0002776e       ___from_strstr_to_strchr   1002876e     libvcruntime:strchr.obj
 0001:0002782b       ___vcrt_initialize_locks   1002882b f   libvcruntime:locks.obj
 0001:00027867       ___vcrt_uninitialize_locks 10028867 f   libvcruntime:locks.obj
 0001:000279c9       ___vcrt_FlsAlloc           100289c9 f   libvcruntime:winapi_downlevel.obj
 0001:00027a04       ___vcrt_FlsFree            10028a04 f   libvcruntime:winapi_downlevel.obj
 0001:00027a3f       ___vcrt_FlsGetValue        10028a3f f   libvcruntime:winapi_downlevel.obj
 0001:00027a7a       ___vcrt_FlsSetValue        10028a7a f   libvcruntime:winapi_downlevel.obj
 0001:00027ab8       ___vcrt_InitializeCriticalSectionEx 10028ab8 f   libvcruntime:winapi_downlevel.obj
 0001:00027aff       ___vcrt_initialize_winapi_thunks 10028aff f   libvcruntime:winapi_downlevel.obj
 0001:00027b28       ___vcrt_uninitialize_winapi_thunks 10028b28 f   libvcruntime:winapi_downlevel.obj
 0001:00027b60       __local_unwind4            10028b60 f   libvcruntime:exsup4.obj
 0001:00027c38       __seh_longjmp_unwind4@4    10028c38 f   libvcruntime:exsup4.obj
 0001:00027c60       @_EH4_CallFilterFunc@8     10028c60 f   libvcruntime:exsup4.obj
 0001:00027c78       @_EH4_TransferToHandler@8  10028c78 f   libvcruntime:exsup4.obj
 0001:00027c94       @_EH4_GlobalUnwind2@8      10028c94 f   libvcruntime:exsup4.obj
 0001:00027cb0       @_EH4_LocalUnwind@16       10028cb0 f   libvcruntime:exsup4.obj
 0001:00027cc7       _unexpected                10028cc7 f   libvcruntime:unexpected.obj
 0001:00027ce4       ?GetCurrentState@__FrameHandler3@@SAHPAUEHRegistrationNode@@PAXPBU_s_FuncInfo@@@Z 10028ce4 f   libvcruntime:ehstate.obj
 0001:00027d01       ?SetState@__FrameHandler3@@SAXPAUEHRegistrationNode@@PBU_s_FuncInfo@@H@Z 10028d01 f   libvcruntime:ehstate.obj
 0001:00027d10       __global_unwind2           10028d10 f   libvcruntime:exsup.obj
 0001:00027d76       __local_unwind2            10028d76 f   libvcruntime:exsup.obj
 0001:00027dfa       __abnormal_termination     10028dfa f   libvcruntime:exsup.obj
 0001:00027e20       __NLG_Notify1              10028e20 f   libvcruntime:exsup.obj
 0001:00027e2c       __NLG_Notify               10028e2c f   libvcruntime:exsup.obj
 0001:00027e43       __NLG_Dispatch2            10028e43     libvcruntime:exsup.obj
 0001:00027e43       __NLG_Dispatch             10028e43     libvcruntime:exsup.obj
 0001:00027e4b       __NLG_Call                 10028e4b f   libvcruntime:exsup.obj
 0001:00027e4d       __NLG_Return2              10028e4d     libvcruntime:exsup.obj
 0001:00027e4e       __rt_probe_read4@4         10028e4e f   libvcruntime:sehsupp.obj
 0001:0002849f       ??$ftprintf@PAU_iobuf@@PB_WABQB_WABQB_WABI@?$__crt_char_traits@_W@@SAH$$QAPAU_iobuf@@$$QAPB_WABQB_W2ABI@Z 1002949f f i libucrt:assert.obj
 0001:0002857e       __vfwprintf_l              1002957e f i libucrt:assert.obj
 0001:000285a3       __vswprintf_c_l            100295a3 f i libucrt:assert.obj
 0001:000285d2       __wassert                  100295d2 f   libucrt:assert.obj
 0001:0002861a       _fwprintf                  1002961a f i libucrt:assert.obj
 0001:000286b6       _swprintf                  100296b6 f i libucrt:assert.obj
 0001:000286d4       ___acrt_call_reportfault   100296d4 f   libucrt:invalid_parameter.obj
 0001:0002880f       ___acrt_initialize_invalid_parameter_handler 1002980f f   libucrt:invalid_parameter.obj
 0001:0002881e       __invalid_parameter        1002981e f   libucrt:invalid_parameter.obj
 0001:00028882       __invalid_parameter_noinfo 10029882 f   libucrt:invalid_parameter.obj
 0001:00028892       __invalid_parameter_noinfo_noreturn 10029892 f   libucrt:invalid_parameter.obj
 0001:000288af       __invoke_watson            100298af f   libucrt:invalid_parameter.obj
 0001:000288e3       _abort                     100298e3 f   libucrt:abort.obj
 0001:00028bb5       ??0_LocaleUpdate@@QAE@QAU__crt_locale_pointers@@@Z 10029bb5 f i libucrt:tolower_toupper.obj
 0001:00028c38       ??1_LocaleUpdate@@QAE@XZ   10029c38 f i libucrt:tolower_toupper.obj
 0001:00028c80       ___acrt_locale_get_ctype_array_value 10029c80 f i libucrt:tolower_toupper.obj
 0001:00028ca2       __chvalidchk_l             10029ca2 f i libucrt:tolower_toupper.obj
 0001:00028cca       __ischartype_l             10029cca f i libucrt:tolower_toupper.obj
 0001:00028cfd       __tolower_l                10029cfd f   libucrt:tolower_toupper.obj
 0001:00028d17       __toupper_l                10029d17 f   libucrt:tolower_toupper.obj
 0001:00028d31       _tolower                   10029d31 f   libucrt:tolower_toupper.obj
 0001:00028d61       _toupper                   10029d61 f   libucrt:tolower_toupper.obj
 0001:00028d91       _free                      10029d91 f   libucrt:free.obj
 0001:00028dae       _round                     10029dae f   libucrt:round.obj
 0001:00028dff       _malloc                    10029dff f   libucrt:malloc.obj
 0001:00028e0a       __finite                   10029e0a f   libucrt:ieeemisc.obj
 0001:00028e24       __fpclass                  10029e24 f   libucrt:ieeemisc.obj
 0001:00028ec8       __isnan                    10029ec8 f   libucrt:ieeemisc.obj
 0001:00028efe       ___acrt_initialize_stdio   10029efe f   libucrt:_file.obj
 0001:00028fc6       ___acrt_iob_func           10029fc6 f   libucrt:_file.obj
 0001:00028fd6       ___acrt_uninitialize_stdio 10029fd6 f   libucrt:_file.obj
 0001:00029022       __lock_file                1002a022 f   libucrt:_file.obj
 0001:00029036       __unlock_file              1002a036 f   libucrt:_file.obj
 0001:000293a4       ??$count@D@formatting_buffer@__crt_stdio_output@@QBEIXZ 1002a3a4 f i libucrt:output.obj
 0001:000293bc       ??$count@_W@formatting_buffer@__crt_stdio_output@@QBEIXZ 1002a3bc f i libucrt:output.obj
 0001:000293d5       ??$ensure_buffer_is_big_enough@D@formatting_buffer@__crt_stdio_output@@QAE_NI@Z 1002a3d5 f i libucrt:output.obj
 0001:00029454       ??$ensure_buffer_is_big_enough@_W@formatting_buffer@__crt_stdio_output@@QAE_NI@Z 1002a454 f i libucrt:output.obj
 0001:000294d4       ??$is_wide_character_specifier@D@__crt_stdio_output@@YA_N_KDW4length_modifier@0@@Z 1002a4d4 f i libucrt:output.obj
 0001:00029505       ??$is_wide_character_specifier@_W@__crt_stdio_output@@YA_N_K_WW4length_modifier@0@@Z 1002a505 f i libucrt:output.obj
 0001:00029553       ??$scratch_data@D@formatting_buffer@__crt_stdio_output@@QAEPADXZ 1002a553 f i libucrt:output.obj
 0001:00029571       ??$type_case_integer_parse_into_buffer@I@?$output_processor@DV?$string_output_adapter@D@__crt_stdio_output@@V?$standard_base@DV?$string_output_adapter@D@__crt_stdio_output@@@2@@__crt_stdio_output@@AAEXII_N@Z 1002a571 f i libucrt:output.obj
 0001:000295e4       ??$type_case_integer_parse_into_buffer@I@?$output_processor@_WV?$stream_output_adapter@_W@__crt_stdio_output@@V?$standard_base@_WV?$stream_output_adapter@_W@__crt_stdio_output@@@2@@__crt_stdio_output@@AAEXII_N@Z 1002a5e4 f i libucrt:output.obj
 0001:000295e4       ??$type_case_integer_parse_into_buffer@I@?$output_processor@_WV?$string_output_adapter@_W@__crt_stdio_output@@V?$standard_base@_WV?$string_output_adapter@_W@__crt_stdio_output@@@2@@__crt_stdio_output@@AAEXII_N@Z 1002a5e4 f i libucrt:output.obj
 0001:0002966b       ??$type_case_integer_parse_into_buffer@_K@?$output_processor@DV?$string_output_adapter@D@__crt_stdio_output@@V?$standard_base@DV?$string_output_adapter@D@__crt_stdio_output@@@2@@__crt_stdio_output@@AAEX_KI_N@Z 1002a66b f i libucrt:output.obj
 0001:000296fb       ??$type_case_integer_parse_into_buffer@_K@?$output_processor@_WV?$stream_output_adapter@_W@__crt_stdio_output@@V?$standard_base@_WV?$stream_output_adapter@_W@__crt_stdio_output@@@2@@__crt_stdio_output@@AAEX_KI_N@Z 1002a6fb f i libucrt:output.obj
 0001:000296fb       ??$type_case_integer_parse_into_buffer@_K@?$output_processor@_WV?$string_output_adapter@_W@__crt_stdio_output@@V?$standard_base@_WV?$string_output_adapter@_W@__crt_stdio_output@@@2@@__crt_stdio_output@@AAEX_KI_N@Z 1002a6fb f i libucrt:output.obj
 0001:0002979f       ??$write_multiple_characters@V?$stream_output_adapter@_W@__crt_stdio_output@@D@__crt_stdio_output@@YAXABV?$stream_output_adapter@_W@0@DHQAH@Z 1002a79f f i libucrt:output.obj
 0001:000297df       ??$write_multiple_characters@V?$string_output_adapter@D@__crt_stdio_output@@D@__crt_stdio_output@@YAXABV?$string_output_adapter@D@0@DHQAH@Z 1002a7df f i libucrt:output.obj
 0001:0002980b       ??$write_multiple_characters@V?$string_output_adapter@_W@__crt_stdio_output@@D@__crt_stdio_output@@YAXABV?$string_output_adapter@_W@0@DHQAH@Z 1002a80b f i libucrt:output.obj
 0001:0002983c       ??0?$common_data@D@__crt_stdio_output@@IAE@XZ 1002a83c f i libucrt:output.obj
 0001:00029883       ??0?$common_data@_W@__crt_stdio_output@@IAE@XZ 1002a883 f i libucrt:output.obj
 0001:000298cf       ??0?$output_adapter_data@DV?$string_output_adapter@D@__crt_stdio_output@@@__crt_stdio_output@@IAE@ABV?$string_output_adapter@D@1@_KQBDQAU__crt_locale_pointers@@QAD@Z 1002a8cf f i libucrt:output.obj
 0001:0002990b       ??0?$output_adapter_data@_WV?$string_output_adapter@_W@__crt_stdio_output@@@__crt_stdio_output@@IAE@ABV?$string_output_adapter@_W@1@_KQB_WQAU__crt_locale_pointers@@QAD@Z 1002a90b f i libucrt:output.obj
 0001:0002990b       ??0?$output_adapter_data@_WV?$stream_output_adapter@_W@__crt_stdio_output@@@__crt_stdio_output@@IAE@ABV?$stream_output_adapter@_W@1@_KQB_WQAU__crt_locale_pointers@@QAD@Z 1002a90b f i libucrt:output.obj
 0001:00029947       ??1formatting_buffer@__crt_stdio_output@@QAE@XZ 1002a947 f i libucrt:output.obj
 0001:00029961       ??4?$__crt_unique_heap_ptr@DU__crt_internal_free_policy@@@@QAEAAV0@$$QAV0@@Z 1002a961 f i libucrt:output.obj
 0001:00029a46       ?crop_zeroes@__crt_stdio_output@@YAXPADQAU__crt_locale_pointers@@@Z 1002aa46 f i libucrt:output.obj
 0001:00029aa6       ?find_next_state@?$output_processor@DV?$string_output_adapter@D@__crt_stdio_output@@V?$standard_base@DV?$string_output_adapter@D@__crt_stdio_output@@@2@@__crt_stdio_output@@ABE?AW4state@2@DW432@@Z 1002aaa6 f i libucrt:output.obj
 0001:00029ae5       ?find_next_state@?$output_processor@_WV?$string_output_adapter@_W@__crt_stdio_output@@V?$standard_base@_WV?$string_output_adapter@_W@__crt_stdio_output@@@2@@__crt_stdio_output@@ABE?AW4state@2@_WW432@@Z 1002aae5 f i libucrt:output.obj
 0001:00029ae5       ?find_next_state@?$output_processor@_WV?$stream_output_adapter@_W@__crt_stdio_output@@V?$standard_base@_WV?$stream_output_adapter@_W@__crt_stdio_output@@@2@@__crt_stdio_output@@ABE?AW4state@2@_WW432@@Z 1002aae5 f i libucrt:output.obj
 0001:00029b26       ?force_decimal_point@__crt_stdio_output@@YAXPADQAU__crt_locale_pointers@@@Z 1002ab26 f i libucrt:output.obj
 0001:00029b82       ?parse_int_from_format_string@?$output_processor@DV?$string_output_adapter@D@__crt_stdio_output@@V?$standard_base@DV?$string_output_adapter@D@__crt_stdio_output@@@2@@__crt_stdio_output@@AAE_NQAH@Z 1002ab82 f i libucrt:output.obj
 0001:00029bf8       ?parse_int_from_format_string@?$output_processor@_WV?$stream_output_adapter@_W@__crt_stdio_output@@V?$standard_base@_WV?$stream_output_adapter@_W@__crt_stdio_output@@@2@@__crt_stdio_output@@AAE_NQAH@Z 1002abf8 f i libucrt:output.obj
 0001:00029bf8       ?parse_int_from_format_string@?$output_processor@_WV?$string_output_adapter@_W@__crt_stdio_output@@V?$standard_base@_WV?$string_output_adapter@_W@__crt_stdio_output@@@2@@__crt_stdio_output@@AAE_NQAH@Z 1002abf8 f i libucrt:output.obj
 0001:00029c70       ?process@?$output_processor@DV?$string_output_adapter@D@__crt_stdio_output@@V?$standard_base@DV?$string_output_adapter@D@__crt_stdio_output@@@2@@__crt_stdio_output@@QAEHXZ 1002ac70 f i libucrt:output.obj
 0001:00029d84       ?process@?$output_processor@_WV?$stream_output_adapter@_W@__crt_stdio_output@@V?$standard_base@_WV?$stream_output_adapter@_W@__crt_stdio_output@@@2@@__crt_stdio_output@@QAEHXZ 1002ad84 f i libucrt:output.obj
 0001:00029ea0       ?process@?$output_processor@_WV?$string_output_adapter@_W@__crt_stdio_output@@V?$standard_base@_WV?$string_output_adapter@_W@__crt_stdio_output@@@2@@__crt_stdio_output@@QAEHXZ 1002aea0 f i libucrt:output.obj
 0001:00029fbc       ?state_case_flag@?$output_processor@DV?$string_output_adapter@D@__crt_stdio_output@@V?$standard_base@DV?$string_output_adapter@D@__crt_stdio_output@@@2@@__crt_stdio_output@@AAE_NXZ 1002afbc f i libucrt:output.obj
 0001:00029ff9       ?state_case_flag@?$output_processor@_WV?$stream_output_adapter@_W@__crt_stdio_output@@V?$standard_base@_WV?$stream_output_adapter@_W@__crt_stdio_output@@@2@@__crt_stdio_output@@AAE_NXZ 1002aff9 f i libucrt:output.obj
 0001:00029ff9       ?state_case_flag@?$output_processor@_WV?$string_output_adapter@_W@__crt_stdio_output@@V?$standard_base@_WV?$string_output_adapter@_W@__crt_stdio_output@@@2@@__crt_stdio_output@@AAE_NXZ 1002aff9 f i libucrt:output.obj
 0001:0002a036       ?state_case_normal@?$output_processor@DV?$string_output_adapter@D@__crt_stdio_output@@V?$standard_base@DV?$string_output_adapter@D@__crt_stdio_output@@@2@@__crt_stdio_output@@AAE_NXZ 1002b036 f i libucrt:output.obj
 0001:0002a055       ?state_case_normal@?$output_processor@_WV?$stream_output_adapter@_W@__crt_stdio_output@@V?$standard_base@_WV?$stream_output_adapter@_W@__crt_stdio_output@@@2@@__crt_stdio_output@@AAE_NXZ 1002b055 f i libucrt:output.obj
 0001:0002a074       ?state_case_normal@?$output_processor@_WV?$string_output_adapter@_W@__crt_stdio_output@@V?$standard_base@_WV?$string_output_adapter@_W@__crt_stdio_output@@@2@@__crt_stdio_output@@AAE_NXZ 1002b074 f i libucrt:output.obj
 0001:0002a093       ?state_case_normal_common@?$output_processor@DV?$string_output_adapter@D@__crt_stdio_output@@V?$standard_base@DV?$string_output_adapter@D@__crt_stdio_output@@@2@@__crt_stdio_output@@AAE_NXZ 1002b093 f i libucrt:output.obj
 0001:0002a0bd       ?state_case_normal_common@?$output_processor@_WV?$stream_output_adapter@_W@__crt_stdio_output@@V?$standard_base@_WV?$stream_output_adapter@_W@__crt_stdio_output@@@2@@__crt_stdio_output@@AAE_NXZ 1002b0bd f i libucrt:output.obj
 0001:0002a0e7       ?state_case_normal_common@?$output_processor@_WV?$string_output_adapter@_W@__crt_stdio_output@@V?$standard_base@_WV?$string_output_adapter@_W@__crt_stdio_output@@@2@@__crt_stdio_output@@AAE_NXZ 1002b0e7 f i libucrt:output.obj
 0001:0002a102       ?state_case_normal_tchar@?$output_processor@DV?$string_output_adapter@D@__crt_stdio_output@@V?$standard_base@DV?$string_output_adapter@D@__crt_stdio_output@@@2@@__crt_stdio_output@@AAE_ND@Z 1002b102 f i libucrt:output.obj
 0001:0002a166       ?state_case_precision@?$output_processor@DV?$string_output_adapter@D@__crt_stdio_output@@V?$standard_base@DV?$string_output_adapter@D@__crt_stdio_output@@@2@@__crt_stdio_output@@AAE_NXZ 1002b166 f i libucrt:output.obj
 0001:0002a18c       ?state_case_precision@?$output_processor@_WV?$stream_output_adapter@_W@__crt_stdio_output@@V?$standard_base@_WV?$stream_output_adapter@_W@__crt_stdio_output@@@2@@__crt_stdio_output@@AAE_NXZ 1002b18c f i libucrt:output.obj
 0001:0002a18c       ?state_case_precision@?$output_processor@_WV?$string_output_adapter@_W@__crt_stdio_output@@V?$standard_base@_WV?$string_output_adapter@_W@__crt_stdio_output@@@2@@__crt_stdio_output@@AAE_NXZ 1002b18c f i libucrt:output.obj
 0001:0002a1b3       ?state_case_size@?$output_processor@DV?$string_output_adapter@D@__crt_stdio_output@@V?$standard_base@DV?$string_output_adapter@D@__crt_stdio_output@@@2@@__crt_stdio_output@@AAE_NXZ 1002b1b3 f i libucrt:output.obj
 0001:0002a301       ?state_case_size@?$output_processor@_WV?$stream_output_adapter@_W@__crt_stdio_output@@V?$standard_base@_WV?$stream_output_adapter@_W@__crt_stdio_output@@@2@@__crt_stdio_output@@AAE_NXZ 1002b301 f i libucrt:output.obj
 0001:0002a479       ?state_case_size@?$output_processor@_WV?$string_output_adapter@_W@__crt_stdio_output@@V?$standard_base@_WV?$string_output_adapter@_W@__crt_stdio_output@@@2@@__crt_stdio_output@@AAE_NXZ 1002b479 f i libucrt:output.obj
 0001:0002a5f1       ?state_case_type@?$output_processor@DV?$string_output_adapter@D@__crt_stdio_output@@V?$standard_base@DV?$string_output_adapter@D@__crt_stdio_output@@@2@@__crt_stdio_output@@AAE_NXZ 1002b5f1 f i libucrt:output.obj
 0001:0002a825       ?state_case_type@?$output_processor@_WV?$stream_output_adapter@_W@__crt_stdio_output@@V?$standard_base@_WV?$stream_output_adapter@_W@__crt_stdio_output@@@2@@__crt_stdio_output@@AAE_NXZ 1002b825 f i libucrt:output.obj
 0001:0002aa8c       ?state_case_type@?$output_processor@_WV?$string_output_adapter@_W@__crt_stdio_output@@V?$standard_base@_WV?$string_output_adapter@_W@__crt_stdio_output@@@2@@__crt_stdio_output@@AAE_NXZ 1002ba8c f i libucrt:output.obj
 0001:0002acf3       ?state_case_width@?$output_processor@DV?$string_output_adapter@D@__crt_stdio_output@@V?$standard_base@DV?$string_output_adapter@D@__crt_stdio_output@@@2@@__crt_stdio_output@@AAE_NXZ 1002bcf3 f i libucrt:output.obj
 0001:0002ad1e       ?state_case_width@?$output_processor@_WV?$string_output_adapter@_W@__crt_stdio_output@@V?$standard_base@_WV?$string_output_adapter@_W@__crt_stdio_output@@@2@@__crt_stdio_output@@AAE_NXZ 1002bd1e f i libucrt:output.obj
 0001:0002ad1e       ?state_case_width@?$output_processor@_WV?$stream_output_adapter@_W@__crt_stdio_output@@V?$standard_base@_WV?$stream_output_adapter@_W@__crt_stdio_output@@@2@@__crt_stdio_output@@AAE_NXZ 1002bd1e f i libucrt:output.obj
 0001:0002ad4a       ?to_integer_size@__crt_stdio_output@@YAIW4length_modifier@1@@Z 1002bd4a f i libucrt:output.obj
 0001:0002ad9e       ?type_case_Z@?$output_processor@DV?$string_output_adapter@D@__crt_stdio_output@@V?$standard_base@DV?$string_output_adapter@D@__crt_stdio_output@@@2@@__crt_stdio_output@@AAE_NXZ 1002bd9e f i libucrt:output.obj
 0001:0002adfa       ?type_case_Z@?$output_processor@_WV?$stream_output_adapter@_W@__crt_stdio_output@@V?$standard_base@_WV?$stream_output_adapter@_W@__crt_stdio_output@@@2@@__crt_stdio_output@@AAE_NXZ 1002bdfa f i libucrt:output.obj
 0001:0002adfa       ?type_case_Z@?$output_processor@_WV?$string_output_adapter@_W@__crt_stdio_output@@V?$standard_base@_WV?$string_output_adapter@_W@__crt_stdio_output@@@2@@__crt_stdio_output@@AAE_NXZ 1002bdfa f i libucrt:output.obj
 0001:0002ae56       ?type_case_a@?$output_processor@DV?$string_output_adapter@D@__crt_stdio_output@@V?$standard_base@DV?$string_output_adapter@D@__crt_stdio_output@@@2@@__crt_stdio_output@@AAE_NXZ 1002be56 f i libucrt:output.obj
 0001:0002afaf       ?type_case_a@?$output_processor@_WV?$stream_output_adapter@_W@__crt_stdio_output@@V?$standard_base@_WV?$stream_output_adapter@_W@__crt_stdio_output@@@2@@__crt_stdio_output@@AAE_NXZ 1002bfaf f i libucrt:output.obj
 0001:0002afaf       ?type_case_a@?$output_processor@_WV?$string_output_adapter@_W@__crt_stdio_output@@V?$standard_base@_WV?$string_output_adapter@_W@__crt_stdio_output@@@2@@__crt_stdio_output@@AAE_NXZ 1002bfaf f i libucrt:output.obj
 0001:0002b11e       ?type_case_c_tchar@?$output_processor@DV?$string_output_adapter@D@__crt_stdio_output@@V?$standard_base@DV?$string_output_adapter@D@__crt_stdio_output@@@2@@__crt_stdio_output@@AAE_ND@Z 1002c11e f i libucrt:output.obj
 0001:0002b1ae       ?type_case_c_tchar@?$output_processor@_WV?$stream_output_adapter@_W@__crt_stdio_output@@V?$standard_base@_WV?$stream_output_adapter@_W@__crt_stdio_output@@@2@@__crt_stdio_output@@AAE_N_W@Z 1002c1ae f i libucrt:output.obj
 0001:0002b1ae       ?type_case_c_tchar@?$output_processor@_WV?$string_output_adapter@_W@__crt_stdio_output@@V?$standard_base@_WV?$string_output_adapter@_W@__crt_stdio_output@@@2@@__crt_stdio_output@@AAE_N_W@Z 1002c1ae f i libucrt:output.obj
 0001:0002b246       ?type_case_integer@?$output_processor@DV?$string_output_adapter@D@__crt_stdio_output@@V?$standard_base@DV?$string_output_adapter@D@__crt_stdio_output@@@2@@__crt_stdio_output@@AAE_NI_N@Z 1002c246 f i libucrt:output.obj
 0001:0002b399       ?type_case_integer@?$output_processor@_WV?$string_output_adapter@_W@__crt_stdio_output@@V?$standard_base@_WV?$string_output_adapter@_W@__crt_stdio_output@@@2@@__crt_stdio_output@@AAE_NI_N@Z 1002c399 f i libucrt:output.obj
 0001:0002b399       ?type_case_integer@?$output_processor@_WV?$stream_output_adapter@_W@__crt_stdio_output@@V?$standard_base@_WV?$stream_output_adapter@_W@__crt_stdio_output@@@2@@__crt_stdio_output@@AAE_NI_N@Z 1002c399 f i libucrt:output.obj
 0001:0002b4f0       ?type_case_n@?$output_processor@_WV?$stream_output_adapter@_W@__crt_stdio_output@@V?$standard_base@_WV?$stream_output_adapter@_W@__crt_stdio_output@@@2@@__crt_stdio_output@@AAE_NXZ 1002c4f0 f i libucrt:output.obj
 0001:0002b4f0       ?type_case_n@?$output_processor@DV?$string_output_adapter@D@__crt_stdio_output@@V?$standard_base@DV?$string_output_adapter@D@__crt_stdio_output@@@2@@__crt_stdio_output@@AAE_NXZ 1002c4f0 f i libucrt:output.obj
 0001:0002b4f0       ?type_case_n@?$output_processor@_WV?$string_output_adapter@_W@__crt_stdio_output@@V?$standard_base@_WV?$string_output_adapter@_W@__crt_stdio_output@@@2@@__crt_stdio_output@@AAE_NXZ 1002c4f0 f i libucrt:output.obj
 0001:0002b564       ?type_case_o@?$output_processor@DV?$string_output_adapter@D@__crt_stdio_output@@V?$standard_base@DV?$string_output_adapter@D@__crt_stdio_output@@@2@@__crt_stdio_output@@AAE_NXZ 1002c564 f i libucrt:output.obj
 0001:0002b583       ?type_case_o@?$output_processor@_WV?$stream_output_adapter@_W@__crt_stdio_output@@V?$standard_base@_WV?$stream_output_adapter@_W@__crt_stdio_output@@@2@@__crt_stdio_output@@AAE_NXZ 1002c583 f i libucrt:output.obj
 0001:0002b583       ?type_case_o@?$output_processor@_WV?$string_output_adapter@_W@__crt_stdio_output@@V?$standard_base@_WV?$string_output_adapter@_W@__crt_stdio_output@@@2@@__crt_stdio_output@@AAE_NXZ 1002c583 f i libucrt:output.obj
 0001:0002b5a2       ?type_case_p@?$output_processor@DV?$string_output_adapter@D@__crt_stdio_output@@V?$standard_base@DV?$string_output_adapter@D@__crt_stdio_output@@@2@@__crt_stdio_output@@AAE_NXZ 1002c5a2 f i libucrt:output.obj
 0001:0002b5ba       ?type_case_p@?$output_processor@_WV?$stream_output_adapter@_W@__crt_stdio_output@@V?$standard_base@_WV?$stream_output_adapter@_W@__crt_stdio_output@@@2@@__crt_stdio_output@@AAE_NXZ 1002c5ba f i libucrt:output.obj
 0001:0002b5ba       ?type_case_p@?$output_processor@_WV?$string_output_adapter@_W@__crt_stdio_output@@V?$standard_base@_WV?$string_output_adapter@_W@__crt_stdio_output@@@2@@__crt_stdio_output@@AAE_NXZ 1002c5ba f i libucrt:output.obj
 0001:0002b5d2       ?type_case_s@?$output_processor@DV?$string_output_adapter@D@__crt_stdio_output@@V?$standard_base@DV?$string_output_adapter@D@__crt_stdio_output@@@2@@__crt_stdio_output@@AAE_NXZ 1002c5d2 f i libucrt:output.obj
 0001:0002b643       ?type_case_s@?$output_processor@_WV?$string_output_adapter@_W@__crt_stdio_output@@V?$standard_base@_WV?$string_output_adapter@_W@__crt_stdio_output@@@2@@__crt_stdio_output@@AAE_NXZ 1002c643 f i libucrt:output.obj
 0001:0002b643       ?type_case_s@?$output_processor@_WV?$stream_output_adapter@_W@__crt_stdio_output@@V?$standard_base@_WV?$stream_output_adapter@_W@__crt_stdio_output@@@2@@__crt_stdio_output@@AAE_NXZ 1002c643 f i libucrt:output.obj
 0001:0002b6b6       ?type_case_s_compute_narrow_string_length@?$output_processor@_WV?$stream_output_adapter@_W@__crt_stdio_output@@V?$standard_base@_WV?$stream_output_adapter@_W@__crt_stdio_output@@@2@@__crt_stdio_output@@ABEHH_W@Z 1002c6b6 f i libucrt:output.obj
 0001:0002b6b6       ?type_case_s_compute_narrow_string_length@?$output_processor@_WV?$string_output_adapter@_W@__crt_stdio_output@@V?$standard_base@_WV?$string_output_adapter@_W@__crt_stdio_output@@@2@@__crt_stdio_output@@ABEHH_W@Z 1002c6b6 f i libucrt:output.obj
 0001:0002b6fd       ?validate@?$string_output_adapter@D@__crt_stdio_output@@QBE_NXZ 1002c6fd f i libucrt:output.obj
 0001:0002b6fd       ?validate@?$string_output_adapter@_W@__crt_stdio_output@@QBE_NXZ 1002c6fd f i libucrt:output.obj
 0001:0002b6fd       ?validate@?$c_string_character_source@D@__crt_strtox@@QBE_NXZ 1002c6fd f i libucrt:strtod.obj
 0001:0002b6fd       ?validate@?$stream_output_adapter@_W@__crt_stdio_output@@QBE_NXZ 1002c6fd f i libucrt:output.obj
 0001:0002b6fd       ?validate@?$c_string_character_source@_W@__crt_strtox@@QBE_NXZ 1002c6fd f i libucrt:strtod.obj
 0001:0002b718       ?write_character@?$string_output_adapter@D@__crt_stdio_output@@QBE_NDQAH@Z 1002c718 f i libucrt:output.obj
 0001:0002b75a       ?write_character@?$string_output_adapter@_W@__crt_stdio_output@@QBE_N_WQAH@Z 1002c75a f i libucrt:output.obj
 0001:0002b79f       ?write_character_without_count_update@?$stream_output_adapter@_W@__crt_stdio_output@@QBE_N_W@Z 1002c79f f i libucrt:output.obj
 0001:0002b7d8       ?write_stored_string_tchar@?$output_processor@DV?$string_output_adapter@D@__crt_stdio_output@@V?$standard_base@DV?$string_output_adapter@D@__crt_stdio_output@@@2@@__crt_stdio_output@@AAE_ND@Z 1002c7d8 f i libucrt:output.obj
 0001:0002b881       ?write_stored_string_tchar@?$output_processor@_WV?$stream_output_adapter@_W@__crt_stdio_output@@V?$standard_base@_WV?$stream_output_adapter@_W@__crt_stdio_output@@@2@@__crt_stdio_output@@AAE_N_W@Z 1002c881 f i libucrt:output.obj
 0001:0002b916       ?write_stored_string_tchar@?$output_processor@_WV?$string_output_adapter@_W@__crt_stdio_output@@V?$standard_base@_WV?$string_output_adapter@_W@__crt_stdio_output@@@2@@__crt_stdio_output@@AAE_N_W@Z 1002c916 f i libucrt:output.obj
 0001:0002b9ab       ?write_string@?$stream_output_adapter@_W@__crt_stdio_output@@QBEXQB_WHQAHAAV__crt_deferred_errno_cache@@@Z 1002c9ab f i libucrt:output.obj
 0001:0002b9d7       ?write_string@?$string_output_adapter@D@__crt_stdio_output@@QBEXQBDHQAHAAV__crt_deferred_errno_cache@@@Z 1002c9d7 f i libucrt:output.obj
 0001:0002ba3e       ?write_string@?$string_output_adapter@_W@__crt_stdio_output@@QBEXQB_WHQAHAAV__crt_deferred_errno_cache@@@Z 1002ca3e f i libucrt:output.obj
 0001:0002bab1       ?write_string_impl@?$output_adapter_common@_WV?$stream_output_adapter@_W@__crt_stdio_output@@@__crt_stdio_output@@IBEXQB_WHQAHAAV__crt_deferred_errno_cache@@@Z 1002cab1 f i libucrt:output.obj
 0001:0002bb54       ___stdio_common_vfwprintf  1002cb54 f   libucrt:output.obj
 0001:0002bbd9       ___stdio_common_vsprintf   1002cbd9 f   libucrt:output.obj
 0001:0002bbfd       ___stdio_common_vswprintf  1002cbfd f   libucrt:output.obj
 0001:0002c216       __ftelli64_nolock          1002d216 f   libucrt:ftell.obj
 0001:0002c221       _ftell                     1002d221 f   libucrt:ftell.obj
 0001:0002c2d9       _fopen                     1002d2d9 f   libucrt:fopen.obj
 0001:0002c2f0       __fclose_nolock            1002d2f0 f   libucrt:fclose.obj
 0001:0002c367       _fclose                    1002d367 f   libucrt:fclose.obj
 0001:0002c3e1       ?LongLongSub@@YAJ_J0PA_J@Z 1002d3e1 f i libucrt:fseek.obj
 0001:0002c693       _fseek                     1002d693 f   libucrt:fseek.obj
 0001:0002c6ae       _rewind                    1002d6ae f   libucrt:rewind.obj
 0001:0002c771       ___acrt_errno_from_os_error 1002d771 f   libucrt:errno.obj
 0001:0002c7b4       ___acrt_errno_map_os_error 1002d7b4 f   libucrt:errno.obj
 0001:0002c7d7       ___doserrno                1002d7d7 f   libucrt:errno.obj
 0001:0002c7ea       __errno                    1002d7ea f   libucrt:errno.obj
 0001:0002c7fd       __fread_nolock_s           1002d7fd f   libucrt:fread.obj
 0001:0002c9e5       _fread                     1002d9e5 f   libucrt:fread.obj
 0001:0002ca02       _fread_s                   1002da02 f   libucrt:fread.obj
 0001:0002cb98       ??$__acrt_mbs_to_wcs_cp@U__crt_win32_buffer_internal_dynamic_resizing@@@@YAHQBDAAV?$__crt_win32_buffer@_WU__crt_win32_buffer_internal_dynamic_resizing@@@@I@Z 1002db98 f i libucrt:stat.obj
 0001:0002ce88       ??$loctotime@AAGAAGAAGAAGAAGAAGH@?$__crt_integer_traits@_J@@SA_JAAG00000$$QAH@Z 1002de88 f i libucrt:stat.obj
 0001:0002cf40       ?__acrt_get_utf8_acp_compatibility_codepage@@YAIXZ 1002df40 f i libucrt:stat.obj
 0001:0002cf81       ?_deallocate@?$__crt_win32_buffer@_WU__crt_win32_buffer_internal_dynamic_resizing@@@@AAEXXZ 1002df81 f i libucrt:stat.obj
 0001:0002cf81       ?_deallocate@?$__crt_win32_buffer@DU__crt_win32_buffer_internal_dynamic_resizing@@@@AAEXXZ 1002df81 f i libucrt:argv_wildcards.obj
 0001:0002cf9b       ?allocate@?$__crt_win32_buffer@_WU__crt_win32_buffer_internal_dynamic_resizing@@@@QAEHI@Z 1002df9b f i libucrt:stat.obj
 0001:0002cfda       ?allocate@__crt_win32_buffer_internal_dynamic_resizing@@SAHQAPAXIABV__crt_win32_buffer_empty_debug_info@@@Z 1002dfda f i libucrt:stat.obj
 0001:0002d1bd       __fstat64i32               1002e1bd f   libucrt:stat.obj
 0001:0002d1c8       ___ascii_stricmp           1002e1c8 f   libucrt:stricmp.obj
 0001:0002d203       __stricmp                  1002e203 f   libucrt:stricmp.obj
 0001:0002d24c       __stricmp_l                1002e24c f   libucrt:stricmp.obj
 0001:0002d2e6       ___acrt_initialize_locks   1002e2e6 f   libucrt:locks.obj
 0001:0002d327       ___acrt_lock               1002e327 f   libucrt:locks.obj
 0001:0002d33e       ___acrt_uninitialize_locks 1002e33e f   libucrt:locks.obj
 0001:0002d36f       ___acrt_unlock             1002e36f f   libucrt:locks.obj
 0001:0002d386       __lock_locales             1002e386 f   libucrt:locks.obj
 0001:0002d394       __unlock_locales           1002e394 f   libucrt:locks.obj
 0001:0002d39d       _terminate                 1002e39d f   libucrt:terminate.obj
 0001:0002d62d       _setlocale                 1002e62d f   libucrt:setlocale.obj
 0001:0002d667       _calloc                    1002e667 f   libucrt:calloc.obj
 0001:0002d672       ___pctype_func             1002e672 f   libucrt:ctype.obj
 0001:0002d698       __isdigit_l                1002e698 f i libucrt:_ctype.obj
 0001:0002d6d0       __islower_l                1002e6d0 f i libucrt:_ctype.obj
 0001:0002d708       __isupper_l                1002e708 f i libucrt:_ctype.obj
 0001:0002d740       _isdigit                   1002e740 f i libucrt:_ctype.obj
 0001:0002d771       _islower                   1002e771 f i libucrt:_ctype.obj
 0001:0002d7a2       _isupper                   1002e7a2 f i libucrt:_ctype.obj
 0001:0002d7d3       __wcsdup                   1002e7d3 f   libucrt:wcsdup.obj
 0001:0002d832       ____lc_codepage_func       1002e832 f   libucrt:initctype.obj
 0001:0002d859       ____lc_locale_name_func    1002e859 f   libucrt:initctype.obj
 0001:0002d882       ___acrt_locale_initialize_ctype 1002e882 f   libucrt:initctype.obj
 0001:0002dcbf       ??$make_c_string_character_source@_WPAPA_W@__crt_strtox@@YA?AV?$c_string_character_source@_W@0@QB_WQAPA_W@Z 1002ecbf f i libucrt:strtod.obj
 0001:0002dcbf       ??$make_c_string_character_source@DPAPAD@__crt_strtox@@YA?AV?$c_string_character_source@D@0@QBDQAPAD@Z 1002ecbf f i libucrt:strtod.obj
 0001:0002dce0       ?divide@__crt_strtox@@YA_KAAUbig_integer@1@ABU21@@Z 1002ece0 f i libucrt:strtod.obj
 0001:0002e178       ?unget@?$c_string_character_source@D@__crt_strtox@@QAEXD@Z 1002f178 f i libucrt:strtod.obj
 0001:0002e1a1       ?unget@?$c_string_character_source@_W@__crt_strtox@@QAEX_W@Z 1002f1a1 f i libucrt:strtod.obj
 0001:0002e1d0       _strcspn                   1002f1d0 f   libucrt:strcspn.obj
 0001:0002e220       __CIpow                    1002f220 f   libucrt:pow_impl.obj
 0001:0002e25b       __CIpow_default            1002f25b f   libucrt:pow_impl.obj
 0001:0002e274       __pow_default              1002f274     libucrt:pow_impl.obj
 0001:0002e469       ___strncnt                 1002f469 f   libucrt:strncnt.obj
 0001:0002e485       ?allocate@?$__crt_win32_buffer@DU__crt_win32_buffer_no_resizing@@@@QAEHI@Z 1002f485 f i libucrt:strftime.obj
 0001:0002e4ac       ?set_to_nullptr@?$__crt_win32_buffer@DU__crt_win32_buffer_no_resizing@@@@QAEXXZ 1002f4ac f i libucrt:strftime.obj
 0001:0002e4c0       ??$__crt_time_is_leap_year@H@@YA_NH@Z 1002f4c0 f i libucrt:wcsftime.obj
 0001:0002e502       _wcscpy_s                  1002f502 f   libucrt:wcscpy_s.obj
 0001:0002e566       _strnlen                   1002f566 f   libucrt:strnlen.obj
 0001:0002e688       _wcsnlen                   1002f688 f   libucrt:strnlen.obj
 0001:0002e838       ___acrt_initialize_new_handler 1002f838 f   libucrt:new_handler.obj
 0001:0002e847       __callnewh                 1002f847 f   libucrt:new_handler.obj
 0001:0002e874       __query_new_handler        1002f874 f   libucrt:new_handler.obj
 0001:0002e8c6       __seh_filter_dll           1002f8c6 f   libucrt:exception_filter.obj
 0001:0002e8e6       __seh_filter_exe           1002f8e6 f   libucrt:exception_filter.obj
 0001:0002eca6       ___acrt_initialize_thread_local_exit_callback 1002fca6 f   libucrt:exit.obj
 0001:0002ecb5       __cexit                    1002fcb5 f   libucrt:exit.obj
 0001:0002ecc4       __exit                     1002fcc4 f   libucrt:exit.obj
 0001:0002ecda       __is_c_termination_complete 1002fcda f   libucrt:exit.obj
 0001:0002ef92       ___acrt_allocate_buffer_for_argv 1002ff92 f   libucrt:argv_parsing.obj
 0001:0002efe1       __configure_narrow_argv    1002ffe1 f   libucrt:argv_parsing.obj
 0001:0002f1ef       ??$uninitialize@A6AXAAPAPAD@Z@?$dual_state_global@PAPAD@__crt_state_management@@QAEXA6AXAAPAPAD@Z@Z 100301ef f i libucrt:environment_initialization.obj
 0001:0002f1ef       ??$uninitialize@A6AXAAPAPA_W@Z@?$dual_state_global@PAPA_W@__crt_state_management@@QAEXA6AXAAPAPA_W@Z@Z 100301ef f i libucrt:environment_initialization.obj
 0001:0002f24e       ___dcrt_get_or_create_narrow_environment_nolock 1003024e f   libucrt:environment_initialization.obj
 0001:0002f253       ___dcrt_uninitialize_environments_nolock 10030253 f   libucrt:environment_initialization.obj
 0001:0002f28a       __initialize_narrow_environment 1003028a f   libucrt:environment_initialization.obj
 0001:0002f331       ??$__crt_fast_encode_pointer@P6AHXZ@@YAP6AHXZQ6AHXZ@Z 10030331 f i libucrt:onexit.obj
 0001:0002f331       ??$__crt_fast_encode_pointer@P6GHPA_WKJ@Z@@YAP6GHPA_WKJ@ZQ6GH0KJ@Z@Z 10030331 f i libucrt:winapi_thunks.obj
 0001:0002f557       __crt_atexit               10030557 f   libucrt:onexit.obj
 0001:0002f56d       __execute_onexit_table     1003056d f   libucrt:onexit.obj
 0001:0002f59c       __initialize_onexit_table  1003059c f   libucrt:onexit.obj
 0001:0002f5c5       __register_onexit_function 100305c5 f   libucrt:onexit.obj
 0001:0002f621       ___acrt_uninitialize_command_line 10030621 f   libucrt:argv_data.obj
 0001:0002f6fa       ___acrt_initialize         100306fa f   libucrt:initialization.obj
 0001:0002f70c       ___acrt_thread_attach      1003070c f   libucrt:initialization.obj
 0001:0002f717       ___acrt_thread_detach      10030717 f   libucrt:initialization.obj
 0001:0002f71f       ___acrt_uninitialize       1003071f f   libucrt:initialization.obj
 0001:0002f74f       ___acrt_uninitialize_critical 1003074f f   libucrt:initialization.obj
 0001:0002f761       __initterm                 10030761 f   libucrt:initterm.obj
 0001:0002f7a8       __initterm_e               100307a8 f   libucrt:initterm.obj
 0001:0002f7d6       _fileno                    100307d6 f   libucrt:fileno.obj
 0001:0002f7d6       __fileno                   100307d6 f   libucrt:fileno.obj
 0001:0002f7fd       __strdup                   100307fd f   libucrt:strdup.obj
 0001:0002f7fd       _strdup                    100307fd f   libucrt:strdup.obj
 0001:0002f851       _strcpy_s                  10030851 f   libucrt:strcpy_s.obj
 0001:0002f8ab       _wcsncmp                   100308ab f   libucrt:wcsncmp.obj
 0001:0002f8e5       ??$is_overflow_condition@K@__crt_strtox@@YA_NIK@Z 100308e5 f i libucrt:atox.obj
 0001:0002f916       ??$parse_integer@KV?$c_string_character_source@D@__crt_strtox@@@__crt_strtox@@YAKQAU__crt_locale_pointers@@V?$c_string_character_source@D@0@H_N@Z 10030916 f i libucrt:atox.obj
 0001:0002fb3d       ??$parse_integer@KV?$c_string_character_source@_W@__crt_strtox@@@__crt_strtox@@YAKQAU__crt_locale_pointers@@V?$c_string_character_source@_W@0@H_N@Z 10030b3d f i libucrt:atox.obj
 0001:0003017f       __wtol                     1003117f f   libucrt:atox.obj
 0001:000301a4       _atol                      100311a4 f   libucrt:atox.obj
 0001:000301d0       _strncmp                   100311d0 f   libucrt:strncmp.obj
 0001:00030248       __query_app_type           10031248 f   libucrt:report_runtime_error.obj
 0001:00030375       __itow_s                   10031375 f   libucrt:xtoa.obj
 0001:000303aa       __set_error_mode           100313aa f   libucrt:set_error_mode.obj
 0001:000303e9       _wcscat_s                  100313e9 f   libucrt:wcscat_s.obj
 0001:00030547       _wcsncat_s                 10031547 f   libucrt:wcsncat_s.obj
 0001:00030619       ___acrt_GetModuleFileNameA 10031619 f   libucrt:getmodulefilenamea.obj
 0001:0003073a       ___acrt_show_wide_message_box 1003173a f   libucrt:crtmbox.obj
 0001:00030966       ___acrt_stdio_flush_nolock 10031966 f   libucrt:fflush.obj
 0001:000309cb       __fflush_nolock            100319cb f   libucrt:fflush.obj
 0001:00030a13       __flushall                 10031a13 f   libucrt:fflush.obj
 0001:00030a1c       _fflush                    10031a1c f   libucrt:fflush.obj
 0001:00030b91       _setvbuf                   10031b91 f   libucrt:setvbuf.obj
 0001:00030cd9       ___acrt_get_sigabrt_handler 10031cd9 f   libucrt:signal.obj
 0001:00030d02       ___acrt_initialize_signal_handlers 10031d02 f   libucrt:signal.obj
 0001:00030d20       ___fpecode                 10031d20 f   libucrt:signal.obj
 0001:00030d29       _raise                     10031d29 f   libucrt:signal.obj
 0001:0003122a       ___acrt_freeptd            1003222a f   libucrt:per_thread_data.obj
 0001:00031256       ___acrt_getptd             10032256 f   libucrt:per_thread_data.obj
 0001:00031313       ___acrt_getptd_head        10032313 f   libucrt:per_thread_data.obj
 0001:000313ad       ___acrt_getptd_noexit      100323ad f   libucrt:per_thread_data.obj
 0001:00031462       ___acrt_initialize_ptd     10032462 f   libucrt:per_thread_data.obj
 0001:0003148e       ___acrt_uninitialize_ptd   1003248e f   libucrt:per_thread_data.obj
 0001:000314a8       __isleadbyte_l             100324a8 f i libucrt:_wctype.obj
 0001:000314e4       __isctype_l                100324e4 f   libucrt:isctype.obj
 0001:000317a5       ___acrt_LCMapStringA       100327a5 f   libucrt:lcmapstringa.obj
 0001:000317f0       ___acrt_update_locale_info 100327f0 f   libucrt:locale_update.obj
 0001:0003181d       ___acrt_update_multibyte_info 1003281d f   libucrt:locale_update.obj
 0001:00031a96       ___acrt_copy_locale_name   10032a96 f   libucrt:wsetlocale.obj
 0001:00031af6       ___acrt_set_locale_changed 10032af6 f   libucrt:wsetlocale.obj
 0001:00031b01       ___acrt_uninitialize_locale 10032b01 f   libucrt:wsetlocale.obj
 0001:00031b2a       ___lc_lctowcs              10032b2a f   libucrt:wsetlocale.obj
 0001:00031b9a       ___lc_wcstolc              10032b9a f   libucrt:wsetlocale.obj
 0001:00031d27       __expandlocale             10032d27 f   libucrt:wsetlocale.obj
 0001:00032105       __wcscats                  10033105 f   libucrt:wsetlocale.obj
 0001:00032146       __wsetlocale               10033146 f   libucrt:wsetlocale.obj
 0001:00032a1d       __free_base                10033a1d f   libucrt:free_base.obj
 0001:00032a57       __d_int                    10033a57 f   libucrt:_test.obj
 0001:00032b5f       __malloc_base              10033b5f f   libucrt:malloc_base.obj
 0001:00032bad       __errcode                  10033bad f   libucrt:fpexcept.obj
 0001:00032be1       __except1                  10033be1 f   libucrt:fpexcept.obj
 0001:00032caf       __handle_exc               10033caf f   libucrt:fpexcept.obj
 0001:00032e9c       __raise_exc                10033e9c f   libucrt:fpexcept.obj
 0001:00032ebf       __raise_exc_ex             10033ebf f   libucrt:fpexcept.obj
 0001:000331b5       __set_errno_from_matherr   100341b5 f   libucrt:fpexcept.obj
 0001:000331e4       __umatherr                 100341e4 f   libucrt:fpexcept.obj
 0001:00033286       __decomp                   10034286 f   libucrt:util.obj
 0001:00033364       __set_exp                  10034364 f   libucrt:util.obj
 0001:00033393       __sptype                   10034393 f   libucrt:util.obj
 0001:000333f1       __clrfp                    100343f1 f   libucrt:fpctrl.obj
 0001:00033404       __ctrlfp                   10034404 f   libucrt:fpctrl.obj
 0001:00033430       __set_statfp               10034430 f   libucrt:fpctrl.obj
 0001:0003348b       __statfp                   1003448b f   libucrt:fpctrl.obj
 0001:0003349d       __calloc_base              1003449d f   libucrt:calloc_base.obj
 0001:00033846       ___acrt_AppPolicyGetProcessTerminationMethodInternal@4 10034846 f   libucrt:winapi_thunks.obj
 0001:00033886       ___acrt_AppPolicyGetShowDeveloperDiagnosticInternal@4 10034886 f   libucrt:winapi_thunks.obj
 0001:000338c6       ___acrt_AppPolicyGetWindowingModelInternal@4 100348c6 f   libucrt:winapi_thunks.obj
 0001:00033906       ___acrt_AreFileApisANSI@0  10034906 f   libucrt:winapi_thunks.obj
 0001:00033925       ___acrt_CompareStringEx@36 10034925 f   libucrt:winapi_thunks.obj
 0001:00033982       ___acrt_EnumSystemLocalesEx@16 10034982 f   libucrt:winapi_thunks.obj
 0001:000339d8       ___acrt_FlsAlloc@4         100349d8 f   libucrt:winapi_thunks.obj
 0001:00033a17       ___acrt_FlsFree@4          10034a17 f   libucrt:winapi_thunks.obj
 0001:00033a56       ___acrt_FlsGetValue@4      10034a56 f   libucrt:winapi_thunks.obj
 0001:00033a95       ___acrt_FlsSetValue@8      10034a95 f   libucrt:winapi_thunks.obj
 0001:00033ad7       ___acrt_GetLocaleInfoEx@16 10034ad7 f   libucrt:winapi_thunks.obj
 0001:00033b16       ___acrt_GetUserDefaultLocaleName@8 10034b16 f   libucrt:winapi_thunks.obj
 0001:00033b52       ___acrt_InitializeCriticalSectionEx@12 10034b52 f   libucrt:winapi_thunks.obj
 0001:00033b9d       ___acrt_IsValidLocaleName@4 10034b9d f   libucrt:winapi_thunks.obj
 0001:00033bd5       ___acrt_LCIDToLocaleName@16 10034bd5 f   libucrt:winapi_thunks.obj
 0001:00033c14       ___acrt_LCMapStringEx@36   10034c14 f   libucrt:winapi_thunks.obj
 0001:00033c71       ___acrt_LocaleNameToLCID@8 10034c71 f   libucrt:winapi_thunks.obj
 0001:00033ca2       ___acrt_MessageBoxW@16     10034ca2 f   libucrt:winapi_thunks.obj
 0001:00033cd4       ___acrt_can_show_message_box 10034cd4 f   libucrt:winapi_thunks.obj
 0001:00033cfb       ___acrt_can_use_vista_locale_apis 10034cfb f   libucrt:winapi_thunks.obj
 0001:00033d06       ___acrt_eagerly_load_locale_apis 10034d06 f   libucrt:winapi_thunks.obj
 0001:00033d3d       ___acrt_get_parent_window  10034d3d f   libucrt:winapi_thunks.obj
 0001:00033da5       ___acrt_initialize_winapi_thunks 10034da5 f   libucrt:winapi_thunks.obj
 0001:00033dd0       ___acrt_is_interactive     10034dd0 f   libucrt:winapi_thunks.obj
 0001:00033e71       ___acrt_uninitialize_winapi_thunks 10034e71 f   libucrt:winapi_thunks.obj
 0001:00033ea7       __fcloseall                10034ea7 f   libucrt:closeall.obj
 0001:00033f48       ___acrt_stdio_free_buffer_nolock 10034f48 f   libucrt:_freebuf.obj
 0001:000340f4       ___acrt_initialize_lowio   100350f4 f   libucrt:ioinit.obj
 0001:0003414a       ___acrt_uninitialize_lowio 1003514a f   libucrt:ioinit.obj
 0001:00034176       _strtol                    10035176 f   libucrt:strtox.obj
 0001:000341a2       _wcstol                    100351a2 f   libucrt:strtox.obj
 0001:000341ce       __mbtowc_l                 100351ce f   libucrt:mbtowc.obj
 0001:00034312       _mbtowc                    10035312 f   libucrt:mbtowc.obj
 0001:0003432c       __wctomb_s_l               1003532c f   libucrt:wctomb.obj
 0001:00034489       _wctomb_s                  10035489 f   libucrt:wctomb.obj
 0001:000344a6       ?__acrt_fp_classify@@YA?AW4__acrt_fp_class@@ABN@Z 100354a6 f i libucrt:cvt.obj
 0001:00034d5d       ___acrt_fp_format          10035d5d f   libucrt:cvt.obj
 0001:00034eca       __fputwc_nolock            10035eca f   libucrt:fputwc.obj
 0001:00034ff5       __fputc_nolock             10035ff5 f   libucrt:fputc.obj
 0001:0003501e       __get_printf_count_output  1003601e f   libucrt:printf_count_output.obj
 0001:00035033       ___acrt_stdio_begin_temporary_buffering_nolock 10036033 f   libucrt:_sftbuf.obj
 0001:000350e6       ___acrt_stdio_end_temporary_buffering_nolock 100360e6 f   libucrt:_sftbuf.obj
 0001:00035463       __lseek                    10036463 f   libucrt:lseek.obj
 0001:0003546e       __lseeki64                 1003646e f   libucrt:lseek.obj
 0001:00035489       __lseeki64_nolock          10036489 f   libucrt:lseek.obj
 0001:0003599c       __read                     1003699c f   libucrt:read.obj
 0001:00035aa6       __read_nolock              10036aa6 f   libucrt:read.obj
 0001:00035e58       ?__acrt_stdio_allocate_stream@@YA?AV__crt_stdio_stream@@XZ 10036e58 f   libucrt:stream.obj
 0001:00035eb7       ?__acrt_stdio_free_stream@@YAXV__crt_stdio_stream@@@Z 10036eb7 f   libucrt:stream.obj
 0001:00035fb6       ??$__acrt_stdio_parse_mode@D@@YA?AU__acrt_stdio_stream_mode@@QBD@Z 10036fb6 f i libucrt:openfile.obj
 0001:0003626a       ?__acrt_stdio_parse_mode_D@@YA_NAAU__acrt_stdio_stream_mode@@@Z 1003726a f i libucrt:openfile.obj
 0001:00036285       ?__acrt_stdio_parse_mode_T@@YA_NAAU__acrt_stdio_stream_mode@@@Z 10037285 f i libucrt:openfile.obj
 0001:000362a4       ?__acrt_stdio_parse_mode_b@@YA_NAAU__acrt_stdio_stream_mode@@@Z 100372a4 f i libucrt:openfile.obj
 0001:000362c4       ?__acrt_stdio_parse_mode_c@@YA_NAAU__acrt_stdio_stream_mode@@AA_N@Z 100372c4 f i libucrt:openfile.obj
 0001:000362e6       ?__acrt_stdio_parse_mode_n@@YA_NAAU__acrt_stdio_stream_mode@@AA_N@Z 100372e6 f i libucrt:openfile.obj
 0001:00036308       ?__acrt_stdio_parse_mode_plus@@YA_NAAU__acrt_stdio_stream_mode@@AA_N@Z 10037308 f i libucrt:openfile.obj
 0001:0003633e       ?__acrt_stdio_parse_mode_t@@YA_NAAU__acrt_stdio_stream_mode@@@Z 1003733e f i libucrt:openfile.obj
 0001:0003635e       ?__acrt_stdio_parse_mode_x@@YA_NAAU__acrt_stdio_stream_mode@@@Z 1003735e f i libucrt:openfile.obj
 0001:0003637e       __openfile                 1003737e f   libucrt:openfile.obj
 0001:0003640b       __close                    1003740b f   libucrt:close.obj
 0001:0003649a       __close_nolock             1003749a f   libucrt:close.obj
 0001:000366c0       ___acrt_stdio_refill_and_read_narrow_nolock 100376c0 f   libucrt:_filbuf.obj
 0001:000366f8       __getdrive                 100376f8 f   libucrt:drive.obj
 0001:0003679e       _wcspbrk                   1003779e f   libucrt:wcspbrk.obj
 0001:000367ec       __wcsicmp                  100377ec f   libucrt:wcsicmp.obj
 0001:0003687a       __wcsicmp_l                1003787a f   libucrt:wcsicmp.obj
 0001:00036957       ___acrt_MultiByteToWideChar 10037957 f   libucrt:multibytetowidechar.obj
 0001:000369d3       ___acrt_lowio_create_handle_array 100379d3 f   libucrt:osfinfo.obj
 0001:00036a50       ___acrt_lowio_destroy_handle_array 10037a50 f   libucrt:osfinfo.obj
 0001:00036a85       ___acrt_lowio_ensure_fh_exists 10037a85 f   libucrt:osfinfo.obj
 0001:00036b19       ___acrt_lowio_lock_fh      10037b19 f   libucrt:osfinfo.obj
 0001:00036b3c       ___acrt_lowio_set_os_handle 10037b3c f   libucrt:osfinfo.obj
 0001:00036bd0       ___acrt_lowio_unlock_fh    10037bd0 f   libucrt:osfinfo.obj
 0001:00036bf3       __alloc_osfhnd             10037bf3 f   libucrt:osfinfo.obj
 0001:00036cfc       __free_osfhnd              10037cfc f   libucrt:osfinfo.obj
 0001:00036d8d       __get_osfhandle            10037d8d f   libucrt:osfinfo.obj
 0001:00036df7       ??$__crt_time_elapsed_leap_years@H@@YAHH@Z 10037df7 f i libucrt:loctotime.obj
 0001:00037002       ?__crt_time_is_day_valid@@YA_NHHH@Z 10038002 f i libucrt:loctotime.obj
 0001:00037045       ___loctotime64_t           10038045 f   libucrt:loctotime.obj
 0001:000371f5       __mbstowcs_s_l             100381f5 f   libucrt:mbstowcs.obj
 0001:000372d7       _mbstowcs_s                100382d7 f   libucrt:mbstowcs.obj
 0001:000375a0       __wcstombs_s_l             100385a0 f   libucrt:wcstombs.obj
 0001:0003774e       ___acrt_GetLocaleInfoA     1003874e f   libucrt:getlocaleinfoa.obj
 0001:00037900       ___acrt_GetStringTypeA     10038900 f   libucrt:getstringtypea.obj
 0001:00037a05       __realloc_base             10038a05 f   libucrt:realloc_base.obj
 0001:00037a6e       _iswctype                  10038a6e f   libucrt:iswctype.obj
 0001:00037ad9       ___acrt_initialize_sse2    10038ad9 f   libucrt:mathfcns.obj
 0001:00037af0       __CIpow_pentium4           10038af0 f   libucrt:pow_pentium4.obj
 0001:00037b09       __pow_pentium4             10038b09     libucrt:pow_pentium4.obj
 0001:00038630       __fFEXP                    10039630 f   libucrt:87tran.obj
 0001:00038687       __rtinfpopse               10039687     libucrt:87tran.obj
 0001:00038689       __rtinfnpopse              10039689     libucrt:87tran.obj
 0001:00038699       __fFLN                     10039699     libucrt:87tran.obj
 0001:0003874e       __rtinfpop                 1003974e     libucrt:87tran.obj
 0001:00038750       __rtinfnpop                10039750     libucrt:87tran.obj
 0001:00038760       __rtforexpinf              10039760 f   libucrt:87tran.obj
 0001:0003876d       __ffexpm1                  1003976d     libucrt:87tran.obj
 0001:00038820       __trandisp1                10039820 f   libucrt:87disp.obj
 0001:00038895       __trandisp2                10039895 f   libucrt:87disp.obj
 0001:0003892f       __rttospopde               1003992f     libucrt:87disp.obj
 0001:00038934       __rttospop                 10039934     libucrt:87disp.obj
 0001:00038940       __rtnospop                 10039940 f   libucrt:87disp.obj
 0001:00038950       __rttosnpop                10039950 f   libucrt:87disp.obj
 0001:00038951       __rtnospopde               10039951     libucrt:87disp.obj
 0001:00038958       __rtzeropop                10039958     libucrt:87disp.obj
 0001:0003895a       __rtzeronpop               1003995a     libucrt:87disp.obj
 0001:00038960       __rtzerospop               10039960 f   libucrt:87disp.obj
 0001:0003896d       __rtonepop                 1003996d     libucrt:87disp.obj
 0001:00038970       __rtonenpop                10039970 f   libucrt:87disp.obj
 0001:00038980       __tosnan1                  10039980 f   libucrt:87disp.obj
 0001:000389b0       __nosnan2                  100399b0 f   libucrt:87disp.obj
 0001:000389c0       __tosnan2                  100399c0 f   libucrt:87disp.obj
 0001:000389f0       __nan2                     100399f0 f   libucrt:87disp.obj
 0001:00038a30       __rtindfpop                10039a30 f   libucrt:87disp.obj
 0001:00038a32       __rtindfnpop               10039a32     libucrt:87disp.obj
 0001:00038a43       __rttosnpopde              10039a43     libucrt:87disp.obj
 0001:00038a50       __rtatan2inf               10039a50 f   libucrt:87disp.obj
 0001:00038a6d       __rtchsifneg               10039a6d     libucrt:87disp.obj
 0001:00038a80       __startTwoArgErrorHandling 10039a80 f   libucrt:genexcep.obj
 0001:00038a97       __startOneArgErrorHandling 10039a97 f   libucrt:genexcep.obj
 0001:00038ae0       __twoToTOS                 10039ae0 f   libucrt:common.obj
 0001:00038af5       __load_CW                  10039af5 f   libucrt:common.obj
 0001:00038b0c       __convertTOStoQNaN         10039b0c f   libucrt:common.obj
 0001:00038b25       __fload_withFB             10039b25 f   libucrt:common.obj
 0001:00038b68       __checkTOS_withFB          10039b68 f   libucrt:common.obj
 0001:00038b7e       __fast_exit                10039b7e f   libucrt:common.obj
 0001:00038b8b       __math_exit                10039b8b f   libucrt:common.obj
 0001:00038bb5       __check_overflow_exit      10039bb5 f   libucrt:common.obj
 0001:00038bc9       __check_range_exit         10039bc9 f   libucrt:common.obj
 0001:00038c6c       __d_inttype                10039c6c f   libucrt:powhlp.obj
 0001:00038cd6       __powhlp                   10039cd6 f   libucrt:powhlp.obj
 0001:00038e01       ___acrt_WideCharToMultiByte 10039e01 f   libucrt:widechartomultibyte.obj
 0001:00038eae       ___acrt_initialize_timeset 10039eae f   libucrt:timeset.obj
 0001:00038ed9       ___daylight                10039ed9 f   libucrt:timeset.obj
 0001:00038edf       ___dstbias                 10039edf f   libucrt:timeset.obj
 0001:00038ee5       ___timezone                10039ee5 f   libucrt:timeset.obj
 0001:00038eeb       ___tzname                  10039eeb f   libucrt:timeset.obj
 0001:00038ef1       __get_daylight             10039ef1 f   libucrt:timeset.obj
 0001:00038f1d       __get_dstbias              10039f1d f   libucrt:timeset.obj
 0001:00038f49       __get_timezone             10039f49 f   libucrt:timeset.obj
 0001:000396ed       ___tzset                   1003a6ed f   libucrt:tzset.obj
 0001:00039740       __isindst                  1003a740 f   libucrt:tzset.obj
 0001:0003978a       ___acrt_get_developer_information_policy 1003a78a f   libucrt:win_policies.obj
 0001:000397d0       ___acrt_get_process_end_policy 1003a7d0 f   libucrt:win_policies.obj
 0001:00039803       ___acrt_get_windowing_model_policy 1003a803 f   libucrt:win_policies.obj
 0001:00039e45       ?allocate@?$__crt_win32_buffer@DU__crt_win32_buffer_internal_dynamic_resizing@@@@QAEHI@Z 1003ae45 f i libucrt:argv_wildcards.obj
 0001:00039f08       ___acrt_expand_narrow_argv_wildcards 1003af08 f   libucrt:argv_wildcards.obj
 0001:0003a423       ___acrt_initialize_multibyte 1003b423 f   libucrt:mbctype.obj
 0001:0003a46b       ___acrt_update_thread_multibyte_data 1003b46b f   libucrt:mbctype.obj
 0001:0003a47e       __setmbcp_nolock           1003b47e f   libucrt:mbctype.obj
 0001:0003a6cc       __ismbblead                1003b6cc f   libucrt:ismbbyte.obj
 0001:0003a6e4       ___acrt_initialize_command_line 1003b6e4 f   libucrt:argv_data.obj
 0001:0003a734       ___dcrt_get_narrow_environment_from_os 1003b734 f   libucrt:get_environment_from_os.obj
 0001:0003ab1b       ___dcrt_set_variable_in_narrow_environment_nolock 1003bb1b f   libucrt:setenv.obj
 0001:0003ab26       __recalloc_base            1003bb26 f   libucrt:recalloc.obj
 0001:0003ab93       ___acrt_initialize_heap    1003bb93 f   libucrt:heap_handle.obj
 0001:0003aba4       ___acrt_uninitialize_heap  1003bba4 f   libucrt:heap_handle.obj
 0001:0003abae       ___acrt_execute_initializers 1003bbae f   libucrt:shared_initialization.obj
 0001:0003ac16       ___acrt_execute_uninitializers 1003bc16 f   libucrt:shared_initialization.obj
 0001:0003ac47       ___acrt_has_user_matherr   1003bc47 f   libucrt:matherr.obj
 0001:0003ac5f       ___acrt_initialize_user_matherr 1003bc5f f   libucrt:matherr.obj
 0001:0003ac6e       ___acrt_invoke_user_matherr 1003bc6e f   libucrt:matherr.obj
 0001:0003ad6b       _wcsncpy_s                 1003bd6b f   libucrt:wcsncpy_s.obj
 0001:0003ae0e       __commit                   1003be0e f   libucrt:commit.obj
 0001:0003b612       __write                    1003c612 f   libucrt:write.obj
 0001:0003b6fa       __write_nolock             1003c6fa f   libucrt:write.obj
 0001:0003b8de       ___acrt_add_locale_ref     1003c8de f   libucrt:locale_refcounting.obj
 0001:0003b95b       ___acrt_free_locale        1003c95b f   libucrt:locale_refcounting.obj
 0001:0003baa5       ___acrt_locale_add_lc_time_reference 1003caa5 f   libucrt:locale_refcounting.obj
 0001:0003bace       ___acrt_locale_free_lc_time_if_unreferenced 1003cace f   libucrt:locale_refcounting.obj
 0001:0003baff       ___acrt_locale_release_lc_time_reference 1003caff f   libucrt:locale_refcounting.obj
 0001:0003bb28       ___acrt_release_locale_ref 1003cb28 f   libucrt:locale_refcounting.obj
 0001:0003bba9       ___acrt_update_thread_locale_data 1003cba9 f   libucrt:locale_refcounting.obj
 0001:0003bc20       __updatetlocinfoEx_nolock  1003cc20 f   libucrt:locale_refcounting.obj
 0001:0003bc70       ___acrt_locale_free_monetary 1003cc70 f   libucrt:initmon.obj
 0001:0003bd6e       ___acrt_locale_initialize_monetary 1003cd6e f   libucrt:initmon.obj
 0001:0003c127       ___acrt_locale_free_numeric 1003d127 f   libucrt:initnum.obj
 0001:0003c190       ___acrt_locale_initialize_numeric 1003d190 f   libucrt:initnum.obj
 0001:0003c657       ___acrt_locale_free_time   1003d657 f   libucrt:inittime.obj
 0001:0003c73b       ___acrt_locale_initialize_time 1003d73b f   libucrt:inittime.obj
 0001:0003c7b6       _wcscspn                   1003d7b6 f   libucrt:wcscspn.obj
 0001:0003cf1b       ___acrt_get_qualified_locale 1003df1b f   libucrt:get_qualified_locale.obj
 0001:0003d88a       ___acrt_get_qualified_locale_downlevel 1003e88a f   libucrt:getqloc_downlevel.obj
 0001:0003dd92       ___acrt_fenv_get_control   1003ed92 f   libucrt:_fenvutils.obj
 0001:0003de14       ___acrt_fenv_get_status    1003ee14 f   libucrt:_fenvutils.obj
 0001:0003dece       ___acrt_fenv_set_control   1003eece f   libucrt:_fenvutils.obj
 0001:0003df38       ___acrt_fenv_set_status    1003ef38 f   libucrt:_fenvutils.obj
 0001:0003e031       __query_new_mode           1003f031 f   libucrt:new_mode.obj
 0001:0003e0ec       ___acrt_DownlevelLCIDToLocaleName 1003f0ec f   libucrt:lcidtoname_downlevel.obj
 0001:0003e196       ___acrt_DownlevelLocaleNameToLCID 1003f196 f   libucrt:lcidtoname_downlevel.obj
 0001:0003e1ee       ?__mbrtowc_utf8@__crt_mbstring@@YAIPA_WPBDIPAU_Mbstatet@@@Z 1003f1ee f   libucrt:mbrtowc.obj
 0001:0003e230       ?__mbsrtowcs_utf8@__crt_mbstring@@YAIPA_WPAPBDIPAU_Mbstatet@@@Z 1003f230 f   libucrt:mbrtowc.obj
 0001:0003e32d       ?__c32rtomb_utf8@__crt_mbstring@@YAIPAD_UPAU_Mbstatet@@@Z 1003f32d f   libucrt:c32rtomb.obj
 0001:0003e3dc       ?return_illegal_sequence@__crt_mbstring@@YAIPAU_Mbstatet@@@Z 1003f3dc f i libucrt:c32rtomb.obj
 0001:0003e3fb       _c32rtomb                  1003f3fb f   libucrt:c32rtomb.obj
 0001:0003e406       ___acrt_fp_strflt_to_string 1003f406 f   libucrt:_fptostr.obj
 0001:0003e4c6       ___acrt_fltout             1003f4c6 f   libucrt:cfout.obj
 0001:0003fc71       ___acrt_stdio_flush_and_write_narrow_nolock 10040c71 f   libucrt:_flsbuf.obj
 0001:0003fc7c       ___acrt_stdio_flush_and_write_wide_nolock 10040c7c f   libucrt:_flsbuf.obj
 0001:0003fc87       __isatty                   10040c87 f   libucrt:isatty.obj
 0001:0003fcdd       __wcsnicmp                 10040cdd f   libucrt:wcsnicmp.obj
 0001:0003fd8e       __wcsnicmp_l               10040d8e f   libucrt:wcsnicmp.obj
 0001:0003fe8b       __strnicmp                 10040e8b f   libucrt:strnicmp.obj
 0001:0003fef8       __strnicmp_l               10040ef8 f   libucrt:strnicmp.obj
 0001:00040578       __sopen_nolock             10041578 f   libucrt:open.obj
 0001:000405e8       __sopen_s                  100415e8 f   libucrt:open.obj
 0001:00040608       __wsopen_nolock            10041608 f   libucrt:open.obj
 0001:00040934       ___acrt_stdio_allocate_buffer_nolock 10041934 f   libucrt:_getbuf.obj
 0001:0004098d       __towlower_l               1004198d f   libucrt:towlower.obj
 0001:00040a56       ?__wcsrtombs_utf8@__crt_mbstring@@YAIPADPAPB_WIPAU_Mbstatet@@@Z 10041a56 f   libucrt:wcrtomb.obj
 0001:00040c09       _strncpy_s                 10041c09 f   libucrt:strncpy_s.obj
 0001:00040c14       ___acrt_GetStringTypeW     10041c14 f   libucrt:getstringtypew.obj
 0001:00040c2d       ___libm_error_support      10041c2d f   libucrt:libm_error.obj
 0001:00040e23       __87except                 10041e23 f   libucrt:87except.obj
 0001:00040f2d       __frnd                     10041f2d f   libucrt:frnd.obj
 0001:000410af       _getenv_s                  100420af f   libucrt:getenv.obj
 0001:00041100       _qsort                     10042100 f   libucrt:qsort.obj
 0001:00041550       _strpbrk                   10042550 f   libucrt:strpbrk.obj
 0001:00041590       __mbsdec                   10042590 f   libucrt:mbsdec.obj
 0001:000415a7       __mbsdec_l                 100425a7 f   libucrt:mbsdec.obj
 0001:00041645       __strnicoll                10042645 f   libucrt:strnicol.obj
 0001:0004166e       __strnicoll_l              1004266e f   libucrt:strnicol.obj
 0001:00041738       ___acrt_SetEnvironmentVariableA 10042738 f   libucrt:setenvironmentvariablea.obj
 0001:000417cf       __msize_base               100427cf f   libucrt:msize.obj
 0001:00041802       __putwch_nolock            10042802 f   libucrt:putwch.obj
 0001:00041836       ?__mbrtoc32_utf8@__crt_mbstring@@YAIPA_UPBDIPAU_Mbstatet@@@Z 10042836 f   libucrt:mbrtoc32.obj
 0001:000419ea       _fegetenv                  100429ea f   libucrt:fegetenv.obj
 0001:00041a07       _fesetenv                  10042a07 f   libucrt:fesetenv.obj
 0001:00041a54       _feholdexcept              10042a54 f   libucrt:feholdexcept.obj
 0001:00041ab0       __CIlog10                  10042ab0 f   libucrt:log10_impl.obj
 0001:00041aeb       __CIlog10_default          10042aeb f   libucrt:log10_impl.obj
 0001:00041aff       __log10_default            10042aff     libucrt:log10_impl.obj
 0001:00041bc0       _ceil                      10042bc0 f   libucrt:ceil_pentium4.obj
 0001:00041c00       __ceil_pentium4            10042c00 f   libucrt:ceil_pentium4.obj
 0001:00041ce0       ___ascii_strnicmp          10042ce0 f   libucrt:_strnicm.obj
 0001:00041d41       __get_fmode                10042d41 f   libucrt:setmode.obj
 0001:00041d6e       __setmode_nolock           10042d6e f   libucrt:setmode.obj
 0001:00041e3f       ??0__crt_seek_guard@@QAE@H_J@Z 10042e3f f i libucrt:chsize.obj
 0001:00041e8c       __chsize_nolock            10042e8c f   libucrt:chsize.obj
 0001:00041ffe       ___acrt_LCMapStringW       10042ffe f   libucrt:lcmapstringw.obj
 0001:0004203c       ?__c16rtomb_utf8@__crt_mbstring@@YAIPAD_SPAU_Mbstatet@@@Z 1004303c f   libucrt:c16rtomb.obj
 0001:00042365       ___acrt_CompareStringA     10043365 f   libucrt:comparestringa.obj
 0001:000423cc       ___dcrt_lowio_ensure_console_output_initialized 100433cc f   libucrt:initcon.obj
 0001:000423eb       ___dcrt_terminate_console_output 100433eb f   libucrt:initcon.obj
 0001:00042402       ___dcrt_write_console      10043402 f   libucrt:initcon.obj
 0001:00042457       __clearfp                  10043457 f   libucrt:ieee87.obj
 0001:00042540       __CIlog10_pentium4         10043540 f   libucrt:log10_pentium4.obj
 0001:00042558       __log10_pentium4           10043558     libucrt:log10_pentium4.obj
 0001:000427d0       __ceil_default             100437d0 f   libucrt:ceil.obj
 0001:00042887       _IsProcessorFeaturePresent@4 10043887 f   kernel32:KERNEL32.dll
 0001:0004288d       _RtlUnwind@16              1004388d f   kernel32:KERNEL32.dll
 0001:00042893       ?DloadAcquireSectionWriteAccess@@YGXXZ 10043893 f i DelayImp:delayhlp.obj
 0001:000428c6       ?DloadGetSRWLockFunctionPointers@@YGEXZ 100438c6 f i DelayImp:delayhlp.obj
 0001:00042939       ?DloadLock@@YGXXZ          10043939 f i DelayImp:delayhlp.obj
 0001:00042978       ?DloadMakePermanentImageCommit@@YGXPAXK@Z 10043978 f i DelayImp:delayhlp.obj
 0001:000429e7       ?DloadObtainSection@@YGPAXPAK0@Z 100439e7 f i DelayImp:delayhlp.obj
 0001:00042a62       ?DloadProtectSection@@YGXKPAK@Z 10043a62 f i DelayImp:delayhlp.obj
 0001:00042ad0       ?DloadReleaseSectionWriteAccess@@YGXXZ 10043ad0 f i DelayImp:delayhlp.obj
 0001:00042b06       ?DloadUnlock@@YGXXZ        10043b06 f i DelayImp:delayhlp.obj
 0001:00042b32       ___delayLoadHelper2@8      10043b32 f   DelayImp:delayhlp.obj
 0001:00042db0       __FindPESection            10043db0 f   LIBCMT:pesect.obj
 0001:00042e00       __IsNonwritableInCurrentImage 10043e00 f   LIBCMT:pesect.obj
 0001:00042ec0       __ValidateImageBase        10043ec0 f   LIBCMT:pesect.obj
 0001:00042f00       __aulldvrm                 10043f00 f   LIBCMT:ulldvrm.obj
 0001:00042fa0       __alldiv                   10043fa0 f   LIBCMT:lldiv.obj
 0001:00043050       __allshl                   10044050 f   LIBCMT:llshl.obj
 0001:00043070       __aullshr                  10044070 f   LIBCMT:ullshr.obj
 0001:00043090       __alldvrm                  10044090 f   LIBCMT:lldvrm.obj
 0001:00043170       __ftol2_sse                10044170 f   LIBCMT:ftol2.obj
 0001:00043179       __ftol2_pentium4           10044179 f   LIBCMT:ftol2.obj
 0001:0004318c       __ftol2_sse_excpt          1004418c f   LIBCMT:ftol2.obj
 0001:000431b0       __ftol2                    100441b0 f   LIBCMT:ftol2.obj
 0001:00043225       _wcsrchr                   10044225 f   libvcruntime:wcsrchr.obj
 0001:000432d0       _strrchr                   100442d0 f   libvcruntime:strrchr.obj
 0001:00043407       _wcschr                    10044407 f   libvcruntime:wcschr.obj
 0001:000434d0       __ftoui3                   100444d0 f   LIBCMT:ftol3.obj
 0001:000434df       __ftoul3                   100444df f   LIBCMT:ftol3.obj
 0001:000434ee       __ftol3                    100444ee f   LIBCMT:ftol3.obj
 0001:000434fb       __ftol3_NaN                100444fb f   LIBCMT:ftol3.obj
 0001:00043513       __ftol3_work               10044513 f   LIBCMT:ftol3.obj
 0001:00043599       __ftol3_common             10044599 f   LIBCMT:ftol3.obj
 0001:0004365b       __ftol3_arg_error          1004465b f   LIBCMT:ftol3.obj
 0001:0004366d       __ftol3_except             1004466d f   LIBCMT:ftol3.obj
 0001:000436b1       __dtoui3                   100446b1 f   LIBCMT:ftol3.obj
 0001:000436c0       __dtoul3                   100446c0 f   LIBCMT:ftol3.obj
 0001:000436cf       __dtol3                    100446cf f   LIBCMT:ftol3.obj
 0001:000436dc       __dtol3_NaN                100446dc f   LIBCMT:ftol3.obj
 0001:000436f9       __dtol3_work               100446f9 f   LIBCMT:ftol3.obj
 0001:000437e0       __ultod3                   100447e0 f   LIBCMT:ftol3.obj
 0001:00043820       __ltod3                    10044820 f   LIBCMT:ftol3.obj
 0001:00043850       __setjmp3                  10044850 f   libvcruntime:setjmp3.obj
 0001:000438d0       __CIfmod                   100448d0 f   libucrt:87fmod_impl.obj
 0001:000438e0       __fFMOD                    100448e0 f   libucrt:87fmod_impl.obj
 0001:000438f0       __libm_sse2_acos_precise   100448f0 f   libucrt:acos_sse2_precise.obj
 0001:00043e10       __libm_sse2_sqrt_precise   10044e10 f   libucrt:sqrt_sse2_precise.obj
 0001:00043f10       __libm_sse2_tan_precise    10044f10 f   libucrt:tan_sse2_precise.obj
 0001:00044180       _floor                     10045180 f   libucrt:floor_pentium4.obj
 0001:000441c0       __floor_pentium4           100451c0 f   libucrt:floor_pentium4.obj
 0001:00044280       __cintrindisp2             10045280 f   libucrt:87cdisp.obj
 0001:000442d0       __cintrindisp1             100452d0 f   libucrt:87cdisp.obj
 0001:00044319       __ctrandisp2               10045319 f   libucrt:87cdisp.obj
 0001:000444a8       __ctrandisp1               100454a8 f   libucrt:87cdisp.obj
 0001:000444db       __fload                    100454db f   libucrt:87cdisp.obj
 0001:00044520       __CIacos                   10045520 f   libucrt:acos_impl.obj
 0001:0004455b       __CIacos_default           1004555b f   libucrt:acos_impl.obj
 0001:0004456f       __acos_default             1004556f     libucrt:acos_impl.obj
 0001:00044630       _sqrt                      10045630 f   libucrt:sqrt.obj
 0001:00044640       __CItan                    10045640 f   libucrt:tan_impl.obj
 0001:0004467b       __CItan_default            1004567b f   libucrt:tan_impl.obj
 0001:0004468f       __tan_default              1004568f     libucrt:tan_impl.obj
 0001:00044726       __floor_default            10045726 f   libucrt:floor.obj
 0001:000447e0       __CIacos_pentium4          100457e0 f   libucrt:acos_pentium4.obj
 0001:000447f8       __acos_pentium4            100457f8     libucrt:acos_pentium4.obj
 0001:00044d40       __CIsqrt                   10045d40 f   libucrt:sqrt_impl.obj
 0001:00044d54       __sqrt_common              10045d54     libucrt:sqrt_impl.obj
 0001:00044e00       __CItan_pentium4           10045e00 f   libucrt:tan_pentium4.obj
 0001:00044e18       __tan_pentium4             10045e18     libucrt:tan_pentium4.obj
 0002:00000000       __imp__AddFontResourceExA@12 10049000     gdi32:GDI32.dll
 0002:00000004       \177GDI32_NULL_THUNK_DATA  10049004     gdi32:GDI32.dll
 0002:00000008       __imp__VirtualQuery@12     10049008     kernel32:KERNEL32.dll
 0002:0000000c       __imp__GetModuleHandleA@4  1004900c     kernel32:KERNEL32.dll
 0002:00000010       __imp__VirtualProtect@16   10049010     kernel32:KERNEL32.dll
 0002:00000014       __imp__GetSystemInfo@4     10049014     kernel32:KERNEL32.dll
 0002:00000018       __imp__SetEndOfFile@4      10049018     kernel32:KERNEL32.dll
 0002:0000001c       __imp__HeapSize@12         1004901c     kernel32:KERNEL32.dll
 0002:00000020       __imp__GetFileSizeEx@8     10049020     kernel32:KERNEL32.dll
 0002:00000024       __imp__GetConsoleCP@0      10049024     kernel32:KERNEL32.dll
 0002:00000028       __imp__FlushFileBuffers@4  10049028     kernel32:KERNEL32.dll
 0002:0000002c       __imp__GetProcessHeap@0    1004902c     kernel32:KERNEL32.dll
 0002:00000030       __imp__SetEnvironmentVariableW@8 10049030     kernel32:KERNEL32.dll
 0002:00000034       __imp__FreeEnvironmentStringsW@4 10049034     kernel32:KERNEL32.dll
 0002:00000038       __imp__GetEnvironmentStringsW@0 10049038     kernel32:KERNEL32.dll
 0002:0000003c       __imp__GetCommandLineW@0   1004903c     kernel32:KERNEL32.dll
 0002:00000040       __imp__GetCommandLineA@0   10049040     kernel32:KERNEL32.dll
 0002:00000044       __imp__GetOEMCP@0          10049044     kernel32:KERNEL32.dll
 0002:00000048       __imp__GetACP@0            10049048     kernel32:KERNEL32.dll
 0002:0000004c       __imp__IsValidCodePage@4   1004904c     kernel32:KERNEL32.dll
 0002:00000050       __imp__FindNextFileW@8     10049050     kernel32:KERNEL32.dll
 0002:00000054       __imp__FindFirstFileExW@24 10049054     kernel32:KERNEL32.dll
 0002:00000058       __imp__FindClose@4         10049058     kernel32:KERNEL32.dll
 0002:0000005c       __imp__GetTimeZoneInformation@4 1004905c     kernel32:KERNEL32.dll
 0002:00000060       __imp__HeapReAlloc@16      10049060     kernel32:KERNEL32.dll
 0002:00000064       __imp__SetStdHandle@8      10049064     kernel32:KERNEL32.dll
 0002:00000068       __imp__GetCurrentDirectoryW@8 10049068     kernel32:KERNEL32.dll
 0002:0000006c       __imp__ReadConsoleW@20     1004906c     kernel32:KERNEL32.dll
 0002:00000070       __imp__GetConsoleMode@8    10049070     kernel32:KERNEL32.dll
 0002:00000074       __imp__SetFilePointerEx@20 10049074     kernel32:KERNEL32.dll
 0002:00000078       __imp__EnumSystemLocalesW@8 10049078     kernel32:KERNEL32.dll
 0002:0000007c       __imp__GetUserDefaultLCID@0 1004907c     kernel32:KERNEL32.dll
 0002:00000080       __imp__IsValidLocale@8     10049080     kernel32:KERNEL32.dll
 0002:00000084       __imp__HeapAlloc@12        10049084     kernel32:KERNEL32.dll
 0002:00000088       __imp__HeapFree@12         10049088     kernel32:KERNEL32.dll
 0002:0000008c       __imp__OutputDebugStringW@4 1004908c     kernel32:KERNEL32.dll
 0002:00000090       __imp__WriteFile@20        10049090     kernel32:KERNEL32.dll
 0002:00000094       __imp__ExitProcess@4       10049094     kernel32:KERNEL32.dll
 0002:00000098       __imp__FileTimeToSystemTime@8 10049098     kernel32:KERNEL32.dll
 0002:0000009c       __imp__SystemTimeToTzSpecificLocalTime@12 1004909c     kernel32:KERNEL32.dll
 0002:000000a0       __imp__PeekNamedPipe@24    100490a0     kernel32:KERNEL32.dll
 0002:000000a4       __imp__CloseHandle@4       100490a4     kernel32:KERNEL32.dll
 0002:000000a8       __imp__GetFileInformationByHandle@8 100490a8     kernel32:KERNEL32.dll
 0002:000000ac       __imp__CreateFileW@28      100490ac     kernel32:KERNEL32.dll
 0002:000000b0       __imp__ReadFile@20         100490b0     kernel32:KERNEL32.dll
 0002:000000b4       __imp__WriteConsoleW@20    100490b4     kernel32:KERNEL32.dll
 0002:000000b8       __imp__GetModuleHandleExW@12 100490b8     kernel32:KERNEL32.dll
 0002:000000bc       __imp__GetModuleFileNameW@12 100490bc     kernel32:KERNEL32.dll
 0002:000000c0       __imp__GetFileType@4       100490c0     kernel32:KERNEL32.dll
 0002:000000c4       __imp__GetStdHandle@4      100490c4     kernel32:KERNEL32.dll
 0002:000000c8       __imp__LoadLibraryExW@12   100490c8     kernel32:KERNEL32.dll
 0002:000000cc       __imp__FreeLibrary@4       100490cc     kernel32:KERNEL32.dll
 0002:000000d0       __imp__InterlockedFlushSList@4 100490d0     kernel32:KERNEL32.dll
 0002:000000d4       __imp__RaiseException@16   100490d4     kernel32:KERNEL32.dll
 0002:000000d8       __imp__RtlUnwind@16        100490d8     kernel32:KERNEL32.dll
 0002:000000dc       __imp__InitializeSListHead@4 100490dc     kernel32:KERNEL32.dll
 0002:000000e0       __imp__GetCurrentThreadId@0 100490e0     kernel32:KERNEL32.dll
 0002:000000e4       __imp__GetCurrentProcessId@0 100490e4     kernel32:KERNEL32.dll
 0002:000000e8       __imp__QueryPerformanceCounter@4 100490e8     kernel32:KERNEL32.dll
 0002:000000ec       __imp__GetStartupInfoW@4   100490ec     kernel32:KERNEL32.dll
 0002:000000f0       __imp__IsDebuggerPresent@0 100490f0     kernel32:KERNEL32.dll
 0002:000000f4       __imp__IsProcessorFeaturePresent@4 100490f4     kernel32:KERNEL32.dll
 0002:000000f8       __imp__TerminateProcess@8  100490f8     kernel32:KERNEL32.dll
 0002:000000fc       __imp__GetCurrentProcess@0 100490fc     kernel32:KERNEL32.dll
 0002:00000100       __imp__SetUnhandledExceptionFilter@4 10049100     kernel32:KERNEL32.dll
 0002:00000104       __imp__UnhandledExceptionFilter@4 10049104     kernel32:KERNEL32.dll
 0002:00000108       __imp__GetCPInfo@8         10049108     kernel32:KERNEL32.dll
 0002:0000010c       __imp__GetStringTypeW@16   1004910c     kernel32:KERNEL32.dll
 0002:00000110       __imp__GetLocaleInfoW@16   10049110     kernel32:KERNEL32.dll
 0002:00000114       __imp__LCMapStringW@24     10049114     kernel32:KERNEL32.dll
 0002:00000118       __imp__CompareStringW@24   10049118     kernel32:KERNEL32.dll
 0002:0000011c       __imp__MultiByteToWideChar@24 1004911c     kernel32:KERNEL32.dll
 0002:00000120       __imp__DecodePointer@4     10049120     kernel32:KERNEL32.dll
 0002:00000124       __imp__EncodePointer@4     10049124     kernel32:KERNEL32.dll
 0002:00000128       __imp__GetProcAddress@8    10049128     kernel32:KERNEL32.dll
 0002:0000012c       __imp__GetModuleHandleW@4  1004912c     kernel32:KERNEL32.dll
 0002:00000130       __imp__GetSystemTimeAsFileTime@4 10049130     kernel32:KERNEL32.dll
 0002:00000134       __imp__TlsFree@4           10049134     kernel32:KERNEL32.dll
 0002:00000138       __imp__TlsSetValue@8       10049138     kernel32:KERNEL32.dll
 0002:0000013c       __imp__TlsGetValue@4       1004913c     kernel32:KERNEL32.dll
 0002:00000140       __imp__TlsAlloc@0          10049140     kernel32:KERNEL32.dll
 0002:00000144       __imp__SwitchToThread@0    10049144     kernel32:KERNEL32.dll
 0002:00000148       __imp__InitializeCriticalSectionAndSpinCount@8 10049148     kernel32:KERNEL32.dll
 0002:0000014c       __imp__SetLastError@4      1004914c     kernel32:KERNEL32.dll
 0002:00000150       __imp__DeleteCriticalSection@4 10049150     kernel32:KERNEL32.dll
 0002:00000154       __imp__LeaveCriticalSection@4 10049154     kernel32:KERNEL32.dll
 0002:00000158       __imp__EnterCriticalSection@4 10049158     kernel32:KERNEL32.dll
 0002:0000015c       __imp__WideCharToMultiByte@32 1004915c     kernel32:KERNEL32.dll
 0002:00000160       __imp__GetLastError@0      10049160     kernel32:KERNEL32.dll
 0002:00000164       __imp__LoadLibraryExA@12   10049164     kernel32:KERNEL32.dll
 0002:00000168       \177KERNEL32_NULL_THUNK_DATA 10049168     kernel32:KERNEL32.dll
 0002:0000016c       __imp__FT_Done_Face        1004916c     freetype:freetype6.dll
 0002:00000170       __imp__FT_Done_FreeType    10049170     freetype:freetype6.dll
 0002:00000174       __imp__FT_Get_Sfnt_Table   10049174     freetype:freetype6.dll
 0002:00000178       __imp__FT_Get_Sfnt_Name_Count 10049178     freetype:freetype6.dll
 0002:0000017c       __imp__FT_Init_FreeType    1004917c     freetype:freetype6.dll
 0002:00000180       __imp__FT_Get_Sfnt_Name    10049180     freetype:freetype6.dll
 0002:00000184       __imp__FT_New_Face         10049184     freetype:freetype6.dll
 0002:00000188       \177freetype6_NULL_THUNK_DATA 10049188     freetype:freetype6.dll
 0002:0000018c       __imp__jpeg_CreateDecompress 1004918c     jpeg:jpeg62.dll
 0002:00000190       __imp__jpeg_start_compress 10049190     jpeg:jpeg62.dll
 0002:00000194       __imp__jpeg_write_scanlines 10049194     jpeg:jpeg62.dll
 0002:00000198       __imp__jpeg_finish_compress 10049198     jpeg:jpeg62.dll
 0002:0000019c       __imp__jpeg_read_header    1004919c     jpeg:jpeg62.dll
 0002:000001a0       __imp__jpeg_destroy_compress 100491a0     jpeg:jpeg62.dll
 0002:000001a4       __imp__jpeg_std_error      100491a4     jpeg:jpeg62.dll
 0002:000001a8       __imp__jpeg_CreateCompress 100491a8     jpeg:jpeg62.dll
 0002:000001ac       __imp__jpeg_set_quality    100491ac     jpeg:jpeg62.dll
 0002:000001b0       __imp__jpeg_simple_progression 100491b0     jpeg:jpeg62.dll
 0002:000001b4       __imp__jpeg_destroy_decompress 100491b4     jpeg:jpeg62.dll
 0002:000001b8       __imp__jpeg_start_decompress 100491b8     jpeg:jpeg62.dll
 0002:000001bc       __imp__jpeg_finish_decompress 100491bc     jpeg:jpeg62.dll
 0002:000001c0       __imp__jpeg_abort_decompress 100491c0     jpeg:jpeg62.dll
 0002:000001c4       __imp__jpeg_mem_src        100491c4     jpeg:jpeg62.dll
 0002:000001c8       __imp__jpeg_set_defaults   100491c8     jpeg:jpeg62.dll
 0002:000001cc       __imp__jpeg_read_scanlines 100491cc     jpeg:jpeg62.dll
 0002:000001d0       \177jpeg62_NULL_THUNK_DATA 100491d0     jpeg:jpeg62.dll
 0002:000001d4       __imp__cairo_path_destroy  100491d4     cairo:libcairo-2.dll
 0002:000001d8       __imp__cairo_in_fill       100491d8     cairo:libcairo-2.dll
 0002:000001dc       __imp__cairo_set_operator  100491dc     cairo:libcairo-2.dll
 0002:000001e0       __imp__cairo_pattern_get_linear_points 100491e0     cairo:libcairo-2.dll
 0002:000001e4       __imp__cairo_surface_mark_dirty_rectangle 100491e4     cairo:libcairo-2.dll
 0002:000001e8       __imp__cairo_save          100491e8     cairo:libcairo-2.dll
 0002:000001ec       __imp__cairo_get_matrix    100491ec     cairo:libcairo-2.dll
 0002:000001f0       __imp__cairo_arc_negative  100491f0     cairo:libcairo-2.dll
 0002:000001f4       __imp__cairo_stroke_preserve 100491f4     cairo:libcairo-2.dll
 0002:000001f8       __imp__cairo_rectangle     100491f8     cairo:libcairo-2.dll
 0002:000001fc       __imp__cairo_set_line_join 100491fc     cairo:libcairo-2.dll
 0002:00000200       __imp__cairo_pattern_get_filter 10049200     cairo:libcairo-2.dll
 0002:00000204       __imp__cairo_set_source_surface 10049204     cairo:libcairo-2.dll
 0002:00000208       __imp__cairo_status        10049208     cairo:libcairo-2.dll
 0002:0000020c       __imp__cairo_fill          1004920c     cairo:libcairo-2.dll
 0002:00000210       __imp__cairo_set_line_cap  10049210     cairo:libcairo-2.dll
 0002:00000214       __imp__cairo_get_source    10049214     cairo:libcairo-2.dll
 0002:00000218       __imp__cairo_mask_surface  10049218     cairo:libcairo-2.dll
 0002:0000021c       __imp__cairo_pattern_set_filter 1004921c     cairo:libcairo-2.dll
 0002:00000220       __imp__cairo_fill_extents  10049220     cairo:libcairo-2.dll
 0002:00000224       __imp__cairo_image_surface_create_from_png_stream 10049224     cairo:libcairo-2.dll
 0002:00000228       __imp__cairo_pattern_create_for_surface 10049228     cairo:libcairo-2.dll
 0002:0000022c       __imp__cairo_restore       1004922c     cairo:libcairo-2.dll
 0002:00000230       __imp__cairo_line_to       10049230     cairo:libcairo-2.dll
 0002:00000234       __imp__cairo_set_fill_rule 10049234     cairo:libcairo-2.dll
 0002:00000238       __imp__cairo_paint         10049238     cairo:libcairo-2.dll
 0002:0000023c       __imp__cairo_push_group    1004923c     cairo:libcairo-2.dll
 0002:00000240       __imp__cairo_stroke        10049240     cairo:libcairo-2.dll
 0002:00000244       __imp__cairo_move_to       10049244     cairo:libcairo-2.dll
 0002:00000248       __imp__cairo_get_line_cap  10049248     cairo:libcairo-2.dll
 0002:0000024c       __imp__cairo_pattern_set_extend 1004924c     cairo:libcairo-2.dll
 0002:00000250       __imp__cairo_get_operator  10049250     cairo:libcairo-2.dll
 0002:00000254       __imp__cairo_clip          10049254     cairo:libcairo-2.dll
 0002:00000258       __imp__cairo_get_antialias 10049258     cairo:libcairo-2.dll
 0002:0000025c       __imp__cairo_pattern_get_user_data 1004925c     cairo:libcairo-2.dll
 0002:00000260       __imp__cairo_pattern_set_user_data 10049260     cairo:libcairo-2.dll
 0002:00000264       __imp__cairo_pattern_destroy 10049264     cairo:libcairo-2.dll
 0002:00000268       __imp__cairo_pattern_create_linear 10049268     cairo:libcairo-2.dll
 0002:0000026c       __imp__cairo_pattern_create_radial 1004926c     cairo:libcairo-2.dll
 0002:00000270       __imp__cairo_pattern_add_color_stop_rgba 10049270     cairo:libcairo-2.dll
 0002:00000274       __imp__cairo_create        10049274     cairo:libcairo-2.dll
 0002:00000278       __imp__cairo_image_surface_get_width 10049278     cairo:libcairo-2.dll
 0002:0000027c       __imp__cairo_set_source_rgba 1004927c     cairo:libcairo-2.dll
 0002:00000280       __imp__cairo_copy_path_flat 10049280     cairo:libcairo-2.dll
 0002:00000284       __imp__cairo_set_source    10049284     cairo:libcairo-2.dll
 0002:00000288       __imp__cairo_scale         10049288     cairo:libcairo-2.dll
 0002:0000028c       __imp__cairo_user_to_device_distance 1004928c     cairo:libcairo-2.dll
 0002:00000290       __imp__cairo_pattern_get_color_stop_count 10049290     cairo:libcairo-2.dll
 0002:00000294       __imp__cairo_set_matrix    10049294     cairo:libcairo-2.dll
 0002:00000298       __imp__cairo_surface_mark_dirty 10049298     cairo:libcairo-2.dll
 0002:0000029c       __imp__cairo_fill_preserve 1004929c     cairo:libcairo-2.dll
 0002:000002a0       __imp__cairo_pattern_get_surface 100492a0     cairo:libcairo-2.dll
 0002:000002a4       __imp__cairo_rotate        100492a4     cairo:libcairo-2.dll
 0002:000002a8       __imp__cairo_set_line_width 100492a8     cairo:libcairo-2.dll
 0002:000002ac       __imp__cairo_surface_flush 100492ac     cairo:libcairo-2.dll
 0002:000002b0       __imp__cairo_image_surface_get_height 100492b0     cairo:libcairo-2.dll
 0002:000002b4       __imp__cairo_destroy       100492b4     cairo:libcairo-2.dll
 0002:000002b8       __imp__cairo_image_surface_get_format 100492b8     cairo:libcairo-2.dll
 0002:000002bc       __imp__cairo_svg_surface_create_for_stream 100492bc     cairo:libcairo-2.dll
 0002:000002c0       __imp__cairo_pdf_surface_create_for_stream 100492c0     cairo:libcairo-2.dll
 0002:000002c4       __imp__cairo_pdf_surface_set_size 100492c4     cairo:libcairo-2.dll
 0002:000002c8       __imp__cairo_image_surface_get_data 100492c8     cairo:libcairo-2.dll
 0002:000002cc       __imp__cairo_surface_finish 100492cc     cairo:libcairo-2.dll
 0002:000002d0       __imp__cairo_image_surface_get_stride 100492d0     cairo:libcairo-2.dll
 0002:000002d4       __imp__cairo_image_surface_create 100492d4     cairo:libcairo-2.dll
 0002:000002d8       __imp__cairo_surface_status 100492d8     cairo:libcairo-2.dll
 0002:000002dc       __imp__cairo_status_to_string 100492dc     cairo:libcairo-2.dll
 0002:000002e0       __imp__cairo_surface_destroy 100492e0     cairo:libcairo-2.dll
 0002:000002e4       __imp__cairo_version_string 100492e4     cairo:libcairo-2.dll
 0002:000002e8       __imp__cairo_surface_set_mime_data 100492e8     cairo:libcairo-2.dll
 0002:000002ec       __imp__cairo_show_page     100492ec     cairo:libcairo-2.dll
 0002:000002f0       __imp__cairo_image_surface_create_for_data 100492f0     cairo:libcairo-2.dll
 0002:000002f4       __imp__cairo_image_surface_create_from_png 100492f4     cairo:libcairo-2.dll
 0002:000002f8       __imp__cairo_format_stride_for_width 100492f8     cairo:libcairo-2.dll
 0002:000002fc       __imp__cairo_curve_to      100492fc     cairo:libcairo-2.dll
 0002:00000300       __imp__cairo_pattern_get_radial_circles 10049300     cairo:libcairo-2.dll
 0002:00000304       __imp__cairo_translate     10049304     cairo:libcairo-2.dll
 0002:00000308       __imp__cairo_get_current_point 10049308     cairo:libcairo-2.dll
 0002:0000030c       __imp__cairo_set_miter_limit 1004930c     cairo:libcairo-2.dll
 0002:00000310       __imp__cairo_clip_preserve 10049310     cairo:libcairo-2.dll
 0002:00000314       __imp__cairo_pattern_get_type 10049314     cairo:libcairo-2.dll
 0002:00000318       __imp__cairo_get_line_width 10049318     cairo:libcairo-2.dll
 0002:0000031c       __imp__cairo_arc           1004931c     cairo:libcairo-2.dll
 0002:00000320       __imp__cairo_close_path    10049320     cairo:libcairo-2.dll
 0002:00000324       __imp__cairo_transform     10049324     cairo:libcairo-2.dll
 0002:00000328       __imp__cairo_set_dash      10049328     cairo:libcairo-2.dll
 0002:0000032c       __imp__cairo_get_dash_count 1004932c     cairo:libcairo-2.dll
 0002:00000330       __imp__cairo_set_antialias 10049330     cairo:libcairo-2.dll
 0002:00000334       __imp__cairo_paint_with_alpha 10049334     cairo:libcairo-2.dll
 0002:00000338       __imp__cairo_in_stroke     10049338     cairo:libcairo-2.dll
 0002:0000033c       __imp__cairo_get_line_join 1004933c     cairo:libcairo-2.dll
 0002:00000340       __imp__cairo_identity_matrix 10049340     cairo:libcairo-2.dll
 0002:00000344       __imp__cairo_new_path      10049344     cairo:libcairo-2.dll
 0002:00000348       __imp__cairo_append_path   10049348     cairo:libcairo-2.dll
 0002:0000034c       __imp__cairo_pattern_get_color_stop_rgba 1004934c     cairo:libcairo-2.dll
 0002:00000350       __imp__cairo_get_miter_limit 10049350     cairo:libcairo-2.dll
 0002:00000354       __imp__cairo_get_dash      10049354     cairo:libcairo-2.dll
 0002:00000358       __imp__cairo_pop_group_to_source 10049358     cairo:libcairo-2.dll
 0002:0000035c       __imp__cairo_matrix_init   1004935c     cairo:libcairo-2.dll
 0002:00000360       __imp__cairo_stroke_extents 10049360     cairo:libcairo-2.dll
 0002:00000364       \177libcairo-2_NULL_THUNK_DATA 10049364     cairo:libcairo-2.dll
 0002:00000368       __imp__g_free              10049368     glib-2.0:libglib-2.0-0.dll
 0002:0000036c       __imp__g_strdup            1004936c     glib-2.0:libglib-2.0-0.dll
 0002:00000370       __imp__g_list_free         10049370     glib-2.0:libglib-2.0-0.dll
 0002:00000374       __imp__g_list_insert_sorted 10049374     glib-2.0:libglib-2.0-0.dll
 0002:00000378       __imp__g_iconv             10049378     glib-2.0:libglib-2.0-0.dll
 0002:0000037c       __imp__g_iconv_open        1004937c     glib-2.0:libglib-2.0-0.dll
 0002:00000380       __imp__g_list_first        10049380     glib-2.0:libglib-2.0-0.dll
 0002:00000384       __imp__g_list_foreach      10049384     glib-2.0:libglib-2.0-0.dll
 0002:00000388       \177libglib-2.0-0_NULL_THUNK_DATA 10049388     glib-2.0:libglib-2.0-0.dll
 0002:0000038c       __imp__g_object_unref      1004938c     gobject-2.0:libgobject-2.0-0.dll
 0002:00000390       \177libgobject-2.0-0_NULL_THUNK_DATA 10049390     gobject-2.0:libgobject-2.0-0.dll
 0002:00000394       __imp__pango_font_description_set_family_static 10049394     pango-1.0:libpango-1.0-0.dll
 0002:00000398       __imp__pango_font_description_set_stretch 10049398     pango-1.0:libpango-1.0-0.dll
 0002:0000039c       __imp__pango_font_metrics_get_ascent 1004939c     pango-1.0:libpango-1.0-0.dll
 0002:000003a0       __imp__pango_layout_get_line 100493a0     pango-1.0:libpango-1.0-0.dll
 0002:000003a4       __imp__pango_layout_set_text 100493a4     pango-1.0:libpango-1.0-0.dll
 0002:000003a8       __imp__pango_layout_get_baseline 100493a8     pango-1.0:libpango-1.0-0.dll
 0002:000003ac       __imp__pango_font_metrics_unref 100493ac     pango-1.0:libpango-1.0-0.dll
 0002:000003b0       __imp__pango_context_get_language 100493b0     pango-1.0:libpango-1.0-0.dll
 0002:000003b4       __imp__pango_font_description_set_absolute_size 100493b4     pango-1.0:libpango-1.0-0.dll
 0002:000003b8       __imp__pango_layout_get_pixel_extents 100493b8     pango-1.0:libpango-1.0-0.dll
 0002:000003bc       __imp__pango_font_description_from_string 100493bc     pango-1.0:libpango-1.0-0.dll
 0002:000003c0       __imp__pango_layout_line_get_extents 100493c0     pango-1.0:libpango-1.0-0.dll
 0002:000003c4       __imp__pango_layout_get_context 100493c4     pango-1.0:libpango-1.0-0.dll
 0002:000003c8       __imp__pango_layout_set_font_description 100493c8     pango-1.0:libpango-1.0-0.dll
 0002:000003cc       __imp__pango_context_get_metrics 100493cc     pango-1.0:libpango-1.0-0.dll
 0002:000003d0       __imp__pango_layout_get_font_description 100493d0     pango-1.0:libpango-1.0-0.dll
 0002:000003d4       __imp__pango_font_description_copy 100493d4     pango-1.0:libpango-1.0-0.dll
 0002:000003d8       __imp__pango_font_description_set_family 100493d8     pango-1.0:libpango-1.0-0.dll
 0002:000003dc       __imp__pango_font_description_get_family 100493dc     pango-1.0:libpango-1.0-0.dll
 0002:000003e0       __imp__pango_font_description_free 100493e0     pango-1.0:libpango-1.0-0.dll
 0002:000003e4       __imp__pango_font_description_new 100493e4     pango-1.0:libpango-1.0-0.dll
 0002:000003e8       __imp__pango_font_description_equal 100493e8     pango-1.0:libpango-1.0-0.dll
 0002:000003ec       __imp__pango_font_description_set_weight 100493ec     pango-1.0:libpango-1.0-0.dll
 0002:000003f0       __imp__pango_font_description_set_style 100493f0     pango-1.0:libpango-1.0-0.dll
 0002:000003f4       __imp__pango_font_description_better_match 100493f4     pango-1.0:libpango-1.0-0.dll
 0002:000003f8       __imp__pango_layout_get_extents 100493f8     pango-1.0:libpango-1.0-0.dll
 0002:000003fc       \177libpango-1.0-0_NULL_THUNK_DATA 100493fc     pango-1.0:libpango-1.0-0.dll
 0002:00000400       __imp__pango_cairo_layout_path 10049400     pangocairo-1.0:libpangocairo-1.0-0.dll
 0002:00000404       __imp__pango_cairo_update_layout 10049404     pangocairo-1.0:libpangocairo-1.0-0.dll
 0002:00000408       __imp__pango_cairo_show_layout 10049408     pangocairo-1.0:libpangocairo-1.0-0.dll
 0002:0000040c       __imp__pango_cairo_create_layout 1004940c     pangocairo-1.0:libpangocairo-1.0-0.dll
 0002:00000410       __imp__pango_cairo_font_map_set_default 10049410     pangocairo-1.0:libpangocairo-1.0-0.dll
 0002:00000414       \177libpangocairo-1.0-0_NULL_THUNK_DATA 10049414     pangocairo-1.0:libpangocairo-1.0-0.dll
 0002:00000418       __imp__png_error           10049418     libpng:libpng14-14.dll
 0002:0000041c       __imp__png_write_end       1004941c     libpng:libpng14-14.dll
 0002:00000420       __imp__png_set_filler      10049420     libpng:libpng14-14.dll
 0002:00000424       __imp__png_create_info_struct 10049424     libpng:libpng14-14.dll
 0002:00000428       __imp__png_set_write_fn    10049428     libpng:libpng14-14.dll
 0002:0000042c       __imp__png_set_IHDR        1004942c     libpng:libpng14-14.dll
 0002:00000430       __imp__png_set_compression_level 10049430     libpng:libpng14-14.dll
 0002:00000434       __imp__png_data_freer      10049434     libpng:libpng14-14.dll
 0002:00000438       __imp__png_create_write_struct_2 10049438     libpng:libpng14-14.dll
 0002:0000043c       __imp__png_set_PLTE        1004943c     libpng:libpng14-14.dll
 0002:00000440       __imp__png_set_packing     10049440     libpng:libpng14-14.dll
 0002:00000444       __imp__png_get_error_ptr   10049444     libpng:libpng14-14.dll
 0002:00000448       __imp__png_write_image     10049448     libpng:libpng14-14.dll
 0002:0000044c       __imp__png_set_packswap    1004944c     libpng:libpng14-14.dll
 0002:00000450       __imp__png_write_info      10049450     libpng:libpng14-14.dll
 0002:00000454       __imp__png_get_io_ptr      10049454     libpng:libpng14-14.dll
 0002:00000458       __imp__png_malloc          10049458     libpng:libpng14-14.dll
 0002:0000045c       __imp__png_set_longjmp_fn  1004945c     libpng:libpng14-14.dll
 0002:00000460       __imp__png_set_pHYs        10049460     libpng:libpng14-14.dll
 0002:00000464       __imp__png_set_tRNS        10049464     libpng:libpng14-14.dll
 0002:00000468       __imp__png_set_write_user_transform_fn 10049468     libpng:libpng14-14.dll
 0002:0000046c       __imp__png_set_bKGD        1004946c     libpng:libpng14-14.dll
 0002:00000470       __imp__png_destroy_write_struct 10049470     libpng:libpng14-14.dll
 0002:00000474       __imp__png_set_filter      10049474     libpng:libpng14-14.dll
 0002:00000478       \177libpng14-14_NULL_THUNK_DATA 10049478     libpng:libpng14-14.dll
 0002:0000047c       ___guard_check_icall_fptr  1004947c     LIBCMT:guard_support.obj
 0002:00000480       ___xc_a                    10049480     LIBCMT:initializers.obj
 0002:00000498       __register_canvas_         10049498     init.obj
 0002:000004d0       ___xc_z                    100494d0     LIBCMT:initializers.obj
 0002:000004d4       ___xi_a                    100494d4     LIBCMT:initializers.obj
 0002:000004dc       ___acrt_stdio_initializer  100494dc     libucrt:stdio_initializer.obj
 0002:000004e0       ___acrt_tran_sse2_initializer 100494e0     libucrt:sse2_initializer.obj
 0002:000004e4       ___acrt_timeset_initializer 100494e4     libucrt:timeset_initializer.obj
 0002:000004e8       ___acrt_multibyte_initializer 100494e8     libucrt:multibyte_initializer.obj
 0002:000004ec       ___xi_z                    100494ec     LIBCMT:initializers.obj
 0002:000004f0       ___xp_a                    100494f0     LIBCMT:initializers.obj
 0002:000004f4       ___acrt_locale_terminator  100494f4     libucrt:locale_initializer.obj
 0002:000004f8       ___dcrt_console_output_terminator 100494f8     libucrt:console_output_initializer.obj
 0002:000004fc       ___acrt_stdio_terminator   100494fc     libucrt:stdio_initializer.obj
 0002:00000500       ___xp_z                    10049500     LIBCMT:initializers.obj
 0002:00000504       ___xt_a                    10049504     LIBCMT:initializers.obj
 0002:00000508       ___xt_z                    10049508     LIBCMT:initializers.obj
 0002:00000510       __sz_node_exe              10049510     node:node.exe
 0002:00000520       ??_7exception@std@@6B@     10049520     libcpmt:xthrow.obj
 0002:00000528       ??_C@_0BC@EOODALEL@Unknown?5exception@ 10049528     libcpmt:xthrow.obj
 0002:00000540       ??_7bad_alloc@std@@6B@     10049540     libcpmt:xthrow.obj
 0002:00000548       ??_C@_0P@GHFPNOJB@bad?5allocation@ 10049548     libcpmt:xthrow.obj
 0002:0000055c       ??_7logic_error@std@@6B@   1004955c     libcpmt:xthrow.obj
 0002:00000568       ??_7length_error@std@@6B@  10049568     libcpmt:xthrow.obj
 0002:00000574       ??_7runtime_error@std@@6B@ 10049574     libcpmt:xthrow.obj
 0002:00000580       ??_7bad_function_call@std@@6B@ 10049580     libcpmt:xthrow.obj
 0002:00000588       ??_C@_0BC@DPJNKNAF@bad?5function?5call@ 10049588     libcpmt:xthrow.obj
 0002:000005a0       ??_7_System_error@std@@6B@ 100495a0     libcpmt:xonce.obj
 0002:000005a8       ??_C@_0O@BFJCFAAK@unknown?5error@ 100495a8     libcpmt:xonce.obj
 0002:000005bc       ??_7_Facet_base@std@@6B@   100495bc     libcpmt:locale0.obj
 0002:000005cc       ??_7_Locimp@locale@std@@6B@ 100495cc     libcpmt:locale0.obj
 0002:000005d8       ??_C@_01NBENCBCI@?$CK@     100495d8     libcpmt:locale0.obj
 0002:000005dc       ??_C@_01GFHCPBMG@C@        100495dc     libcpmt:locale0.obj
 0002:000005e0       ?_BADOFF@std@@3_JB         100495e0     libcpmt:ios.obj
 0002:00000ac0       ??_C@_0BN@LKKBCCDB@address?5family?5not?5supported@ 10049ac0     libcpmt:syserror.obj
 0002:00000ae0       ??_C@_0P@LDMLAFHI@address?5in?5use@ 10049ae0     libcpmt:syserror.obj
 0002:00000af0       ??_C@_0BG@DHPCNBJB@address?5not?5available@ 10049af0     libcpmt:syserror.obj
 0002:00000b08       ??_C@_0BC@DFIBIBIL@already?5connected@ 10049b08     libcpmt:syserror.obj
 0002:00000b1c       ??_C@_0BH@CAKOHOMI@argument?5list?5too?5long@ 10049b1c     libcpmt:syserror.obj
 0002:00000b34       ??_C@_0BH@CGIMPKIM@argument?5out?5of?5domain@ 10049b34     libcpmt:syserror.obj
 0002:00000b4c       ??_C@_0M@KGHGGJGL@bad?5address@ 10049b4c     libcpmt:syserror.obj
 0002:00000b58       ??_C@_0BE@MPJPGCEO@bad?5file?5descriptor@ 10049b58     libcpmt:syserror.obj
 0002:00000b6c       ??_C@_0M@PMMIEFCP@bad?5message@ 10049b6c     libcpmt:syserror.obj
 0002:00000b78       ??_C@_0M@KPHOFDBE@broken?5pipe@ 10049b78     libcpmt:syserror.obj
 0002:00000b84       ??_C@_0BD@MGNDDEGM@connection?5aborted@ 10049b84     libcpmt:syserror.obj
 0002:00000b98       ??_C@_0BP@KAIHPOGN@connection?5already?5in?5progress@ 10049b98     libcpmt:syserror.obj
 0002:00000bb8       ??_C@_0BD@PJLIIJEL@connection?5refused@ 10049bb8     libcpmt:syserror.obj
 0002:00000bcc       ??_C@_0BB@IECNJNOI@connection?5reset@ 10049bcc     libcpmt:syserror.obj
 0002:00000be0       ??_C@_0BC@PPHBOELF@cross?5device?5link@ 10049be0     libcpmt:syserror.obj
 0002:00000bf4       ??_C@_0BN@KDMIFEIP@destination?5address?5required@ 10049bf4     libcpmt:syserror.obj
 0002:00000c14       ??_C@_0BI@NGCEHDD@device?5or?5resource?5busy@ 10049c14     libcpmt:syserror.obj
 0002:00000c2c       ??_C@_0BE@JIDOCPHM@directory?5not?5empty@ 10049c2c     libcpmt:syserror.obj
 0002:00000c40       ??_C@_0BI@BNCLIGPB@executable?5format?5error@ 10049c40     libcpmt:syserror.obj
 0002:00000c58       ??_C@_0M@MIDIAGJP@file?5exists@ 10049c58     libcpmt:syserror.obj
 0002:00000c64       ??_C@_0P@DNAJLBJK@file?5too?5large@ 10049c64     libcpmt:syserror.obj
 0002:00000c74       ??_C@_0BC@EJHOMAAK@filename?5too?5long@ 10049c74     libcpmt:syserror.obj
 0002:00000c88       ??_C@_0BH@KEFGLDAF@function?5not?5supported@ 10049c88     libcpmt:syserror.obj
 0002:00000ca0       ??_C@_0BB@DHFDFGDM@host?5unreachable@ 10049ca0     libcpmt:syserror.obj
 0002:00000cb4       ??_C@_0BD@JPHBMONG@identifier?5removed@ 10049cb4     libcpmt:syserror.obj
 0002:00000cc8       ??_C@_0BG@CDNPAGJK@illegal?5byte?5sequence@ 10049cc8     libcpmt:syserror.obj
 0002:00000ce0       ??_C@_0CD@BNPLBMNA@inappropriate?5io?5control?5operat@ 10049ce0     libcpmt:syserror.obj
 0002:00000d04       ??_C@_0M@EGEKIIMP@interrupted@ 10049d04     libcpmt:syserror.obj
 0002:00000d10       ??_C@_0BB@FCMFBGOM@invalid?5argument@ 10049d10     libcpmt:syserror.obj
 0002:00000d24       ??_C@_0N@OHAFKDEK@invalid?5seek@ 10049d24     libcpmt:syserror.obj
 0002:00000d34       ??_C@_08GLNPIFBN@io?5error@ 10049d34     libcpmt:syserror.obj
 0002:00000d40       ??_C@_0P@FLLDBIDK@is?5a?5directory@ 10049d40     libcpmt:syserror.obj
 0002:00000d50       ??_C@_0N@IFLPBIOP@message?5size@ 10049d50     libcpmt:syserror.obj
 0002:00000d60       ??_C@_0N@KIIEAAIO@network?5down@ 10049d60     libcpmt:syserror.obj
 0002:00000d70       ??_C@_0O@FNPDBHEE@network?5reset@ 10049d70     libcpmt:syserror.obj
 0002:00000d80       ??_C@_0BE@IFNCKGE@network?5unreachable@ 10049d80     libcpmt:syserror.obj
 0002:00000d94       ??_C@_0BA@PFFCAOFK@no?5buffer?5space@ 10049d94     libcpmt:syserror.obj
 0002:00000da4       ??_C@_0BB@IEPBLJHK@no?5child?5process@ 10049da4     libcpmt:syserror.obj
 0002:00000db8       ??_C@_07PLECNNKG@no?5link@ 10049db8     libcpmt:syserror.obj
 0002:00000dc0       ??_C@_0BC@NJECKMKE@no?5lock?5available@ 10049dc0     libcpmt:syserror.obj
 0002:00000dd4       ??_C@_0BF@PBGGPKKE@no?5message?5available@ 10049dd4     libcpmt:syserror.obj
 0002:00000dec       ??_C@_0L@EDOLMPAK@no?5message@ 10049dec     libcpmt:syserror.obj
 0002:00000df8       ??_C@_0BD@EAMBFIDF@no?5protocol?5option@ 10049df8     libcpmt:syserror.obj
 0002:00000e0c       ??_C@_0BD@IJDJKDEA@no?5space?5on?5device@ 10049e0c     libcpmt:syserror.obj
 0002:00000e20       ??_C@_0BE@MKFDAFMP@no?5stream?5resources@ 10049e20     libcpmt:syserror.obj
 0002:00000e34       ??_C@_0BK@IMCPHCBI@no?5such?5device?5or?5address@ 10049e34     libcpmt:syserror.obj
 0002:00000e50       ??_C@_0P@FDINDDOK@no?5such?5device@ 10049e50     libcpmt:syserror.obj
 0002:00000e60       ??_C@_0BK@NDOCBPGE@no?5such?5file?5or?5directory@ 10049e60     libcpmt:syserror.obj
 0002:00000e7c       ??_C@_0BA@ENLPPKBN@no?5such?5process@ 10049e7c     libcpmt:syserror.obj
 0002:00000e8c       ??_C@_0BA@DOCPFFJG@not?5a?5directory@ 10049e8c     libcpmt:syserror.obj
 0002:00000e9c       ??_C@_0N@POEIPGGF@not?5a?5socket@ 10049e9c     libcpmt:syserror.obj
 0002:00000eac       ??_C@_0N@LGAPMMPI@not?5a?5stream@ 10049eac     libcpmt:syserror.obj
 0002:00000ebc       ??_C@_0O@GLMIBBEG@not?5connected@ 10049ebc     libcpmt:syserror.obj
 0002:00000ecc       ??_C@_0BC@ENOOLCNF@not?5enough?5memory@ 10049ecc     libcpmt:syserror.obj
 0002:00000ee0       ??_C@_0O@NHEDABJP@not?5supported@ 10049ee0     libcpmt:syserror.obj
 0002:00000ef0       ??_C@_0BD@MOLBPMEA@operation?5canceled@ 10049ef0     libcpmt:syserror.obj
 0002:00000f04       ??_C@_0BG@KDKHOPCO@operation?5in?5progress@ 10049f04     libcpmt:syserror.obj
 0002:00000f1c       ??_C@_0BI@OHIEJAAB@operation?5not?5permitted@ 10049f1c     libcpmt:syserror.obj
 0002:00000f34       ??_C@_0BI@LNEGIFLN@operation?5not?5supported@ 10049f34     libcpmt:syserror.obj
 0002:00000f4c       ??_C@_0BG@OEMDKMEE@operation?5would?5block@ 10049f4c     libcpmt:syserror.obj
 0002:00000f64       ??_C@_0L@BLPOFLNJ@owner?5dead@ 10049f64     libcpmt:syserror.obj
 0002:00000f70       ??_C@_0BC@CIJDGCDI@permission?5denied@ 10049f70     libcpmt:syserror.obj
 0002:00000f84       ??_C@_0P@FNPOCJBE@protocol?5error@ 10049f84     libcpmt:syserror.obj
 0002:00000f94       ??_C@_0BH@JPPPLHJB@protocol?5not?5supported@ 10049f94     libcpmt:syserror.obj
 0002:00000fac       ??_C@_0BG@EICBIHDP@read?5only?5file?5system@ 10049fac     libcpmt:syserror.obj
 0002:00000fc4       ??_C@_0BO@BJBOMOEJ@resource?5deadlock?5would?5occur@ 10049fc4     libcpmt:syserror.obj
 0002:00000fe4       ??_C@_0BP@LKNGHENJ@resource?5unavailable?5try?5again@ 10049fe4     libcpmt:syserror.obj
 0002:00001004       ??_C@_0BE@GOIPJJHG@result?5out?5of?5range@ 1004a004     libcpmt:syserror.obj
 0002:00001018       ??_C@_0BG@MPLKFPAE@state?5not?5recoverable@ 1004a018     libcpmt:syserror.obj
 0002:00001030       ??_C@_0P@DIIFGFCG@stream?5timeout@ 1004a030     libcpmt:syserror.obj
 0002:00001040       ??_C@_0P@IPFDMIFL@text?5file?5busy@ 1004a040     libcpmt:syserror.obj
 0002:00001050       ??_C@_09KJPPMAOI@timed?5out@ 1004a050     libcpmt:syserror.obj
 0002:0000105c       ??_C@_0BO@HACHBEKI@too?5many?5files?5open?5in?5system@ 1004a05c     libcpmt:syserror.obj
 0002:0000107c       ??_C@_0BE@GHAFMPAH@too?5many?5files?5open@ 1004a07c     libcpmt:syserror.obj
 0002:00001090       ??_C@_0P@HCOMKFCC@too?5many?5links@ 1004a090     libcpmt:syserror.obj
 0002:000010a0       ??_C@_0BO@EFGOJEF@too?5many?5symbolic?5link?5levels@ 1004a0a0     libcpmt:syserror.obj
 0002:000010c0       ??_C@_0BA@KGKGOOJA@value?5too?5large@ 1004a0c0     libcpmt:syserror.obj
 0002:000010d0       ??_C@_0BE@MIEJDDNH@wrong?5protocol?5type@ 1004a0d0     libcpmt:syserror.obj
 0002:000010e4       ??_C@_1BK@MGMFAEKH@?$AAk?$AAe?$AAr?$AAn?$AAe?$AAl?$AA3?$AA2?$AA?4?$AAd?$AAl?$AAl@ 1004a0e4     libcpmt:winapisupp.obj
 0002:00001100       ??_C@_08KNHFBNJ@FlsAlloc@  1004a100     libcpmt:winapisupp.obj
 0002:0000110c       ??_C@_07PEJMOBNF@FlsFree@  1004a10c     libcpmt:winapisupp.obj
 0002:00001114       ??_C@_0M@GDNOONDI@FlsGetValue@ 1004a114     libcpmt:winapisupp.obj
 0002:00001120       ??_C@_0M@JCPCPOEF@FlsSetValue@ 1004a120     libcpmt:winapisupp.obj
 0002:0000112c       ??_C@_0BM@HCFOFFN@InitializeCriticalSectionEx@ 1004a12c     libcpmt:winapisupp.obj
 0002:00001148       ??_C@_0BE@GPLMMCMH@InitOnceExecuteOnce@ 1004a148     libcpmt:winapisupp.obj
 0002:0000115c       ??_C@_0P@DLHPPCNH@CreateEventExW@ 1004a15c     libcpmt:winapisupp.obj
 0002:0000116c       ??_C@_0BB@MEFPJLHN@CreateSemaphoreW@ 1004a16c     libcpmt:winapisupp.obj
 0002:00001180       ??_C@_0BD@KIEEOEEH@CreateSemaphoreExW@ 1004a180     libcpmt:winapisupp.obj
 0002:00001194       ??_C@_0BG@OGFAJCKC@CreateThreadpoolTimer@ 1004a194     libcpmt:winapisupp.obj
 0002:000011ac       ??_C@_0BD@LPLEMMDI@SetThreadpoolTimer@ 1004a1ac     libcpmt:winapisupp.obj
 0002:000011c0       ??_C@_0CA@FMNJENH@WaitForThreadpoolTimerCallbacks@ 1004a1c0     libcpmt:winapisupp.obj
 0002:000011e0       ??_C@_0BF@DCFCCNOC@CloseThreadpoolTimer@ 1004a1e0     libcpmt:winapisupp.obj
 0002:000011f8       ??_C@_0BF@FLABGKKM@CreateThreadpoolWait@ 1004a1f8     libcpmt:winapisupp.obj
 0002:00001210       ??_C@_0BC@MGCOHNA@SetThreadpoolWait@ 1004a210     libcpmt:winapisupp.obj
 0002:00001224       ??_C@_0BE@OCIOMIMP@CloseThreadpoolWait@ 1004a224     libcpmt:winapisupp.obj
 0002:00001238       ??_C@_0BJ@LKGHFHBO@FlushProcessWriteBuffers@ 1004a238     libcpmt:winapisupp.obj
 0002:00001254       ??_C@_0BP@KALKKPMO@FreeLibraryWhenCallbackReturns@ 1004a254     libcpmt:winapisupp.obj
 0002:00001274       ??_C@_0BK@DFNBACLA@GetCurrentProcessorNumber@ 1004a274     libcpmt:winapisupp.obj
 0002:00001290       ??_C@_0BE@FKKLLFLM@CreateSymbolicLinkW@ 1004a290     libcpmt:winapisupp.obj
 0002:000012a4       ??_C@_0BE@JOGNEJCI@GetCurrentPackageId@ 1004a2a4     libcpmt:winapisupp.obj
 0002:000012b8       ??_C@_0P@CDHHOHKP@GetTickCount64@ 1004a2b8     libcpmt:winapisupp.obj
 0002:000012c8       ??_C@_0BN@NEEHBBPO@GetFileInformationByHandleEx@ 1004a2c8     libcpmt:winapisupp.obj
 0002:000012e8       ??_C@_0BL@KBBHGKCM@SetFileInformationByHandle@ 1004a2e8     libcpmt:winapisupp.obj
 0002:00001304       ??_C@_0BP@FPNJPEJC@GetSystemTimePreciseAsFileTime@ 1004a304     libcpmt:winapisupp.obj
 0002:00001324       ??_C@_0BM@HLJJNPAH@InitializeConditionVariable@ 1004a324     libcpmt:winapisupp.obj
 0002:00001340       ??_C@_0BG@BFNILBLN@WakeConditionVariable@ 1004a340     libcpmt:winapisupp.obj
 0002:00001358       ??_C@_0BJ@PGPPEPCC@WakeAllConditionVariable@ 1004a358     libcpmt:winapisupp.obj
 0002:00001374       ??_C@_0BJ@JEBJOJFJ@SleepConditionVariableCS@ 1004a374     libcpmt:winapisupp.obj
 0002:00001390       ??_C@_0BC@MMLHEBPB@InitializeSRWLock@ 1004a390     libcpmt:winapisupp.obj
 0002:000013a4       ??_C@_0BI@OMNLIJDB@AcquireSRWLockExclusive@ 1004a3a4     libcpmt:winapisupp.obj
 0002:000013bc       ??_C@_0BL@OGHFEMNA@TryAcquireSRWLockExclusive@ 1004a3bc     libcpmt:winapisupp.obj
 0002:000013d8       ??_C@_0BI@HMIEPCNJ@ReleaseSRWLockExclusive@ 1004a3d8     libcpmt:winapisupp.obj
 0002:000013f0       ??_C@_0BK@LGACAGIC@SleepConditionVariableSRW@ 1004a3f0     libcpmt:winapisupp.obj
 0002:0000140c       ??_C@_0BF@GGPHFPJA@CreateThreadpoolWork@ 1004a40c     libcpmt:winapisupp.obj
 0002:00001424       ??_C@_0BF@NHDAIMMO@SubmitThreadpoolWork@ 1004a424     libcpmt:winapisupp.obj
 0002:0000143c       ??_C@_0BE@NPHIPNPD@CloseThreadpoolWork@ 1004a43c     libcpmt:winapisupp.obj
 0002:00001450       ??_C@_0BA@IHGNDAEB@CompareStringEx@ 1004a450     libcpmt:winapisupp.obj
 0002:00001460       ??_C@_0BA@ONOKGCMP@GetLocaleInfoEx@ 1004a460     libcpmt:winapisupp.obj
 0002:00001470       ??_C@_0O@KKBNKAPF@LCMapStringEx@ 1004a470     libcpmt:winapisupp.obj
 0002:00001484       ??_7?$ctype@D@std@@6B@     1004a484     libcpmt:locale.obj
 0002:000014b0       ??_C@_11LOCGONAA@@         1004a4b0     libcpmt:wlocale.obj
 0002:000014b4       ??_C@_01JOAMLHOP@?9@       1004a4b4     libcpmt:wlocale.obj
 0002:00002398       ??_C@_15EMKDOKLE@?$AAa?$AAr@ 1004b398     libcpmt:winapinls.obj
 0002:000023a0       ??_C@_15KNPADPLH@?$AAb?$AAg@ 1004b3a0     libcpmt:winapinls.obj
 0002:000023a8       ??_C@_15EDMHLDMO@?$AAc?$AAa@ 1004b3a8     libcpmt:winapinls.obj
 0002:000023b0       ??_C@_1O@BPEAJADD@?$AAz?$AAh?$AA?9?$AAC?$AAH?$AAS@ 1004b3b0     libcpmt:winapinls.obj
 0002:000023c0       ??_C@_15LJNHCMNK@?$AAc?$AAs@ 1004b3c0     libcpmt:winapinls.obj
 0002:000023c8       ??_C@_15FOMCIDHG@?$AAd?$AAa@ 1004b3c8     libcpmt:winapinls.obj
 0002:000023d0       ??_C@_15NBKABECB@?$AAd?$AAe@ 1004b3d0     libcpmt:winapinls.obj
 0002:000023d8       ??_C@_15GHPEIIAO@?$AAe?$AAl@ 1004b3d8     libcpmt:winapinls.obj
 0002:000023e0       ??_C@_15MNPNEAIF@?$AAe?$AAn@ 1004b3e0     libcpmt:winapinls.obj
 0002:000023e8       ??_C@_15GPIOMPMH@?$AAe?$AAs@ 1004b3e8     libcpmt:winapinls.obj
 0002:000023f0       ??_C@_15NGLOAKJC@?$AAf?$AAi@ 1004b3f0     libcpmt:winapinls.obj
 0002:000023f8       ??_C@_15FBKGNKAM@?$AAf?$AAr@ 1004b3f8     libcpmt:winapinls.obj
 0002:00002400       ??_C@_15KGGCNEFK@?$AAh?$AAe@ 1004b400     libcpmt:winapinls.obj
 0002:00002408       ??_C@_15PGHLIDMF@?$AAh?$AAu@ 1004b408     libcpmt:winapinls.obj
 0002:00002410       ??_C@_15BIEMAPLM@?$AAi?$AAs@ 1004b410     libcpmt:winapinls.obj
 0002:00002418       ??_C@_15IFJLDHAF@?$AAi?$AAt@ 1004b418     libcpmt:winapinls.obj
 0002:00002420       ??_C@_15GEMIOCAG@?$AAj?$AAa@ 1004b420     libcpmt:winapinls.obj
 0002:00002428       ??_C@_15EPELEGJA@?$AAk?$AAo@ 1004b428     libcpmt:winapinls.obj
 0002:00002430       ??_C@_15NDDHIMN@?$AAn?$AAl@ 1004b430     libcpmt:winapinls.obj
 0002:00002438       ??_C@_15BPIGNHCD@?$AAn?$AAo@ 1004b438     libcpmt:winapinls.obj
 0002:00002440       ??_C@_15DEOPBLCG@?$AAp?$AAl@ 1004b440     libcpmt:winapinls.obj
 0002:00002448       ??_C@_15KBECGEFG@?$AAp?$AAt@ 1004b448     libcpmt:winapinls.obj
 0002:00002450       ??_C@_15GLJCBFMD@?$AAr?$AAo@ 1004b450     libcpmt:winapinls.obj
 0002:00002458       ??_C@_15FEDGKCDI@?$AAr?$AAu@ 1004b458     libcpmt:winapinls.obj
 0002:00002460       ??_C@_15GLKMLLHM@?$AAh?$AAr@ 1004b460     libcpmt:winapinls.obj
 0002:00002468       ??_C@_15CPKMFBDB@?$AAs?$AAk@ 1004b468     libcpmt:winapinls.obj
 0002:00002470       ??_C@_15BAAIOGMK@?$AAs?$AAq@ 1004b470     libcpmt:winapinls.obj
 0002:00002478       ??_C@_15INNPNOHD@?$AAs?$AAv@ 1004b478     libcpmt:winapinls.obj
 0002:00002480       ??_C@_15CABMMOGH@?$AAt?$AAh@ 1004b480     libcpmt:winapinls.obj
 0002:00002488       ??_C@_15BPLIHJJM@?$AAt?$AAr@ 1004b488     libcpmt:winapinls.obj
 0002:00002490       ??_C@_15NEOEKKDJ@?$AAu?$AAr@ 1004b490     libcpmt:winapinls.obj
 0002:00002498       ??_C@_15NFICGAJK@?$AAi?$AAd@ 1004b498     libcpmt:winapinls.obj
 0002:000024a0       ??_C@_15PJPFLCCM@?$AAu?$AAk@ 1004b4a0     libcpmt:winapinls.obj
 0002:000024a8       ??_C@_15HPJPHDM@?$AAb?$AAe@ 1004b4a8     libcpmt:winapinls.obj
 0002:000024b0       ??_C@_15LCHLGJII@?$AAs?$AAl@ 1004b4b0     libcpmt:winapinls.obj
 0002:000024b8       ??_C@_15PCFJPHHO@?$AAe?$AAt@ 1004b4b8     libcpmt:winapinls.obj
 0002:000024c0       ??_C@_15HPFPGODN@?$AAl?$AAv@ 1004b4c0     libcpmt:winapinls.obj
 0002:000024c8       ??_C@_15NFFGKGLG@?$AAl?$AAt@ 1004b4c8     libcpmt:winapinls.obj
 0002:000024d0       ??_C@_15BDAKCCHN@?$AAf?$AAa@ 1004b4d0     libcpmt:winapinls.obj
 0002:000024d8       ??_C@_15NFGIAIAJ@?$AAv?$AAi@ 1004b4d8     libcpmt:winapinls.obj
 0002:000024e0       ??_C@_15LMKNDMHN@?$AAh?$AAy@ 1004b4e0     libcpmt:winapinls.obj
 0002:000024e8       ??_C@_15IJBHMCFL@?$AAa?$AAz@ 1004b4e8     libcpmt:winapinls.obj
 0002:000024f0       ??_C@_15EKOFJABL@?$AAe?$AAu@ 1004b4f0     libcpmt:winapinls.obj
 0002:000024f8       ??_C@_15BGHADCNK@?$AAm?$AAk@ 1004b4f8     libcpmt:winapinls.obj
 0002:00002500       ??_C@_15JDNICKHM@?$AAa?$AAf@ 1004b500     libcpmt:winapinls.obj
 0002:00002508       ??_C@_15KPJEDBKD@?$AAk?$AAa@ 1004b508     libcpmt:winapinls.obj
 0002:00002510       ??_C@_15PDNFFFEO@?$AAf?$AAo@ 1004b510     libcpmt:winapinls.obj
 0002:00002518       ??_C@_15OMLEGLOC@?$AAh?$AAi@ 1004b518     libcpmt:winapinls.obj
 0002:00002520       ??_C@_15IDNNENKK@?$AAm?$AAs@ 1004b520     libcpmt:winapinls.obj
 0002:00002528       ??_C@_15MACJNBMH@?$AAk?$AAk@ 1004b528     libcpmt:winapinls.obj
 0002:00002530       ??_C@_15DKDJEOND@?$AAk?$AAy@ 1004b530     libcpmt:winapinls.obj
 0002:00002538       ??_C@_15DFGDLJBG@?$AAs?$AAw@ 1004b538     libcpmt:winapinls.obj
 0002:00002540       ??_C@_15BBFAICNG@?$AAu?$AAz@ 1004b540     libcpmt:winapinls.obj
 0002:00002548       ??_C@_15DKNDCGEA@?$AAt?$AAt@ 1004b548     libcpmt:winapinls.obj
 0002:00002550       ??_C@_15MGIFMDPL@?$AAp?$AAa@ 1004b550     libcpmt:winapinls.obj
 0002:00002558       ??_C@_15HCNDBBA@?$AAg?$AAu@ 1004b558     libcpmt:winapinls.obj
 0002:00002560       ??_C@_15FNBEIBON@?$AAt?$AAa@ 1004b560     libcpmt:winapinls.obj
 0002:00002568       ??_C@_15NCHGBGLK@?$AAt?$AAe@ 1004b568     libcpmt:winapinls.obj
 0002:00002570       ??_C@_15PHPHCBPF@?$AAk?$AAn@ 1004b570     libcpmt:winapinls.obj
 0002:00002578       ??_C@_15DLGBCKMP@?$AAm?$AAr@ 1004b578     libcpmt:winapinls.obj
 0002:00002580       ??_C@_15EABBLBFF@?$AAs?$AAa@ 1004b580     libcpmt:winapinls.obj
 0002:00002588       ??_C@_15CBKOMCOI@?$AAm?$AAn@ 1004b588     libcpmt:winapinls.obj
 0002:00002590       ??_C@_15CKDMCJAF@?$AAg?$AAl@ 1004b590     libcpmt:winapinls.obj
 0002:00002598       ??_C@_17CNJFBPG@?$AAk?$AAo?$AAk@ 1004b598     libcpmt:winapinls.obj
 0002:000025a0       ??_C@_17FFBJICPL@?$AAs?$AAy?$AAr@ 1004b5a0     libcpmt:winapinls.obj
 0002:000025a8       ??_C@_17KPNDCPAF@?$AAd?$AAi?$AAv@ 1004b5a8     libcpmt:winapinls.obj
 0002:000025b0       ??_C@_1M@OKAHONE@?$AAa?$AAr?$AA?9?$AAS?$AAA@ 1004b5b0     libcpmt:winapinls.obj
 0002:000025bc       ??_C@_1M@FFFIGIGK@?$AAb?$AAg?$AA?9?$AAB?$AAG@ 1004b5bc     libcpmt:winapinls.obj
 0002:000025c8       ??_C@_1M@BJNKEDC@?$AAc?$AAa?$AA?9?$AAE?$AAS@ 1004b5c8     libcpmt:winapinls.obj
 0002:000025d4       ??_C@_1M@CLNBBOPM@?$AAz?$AAh?$AA?9?$AAT?$AAW@ 1004b5d4     libcpmt:winapinls.obj
 0002:000025e0       ??_C@_1M@IJJHFJHA@?$AAc?$AAs?$AA?9?$AAC?$AAZ@ 1004b5e0     libcpmt:winapinls.obj
 0002:000025ec       ??_C@_1M@CLPEOBGI@?$AAd?$AAa?$AA?9?$AAD?$AAK@ 1004b5ec     libcpmt:winapinls.obj
 0002:000025f8       ??_C@_1M@MCMADGCB@?$AAd?$AAe?$AA?9?$AAD?$AAE@ 1004b5f8     libcpmt:winapinls.obj
 0002:00002604       ??_C@_1M@OOCKEMAM@?$AAe?$AAl?$AA?9?$AAG?$AAR@ 1004b604     libcpmt:winapinls.obj
 0002:00002610       ??_C@_1M@BMHNFIME@?$AAe?$AAn?$AA?9?$AAU?$AAS@ 1004b610     libcpmt:winapinls.obj
 0002:0000261c       ??_C@_1M@DDNJFGID@?$AAf?$AAi?$AA?9?$AAF?$AAI@ 1004b61c     libcpmt:winapinls.obj
 0002:00002628       ??_C@_1M@GLIPPMAC@?$AAf?$AAr?$AA?9?$AAF?$AAR@ 1004b628     libcpmt:winapinls.obj
 0002:00002634       ??_C@_1M@GFMCHPE@?$AAh?$AAe?$AA?9?$AAI?$AAL@ 1004b634     libcpmt:winapinls.obj
 0002:00002640       ??_C@_1M@MHLPGNKM@?$AAh?$AAu?$AA?9?$AAH?$AAU@ 1004b640     libcpmt:winapinls.obj
 0002:0000264c       ??_C@_1M@LPDDNNPN@?$AAi?$AAs?$AA?9?$AAI?$AAS@ 1004b64c     libcpmt:winapinls.obj
 0002:00002658       ??_C@_1M@MADIPODN@?$AAi?$AAt?$AA?9?$AAI?$AAT@ 1004b658     libcpmt:winapinls.obj
 0002:00002664       ??_C@_1M@HPNHIDJI@?$AAj?$AAa?$AA?9?$AAJ?$AAP@ 1004b664     libcpmt:winapinls.obj
 0002:00002670       ??_C@_1M@JLOOOEGK@?$AAk?$AAo?$AA?9?$AAK?$AAR@ 1004b670     libcpmt:winapinls.obj
 0002:0000267c       ??_C@_1M@IHBJJGG@?$AAn?$AAl?$AA?9?$AAN?$AAL@ 1004b67c     libcpmt:winapinls.obj
 0002:00002688       ??_C@_1M@EANAGDL@?$AAn?$AAb?$AA?9?$AAN?$AAO@ 1004b688     libcpmt:winapinls.obj
 0002:00002694       ??_C@_1M@NEIEMEGP@?$AAp?$AAl?$AA?9?$AAP?$AAL@ 1004b694     libcpmt:winapinls.obj
 0002:000026a0       ??_C@_1M@BOCFIGEP@?$AAp?$AAt?$AA?9?$AAB?$AAR@ 1004b6a0     libcpmt:winapinls.obj
 0002:000026ac       ??_C@_1M@IMPFOPBG@?$AAr?$AAo?$AA?9?$AAR?$AAO@ 1004b6ac     libcpmt:winapinls.obj
 0002:000026b8       ??_C@_1M@IDNNEJMM@?$AAr?$AAu?$AA?9?$AAR?$AAU@ 1004b6b8     libcpmt:winapinls.obj
 0002:000026c4       ??_C@_1M@LILEEOGM@?$AAh?$AAr?$AA?9?$AAH?$AAR@ 1004b6c4     libcpmt:winapinls.obj
 0002:000026d0       ??_C@_1M@FKIFEHPB@?$AAs?$AAk?$AA?9?$AAS?$AAK@ 1004b6d0     libcpmt:winapinls.obj
 0002:000026dc       ??_C@_1M@LJMAMNPJ@?$AAs?$AAq?$AA?9?$AAA?$AAL@ 1004b6dc     libcpmt:winapinls.obj
 0002:000026e8       ??_C@_1M@GIAKDKJK@?$AAs?$AAv?$AA?9?$AAS?$AAE@ 1004b6e8     libcpmt:winapinls.obj
 0002:000026f4       ??_C@_1M@MKJKIKCL@?$AAt?$AAh?$AA?9?$AAT?$AAH@ 1004b6f4     libcpmt:winapinls.obj
 0002:00002700       ??_C@_1M@MFLCCMPB@?$AAt?$AAr?$AA?9?$AAT?$AAR@ 1004b700     libcpmt:winapinls.obj
 0002:0000270c       ??_C@_1M@OIJHDKJN@?$AAu?$AAr?$AA?9?$AAP?$AAK@ 1004b70c     libcpmt:winapinls.obj
 0002:00002718       ??_C@_1M@LHIPCIEK@?$AAi?$AAd?$AA?9?$AAI?$AAD@ 1004b718     libcpmt:winapinls.obj
 0002:00002724       ??_C@_1M@MFMOBGI@?$AAu?$AAk?$AA?9?$AAU?$AAA@ 1004b724     libcpmt:winapinls.obj
 0002:00002730       ??_C@_1M@OBGLJIPL@?$AAb?$AAe?$AA?9?$AAB?$AAY@ 1004b730     libcpmt:winapinls.obj
 0002:0000273c       ??_C@_1M@BCFAJEAD@?$AAs?$AAl?$AA?9?$AAS?$AAI@ 1004b73c     libcpmt:winapinls.obj
 0002:00002748       ??_C@_1M@FKFFEDDN@?$AAe?$AAt?$AA?9?$AAE?$AAE@ 1004b748     libcpmt:winapinls.obj
 0002:00002754       ??_C@_1M@KGKKAACI@?$AAl?$AAv?$AA?9?$AAL?$AAV@ 1004b754     libcpmt:winapinls.obj
 0002:00002760       ??_C@_1M@IFGBIJO@?$AAl?$AAt?$AA?9?$AAL?$AAT@ 1004b760     libcpmt:winapinls.obj
 0002:0000276c       ??_C@_1M@FGEAHEDM@?$AAf?$AAa?$AA?9?$AAI?$AAR@ 1004b76c     libcpmt:winapinls.obj
 0002:00002778       ??_C@_1M@KBMAIBFN@?$AAv?$AAi?$AA?9?$AAV?$AAN@ 1004b778     libcpmt:winapinls.obj
 0002:00002784       ??_C@_1M@GPCBKDJK@?$AAh?$AAy?$AA?9?$AAA?$AAM@ 1004b784     libcpmt:winapinls.obj
 0002:00002790       ??_C@_1BG@BECMDDJB@?$AAa?$AAz?$AA?9?$AAA?$AAZ?$AA?9?$AAL?$AAa?$AAt?$AAn@ 1004b790     libcpmt:winapinls.obj
 0002:000027a8       ??_C@_1M@MAOFCAEA@?$AAe?$AAu?$AA?9?$AAE?$AAS@ 1004b7a8     libcpmt:winapinls.obj
 0002:000027b4       ??_C@_1M@IGHABKPI@?$AAm?$AAk?$AA?9?$AAM?$AAK@ 1004b7b4     libcpmt:winapinls.obj
 0002:000027c0       ??_C@_1M@IAIGNEJG@?$AAt?$AAn?$AA?9?$AAZ?$AAA@ 1004b7c0     libcpmt:winapinls.obj
 0002:000027cc       ??_C@_1M@IIJCOJFA@?$AAx?$AAh?$AA?9?$AAZ?$AAA@ 1004b7cc     libcpmt:winapinls.obj
 0002:000027d8       ??_C@_1M@LGPJHNJH@?$AAz?$AAu?$AA?9?$AAZ?$AAA@ 1004b7d8     libcpmt:winapinls.obj
 0002:000027e4       ??_C@_1M@HOKAOIO@?$AAa?$AAf?$AA?9?$AAZ?$AAA@ 1004b7e4     libcpmt:winapinls.obj
 0002:000027f0       ??_C@_1M@DPCLHLIE@?$AAk?$AAa?$AA?9?$AAG?$AAE@ 1004b7f0     libcpmt:winapinls.obj
 0002:000027fc       ??_C@_1M@BLKMHJBI@?$AAf?$AAo?$AA?9?$AAF?$AAO@ 1004b7fc     libcpmt:winapinls.obj
 0002:00002808       ??_C@_1M@LGGJAPPB@?$AAh?$AAi?$AA?9?$AAI?$AAN@ 1004b808     libcpmt:winapinls.obj
 0002:00002814       ??_C@_1M@FIKPIHFE@?$AAm?$AAt?$AA?9?$AAM?$AAT@ 1004b814     libcpmt:winapinls.obj
 0002:00002820       ??_C@_1M@HEGGPBFA@?$AAs?$AAe?$AA?9?$AAN?$AAO@ 1004b820     libcpmt:winapinls.obj
 0002:0000282c       ??_C@_1M@EIBJEEPA@?$AAm?$AAs?$AA?9?$AAM?$AAY@ 1004b82c     libcpmt:winapinls.obj
 0002:00002838       ??_C@_1M@FHLBGMPP@?$AAk?$AAk?$AA?9?$AAK?$AAZ@ 1004b838     libcpmt:winapinls.obj
 0002:00002844       ??_C@_1M@NGJJLCGI@?$AAk?$AAy?$AA?9?$AAK?$AAG@ 1004b844     libcpmt:winapinls.obj
 0002:00002850       ??_C@_1M@GIENNBFC@?$AAs?$AAw?$AA?9?$AAK?$AAE@ 1004b850     libcpmt:winapinls.obj
 0002:0000285c       ??_C@_1BG@NDGMJIMJ@?$AAu?$AAz?$AA?9?$AAU?$AAZ?$AA?9?$AAL?$AAa?$AAt?$AAn@ 1004b85c     libcpmt:winapinls.obj
 0002:00002874       ??_C@_1M@IDCCIHBC@?$AAt?$AAt?$AA?9?$AAR?$AAU@ 1004b874     libcpmt:winapinls.obj
 0002:00002880       ??_C@_1M@LOICPMOJ@?$AAb?$AAn?$AA?9?$AAI?$AAN@ 1004b880     libcpmt:winapinls.obj
 0002:0000288c       ??_C@_1M@KPKKNEAH@?$AAp?$AAa?$AA?9?$AAI?$AAN@ 1004b88c     libcpmt:winapinls.obj
 0002:00002898       ??_C@_1M@PJGPPBOG@?$AAg?$AAu?$AA?9?$AAI?$AAN@ 1004b898     libcpmt:winapinls.obj
 0002:000028a4       ??_C@_1M@KMKMOPHI@?$AAt?$AAa?$AA?9?$AAI?$AAN@ 1004b8a4     libcpmt:winapinls.obj
 0002:000028b0       ??_C@_1M@KFEHEPAC@?$AAt?$AAe?$AA?9?$AAI?$AAN@ 1004b8b0     libcpmt:winapinls.obj
 0002:000028bc       ??_C@_1M@CDCLMGHI@?$AAk?$AAn?$AA?9?$AAI?$AAN@ 1004b8bc     libcpmt:winapinls.obj
 0002:000028c8       ??_C@_1M@MIODLDKF@?$AAm?$AAl?$AA?9?$AAI?$AAN@ 1004b8c8     libcpmt:winapinls.obj
 0002:000028d4       ??_C@_1M@PBIEACPO@?$AAm?$AAr?$AA?9?$AAI?$AAN@ 1004b8d4     libcpmt:winapinls.obj
 0002:000028e0       ??_C@_1M@NIDEAGPH@?$AAs?$AAa?$AA?9?$AAI?$AAN@ 1004b8e0     libcpmt:winapinls.obj
 0002:000028ec       ??_C@_1M@FHIHCBIO@?$AAm?$AAn?$AA?9?$AAM?$AAN@ 1004b8ec     libcpmt:winapinls.obj
 0002:000028f8       ??_C@_1M@JAIJPENP@?$AAc?$AAy?$AA?9?$AAG?$AAB@ 1004b8f8     libcpmt:winapinls.obj
 0002:00002904       ??_C@_1M@PHGFBEPN@?$AAg?$AAl?$AA?9?$AAE?$AAS@ 1004b904     libcpmt:winapinls.obj
 0002:00002910       ??_C@_1O@KPIPDNCP@?$AAk?$AAo?$AAk?$AA?9?$AAI?$AAN@ 1004b910     libcpmt:winapinls.obj
 0002:00002920       ??_C@_1O@KNHJLDJA@?$AAs?$AAy?$AAr?$AA?9?$AAS?$AAY@ 1004b920     libcpmt:winapinls.obj
 0002:00002930       ??_C@_1O@MKEKBLAH@?$AAd?$AAi?$AAv?$AA?9?$AAM?$AAV@ 1004b930     libcpmt:winapinls.obj
 0002:00002940       ??_C@_1O@OHDCKDDF@?$AAq?$AAu?$AAz?$AA?9?$AAB?$AAO@ 1004b940     libcpmt:winapinls.obj
 0002:00002950       ??_C@_1M@LEPJNLFD@?$AAn?$AAs?$AA?9?$AAZ?$AAA@ 1004b950     libcpmt:winapinls.obj
 0002:0000295c       ??_C@_1M@OMLEIIJB@?$AAm?$AAi?$AA?9?$AAN?$AAZ@ 1004b95c     libcpmt:winapinls.obj
 0002:00002968       ??_C@_1M@PMPEAILG@?$AAa?$AAr?$AA?9?$AAI?$AAQ@ 1004b968     libcpmt:winapinls.obj
 0002:00002974       ??_C@_1M@BIBDDEMK@?$AAz?$AAh?$AA?9?$AAC?$AAN@ 1004b974     libcpmt:winapinls.obj
 0002:00002980       ??_C@_1M@CNKPNOEE@?$AAd?$AAe?$AA?9?$AAC?$AAH@ 1004b980     libcpmt:winapinls.obj
 0002:0000298c       ??_C@_1M@LKMGMLKO@?$AAe?$AAn?$AA?9?$AAG?$AAB@ 1004b98c     libcpmt:winapinls.obj
 0002:00002998       ??_C@_1M@PGKJFFGL@?$AAe?$AAs?$AA?9?$AAM?$AAX@ 1004b998     libcpmt:winapinls.obj
 0002:000029a4       ??_C@_1M@DNNANBDC@?$AAf?$AAr?$AA?9?$AAB?$AAE@ 1004b9a4     libcpmt:winapinls.obj
 0002:000029b0       ??_C@_1M@HLGMDFHM@?$AAi?$AAt?$AA?9?$AAC?$AAH@ 1004b9b0     libcpmt:winapinls.obj
 0002:000029bc       ??_C@_1M@CLLBGJH@?$AAn?$AAl?$AA?9?$AAB?$AAE@ 1004b9bc     libcpmt:winapinls.obj
 0002:000029c8       ??_C@_1M@BODBOGLF@?$AAn?$AAn?$AA?9?$AAN?$AAO@ 1004b9c8     libcpmt:winapinls.obj
 0002:000029d4       ??_C@_1M@HFFAHKAD@?$AAp?$AAt?$AA?9?$AAP?$AAT@ 1004b9d4     libcpmt:winapinls.obj
 0002:000029e0       ??_C@_1BG@LNOAKHIE@?$AAs?$AAr?$AA?9?$AAS?$AAP?$AA?9?$AAL?$AAa?$AAt?$AAn@ 1004b9e0     libcpmt:winapinls.obj
 0002:000029f8       ??_C@_1M@HBMHBGAK@?$AAs?$AAv?$AA?9?$AAF?$AAI@ 1004b9f8     libcpmt:winapinls.obj
 0002:00002a04       ??_C@_1BG@DGCJGJBE@?$AAa?$AAz?$AA?9?$AAA?$AAZ?$AA?9?$AAC?$AAy?$AAr?$AAl@ 1004ba04     libcpmt:winapinls.obj
 0002:00002a1c       ??_C@_1M@KEJDAAHB@?$AAs?$AAe?$AA?9?$AAS?$AAE@ 1004ba1c     libcpmt:winapinls.obj
 0002:00002a28       ??_C@_1M@HEIBJJAD@?$AAm?$AAs?$AA?9?$AAB?$AAN@ 1004ba28     libcpmt:winapinls.obj
 0002:00002a34       ??_C@_1BG@PBGJMCEM@?$AAu?$AAz?$AA?9?$AAU?$AAZ?$AA?9?$AAC?$AAy?$AAr?$AAl@ 1004ba34     libcpmt:winapinls.obj
 0002:00002a4c       ??_C@_1O@LAOBCMDF@?$AAq?$AAu?$AAz?$AA?9?$AAE?$AAC@ 1004ba4c     libcpmt:winapinls.obj
 0002:00002a5c       ??_C@_1M@POEEMAIO@?$AAa?$AAr?$AA?9?$AAE?$AAG@ 1004ba5c     libcpmt:winapinls.obj
 0002:00002a68       ??_C@_1M@EFAKDEDL@?$AAz?$AAh?$AA?9?$AAH?$AAK@ 1004ba68     libcpmt:winapinls.obj
 0002:00002a74       ??_C@_1M@HKKIJHGI@?$AAd?$AAe?$AA?9?$AAA?$AAT@ 1004ba74     libcpmt:winapinls.obj
 0002:00002a80       ??_C@_1M@KBFBEHJF@?$AAe?$AAn?$AA?9?$AAA?$AAU@ 1004ba80     libcpmt:winapinls.obj
 0002:00002a8c       ??_C@_1M@MNPLFAAH@?$AAe?$AAs?$AA?9?$AAE?$AAS@ 1004ba8c     libcpmt:winapinls.obj
 0002:00002a98       ??_C@_1M@HJOOJFMA@?$AAf?$AAr?$AA?9?$AAC?$AAA@ 1004ba98     libcpmt:winapinls.obj
 0002:00002aa4       ??_C@_1BG@JPOFPNAB@?$AAs?$AAr?$AA?9?$AAS?$AAP?$AA?9?$AAC?$AAy?$AAr?$AAl@ 1004baa4     libcpmt:winapinls.obj
 0002:00002abc       ??_C@_1M@LNFOCMOB@?$AAs?$AAe?$AA?9?$AAF?$AAI@ 1004babc     libcpmt:winapinls.obj
 0002:00002ac8       ??_C@_1O@MGJBOAMB@?$AAq?$AAu?$AAz?$AA?9?$AAP?$AAE@ 1004bac8     libcpmt:winapinls.obj
 0002:00002ad8       ??_C@_1M@GJINLBOK@?$AAa?$AAr?$AA?9?$AAL?$AAY@ 1004bad8     libcpmt:winapinls.obj
 0002:00002ae4       ??_C@_1M@GGMNHJNL@?$AAz?$AAh?$AA?9?$AAS?$AAG@ 1004bae4     libcpmt:winapinls.obj
 0002:00002af0       ??_C@_1M@HOIKODND@?$AAd?$AAe?$AA?9?$AAL?$AAU@ 1004baf0     libcpmt:winapinls.obj
 0002:00002afc       ??_C@_1M@DDOCCGFG@?$AAe?$AAn?$AA?9?$AAC?$AAA@ 1004bafc     libcpmt:winapinls.obj
 0002:00002b08       ??_C@_1M@BNOEMJLF@?$AAe?$AAs?$AA?9?$AAG?$AAT@ 1004bb08     libcpmt:winapinls.obj
 0002:00002b14       ??_C@_1M@EOGNKEK@?$AAf?$AAr?$AA?9?$AAC?$AAH@ 1004bb14     libcpmt:winapinls.obj
 0002:00002b20       ??_C@_1M@FLIDJFHL@?$AAh?$AAr?$AA?9?$AAB?$AAA@ 1004bb20     libcpmt:winapinls.obj
 0002:00002b2c       ??_C@_1O@FMCELNAJ@?$AAs?$AAm?$AAj?$AA?9?$AAN?$AAO@ 1004bb2c     libcpmt:winapinls.obj
 0002:00002b3c       ??_C@_1M@JHGLJMGJ@?$AAa?$AAr?$AA?9?$AAD?$AAZ@ 1004bb3c     libcpmt:winapinls.obj
 0002:00002b48       ??_C@_1M@JKKFDCNP@?$AAz?$AAh?$AA?9?$AAM?$AAO@ 1004bb48     libcpmt:winapinls.obj
 0002:00002b54       ??_C@_1M@GEEFALPE@?$AAd?$AAe?$AA?9?$AAL?$AAI@ 1004bb54     libcpmt:winapinls.obj
 0002:00002b60       ??_C@_1M@IGEOFBG@?$AAe?$AAn?$AA?9?$AAN?$AAZ@ 1004bb60     libcpmt:winapinls.obj
 0002:00002b6c       ??_C@_1M@KDBONEHP@?$AAe?$AAs?$AA?9?$AAC?$AAR@ 1004bb6c     libcpmt:winapinls.obj
 0002:00002b78       ??_C@_1M@FHMDOHNN@?$AAf?$AAr?$AA?9?$AAL?$AAU@ 1004bb78     libcpmt:winapinls.obj
 0002:00002b84       ??_C@_1BG@NFKKMAFG@?$AAb?$AAs?$AA?9?$AAB?$AAA?$AA?9?$AAL?$AAa?$AAt?$AAn@ 1004bb84     libcpmt:winapinls.obj
 0002:00002b9c       ??_C@_1O@IMNBEMCI@?$AAs?$AAm?$AAj?$AA?9?$AAS?$AAE@ 1004bb9c     libcpmt:winapinls.obj
 0002:00002bac       ??_C@_1M@DHHMBNDP@?$AAa?$AAr?$AA?9?$AAM?$AAA@ 1004bbac     libcpmt:winapinls.obj
 0002:00002bb8       ??_C@_1M@BNBLJCGH@?$AAe?$AAn?$AA?9?$AAI?$AAE@ 1004bbb8     libcpmt:winapinls.obj
 0002:00002bc4       ??_C@_1M@GEPAFMDL@?$AAe?$AAs?$AA?9?$AAP?$AAA@ 1004bbc4     libcpmt:winapinls.obj
 0002:00002bd0       ??_C@_1M@OJONDMDL@?$AAf?$AAr?$AA?9?$AAM?$AAC@ 1004bbd0     libcpmt:winapinls.obj
 0002:00002bdc       ??_C@_1BG@OBCNFJB@?$AAs?$AAr?$AA?9?$AAB?$AAA?$AA?9?$AAL?$AAa?$AAt?$AAn@ 1004bbdc     libcpmt:winapinls.obj
 0002:00002bf4       ??_C@_1O@KEMEEGPO@?$AAs?$AAm?$AAa?$AA?9?$AAN?$AAO@ 1004bbf4     libcpmt:winapinls.obj
 0002:00002c04       ??_C@_1M@ELMGFODK@?$AAa?$AAr?$AA?9?$AAT?$AAN@ 1004bc04     libcpmt:winapinls.obj
 0002:00002c10       ??_C@_1M@BHDLHFAF@?$AAe?$AAn?$AA?9?$AAZ?$AAA@ 1004bc10     libcpmt:winapinls.obj
 0002:00002c1c       ??_C@_1M@BMGIGLIF@?$AAe?$AAs?$AA?9?$AAD?$AAO@ 1004bc1c     libcpmt:winapinls.obj
 0002:00002c28       ??_C@_1BG@CMBHIPBE@?$AAs?$AAr?$AA?9?$AAB?$AAA?$AA?9?$AAC?$AAy?$AAr?$AAl@ 1004bc28     libcpmt:winapinls.obj
 0002:00002c40       ??_C@_1O@HEDBLHNP@?$AAs?$AAm?$AAa?$AA?9?$AAS?$AAE@ 1004bc40     libcpmt:winapinls.obj
 0002:00002c50       ??_C@_1M@DAGCADIM@?$AAa?$AAr?$AA?9?$AAO?$AAM@ 1004bc50     libcpmt:winapinls.obj
 0002:00002c5c       ??_C@_1M@FODLMICG@?$AAe?$AAn?$AA?9?$AAJ?$AAM@ 1004bc5c     libcpmt:winapinls.obj
 0002:00002c68       ??_C@_1M@DNMLCIHB@?$AAe?$AAs?$AA?9?$AAV?$AAE@ 1004bc68     libcpmt:winapinls.obj
 0002:00002c74       ??_C@_1O@EOKHMKJK@?$AAs?$AAm?$AAs?$AA?9?$AAF?$AAI@ 1004bc74     libcpmt:winapinls.obj
 0002:00002c84       ??_C@_1M@CAFJMKOF@?$AAa?$AAr?$AA?9?$AAY?$AAE@ 1004bc84     libcpmt:winapinls.obj
 0002:00002c90       ??_C@_1M@CBFHIJLI@?$AAe?$AAn?$AA?9?$AAC?$AAB@ 1004bc90     libcpmt:winapinls.obj
 0002:00002c9c       ??_C@_1M@BGNFLDN@?$AAe?$AAs?$AA?9?$AAC?$AAO@ 1004bc9c     libcpmt:winapinls.obj
 0002:00002ca8       ??_C@_1O@JMPHMAMC@?$AAs?$AAm?$AAn?$AA?9?$AAF?$AAI@ 1004bca8     libcpmt:winapinls.obj
 0002:00002cb8       ??_C@_1M@JLANABKE@?$AAa?$AAr?$AA?9?$AAS?$AAY@ 1004bcb8     libcpmt:winapinls.obj
 0002:00002cc4       ??_C@_1M@HPKGCFGN@?$AAe?$AAn?$AA?9?$AAB?$AAZ@ 1004bcc4     libcpmt:winapinls.obj
 0002:00002cd0       ??_C@_1M@OLJCMLGM@?$AAe?$AAs?$AA?9?$AAP?$AAE@ 1004bcd0     libcpmt:winapinls.obj
 0002:00002cdc       ??_C@_1M@MKKGFKLE@?$AAa?$AAr?$AA?9?$AAJ?$AAO@ 1004bcdc     libcpmt:winapinls.obj
 0002:00002ce8       ??_C@_1M@EKPGLDNI@?$AAe?$AAn?$AA?9?$AAT?$AAT@ 1004bce8     libcpmt:winapinls.obj
 0002:00002cf4       ??_C@_1M@OONGHFHE@?$AAe?$AAs?$AA?9?$AAA?$AAR@ 1004bcf4     libcpmt:winapinls.obj
 0002:00002d00       ??_C@_1M@OOJFGBHE@?$AAa?$AAr?$AA?9?$AAL?$AAB@ 1004bd00     libcpmt:winapinls.obj
 0002:00002d0c       ??_C@_1M@GCEJHNEG@?$AAe?$AAn?$AA?9?$AAZ?$AAW@ 1004bd0c     libcpmt:winapinls.obj
 0002:00002d18       ??_C@_1M@JNOCAHJI@?$AAe?$AAs?$AA?9?$AAE?$AAC@ 1004bd18     libcpmt:winapinls.obj
 0002:00002d24       ??_C@_1M@JEFHPGGB@?$AAa?$AAr?$AA?9?$AAK?$AAW@ 1004bd24     libcpmt:winapinls.obj
 0002:00002d30       ??_C@_1M@MLKIBJOJ@?$AAe?$AAn?$AA?9?$AAP?$AAH@ 1004bd30     libcpmt:winapinls.obj
 0002:00002d3c       ??_C@_1M@BDNIPEND@?$AAe?$AAs?$AA?9?$AAC?$AAL@ 1004bd3c     libcpmt:winapinls.obj
 0002:00002d48       ??_C@_1M@MPNMEKBD@?$AAa?$AAr?$AA?9?$AAA?$AAE@ 1004bd48     libcpmt:winapinls.obj
 0002:00002d54       ??_C@_1M@KBJALCPI@?$AAe?$AAs?$AA?9?$AAU?$AAY@ 1004bd54     libcpmt:winapinls.obj
 0002:00002d60       ??_C@_1M@LLCCOAGA@?$AAa?$AAr?$AA?9?$AAB?$AAH@ 1004bd60     libcpmt:winapinls.obj
 0002:00002d6c       ??_C@_1M@PBFNCDEL@?$AAe?$AAs?$AA?9?$AAP?$AAY@ 1004bd6c     libcpmt:winapinls.obj
 0002:00002d78       ??_C@_1M@EDGINPNP@?$AAa?$AAr?$AA?9?$AAQ?$AAA@ 1004bd78     libcpmt:winapinls.obj
 0002:00002d84       ??_C@_1M@MKDBIIJI@?$AAe?$AAs?$AA?9?$AAB?$AAO@ 1004bd84     libcpmt:winapinls.obj
 0002:00002d90       ??_C@_1M@CPKKEBLD@?$AAe?$AAs?$AA?9?$AAS?$AAV@ 1004bd90     libcpmt:winapinls.obj
 0002:00002d9c       ??_C@_1M@NDBGMMJL@?$AAe?$AAs?$AA?9?$AAH?$AAN@ 1004bd9c     libcpmt:winapinls.obj
 0002:00002da8       ??_C@_1M@JIJIBHDP@?$AAe?$AAs?$AA?9?$AAN?$AAI@ 1004bda8     libcpmt:winapinls.obj
 0002:00002db4       ??_C@_1M@CGFMKEEK@?$AAe?$AAs?$AA?9?$AAP?$AAR@ 1004bdb4     libcpmt:winapinls.obj
 0002:00002dc0       ??_C@_1O@ICJHKIIK@?$AAz?$AAh?$AA?9?$AAC?$AAH?$AAT@ 1004bdc0     libcpmt:winapinls.obj
 0002:00002dd0       ??_C@_15CLNEJCE@?$AAs?$AAr@ 1004bdd0     libcpmt:winapinls.obj
 0002:00002dd8       ??_C@_1M@KAHEKEIG@?$AAa?$AAf?$AA?9?$AAz?$AAa@ 1004bdd8     libcpmt:winapinls.obj
 0002:00002de4       ??_C@_1M@GIECOABL@?$AAa?$AAr?$AA?9?$AAa?$AAe@ 1004bde4     libcpmt:winapinls.obj
 0002:00002df0       ??_C@_1M@BMLMEKGI@?$AAa?$AAr?$AA?9?$AAb?$AAh@ 1004bdf0     libcpmt:winapinls.obj
 0002:00002dfc       ??_C@_1M@DAPFDGGB@?$AAa?$AAr?$AA?9?$AAd?$AAz@ 1004bdfc     libcpmt:winapinls.obj
 0002:00002e08       ??_C@_1M@FJNKGKIG@?$AAa?$AAr?$AA?9?$AAe?$AAg@ 1004be08     libcpmt:winapinls.obj
 0002:00002e14       ??_C@_1M@FLGKKCLO@?$AAa?$AAr?$AA?9?$AAi?$AAq@ 1004be14     libcpmt:winapinls.obj
 0002:00002e20       ??_C@_1M@GNDIPALM@?$AAa?$AAr?$AA?9?$AAj?$AAo@ 1004be20     libcpmt:winapinls.obj
 0002:00002e2c       ??_C@_1M@DDMJFMGJ@?$AAa?$AAr?$AA?9?$AAk?$AAw@ 1004be2c     libcpmt:winapinls.obj
 0002:00002e38       ??_C@_1M@EJALMLHM@?$AAa?$AAr?$AA?9?$AAl?$AAb@ 1004be38     libcpmt:winapinls.obj
 0002:00002e44       ??_C@_1M@MOBDBLOC@?$AAa?$AAr?$AA?9?$AAl?$AAy@ 1004be44     libcpmt:winapinls.obj
 0002:00002e50       ??_C@_1M@JAOCLHDH@?$AAa?$AAr?$AA?9?$AAm?$AAa@ 1004be50     libcpmt:winapinls.obj
 0002:00002e5c       ??_C@_1M@JHPMKJIE@?$AAa?$AAr?$AA?9?$AAo?$AAm@ 1004be5c     libcpmt:winapinls.obj
 0002:00002e68       ??_C@_1M@OEPGHFNH@?$AAa?$AAr?$AA?9?$AAq?$AAa@ 1004be68     libcpmt:winapinls.obj
 0002:00002e74       ??_C@_1M@KJDONENM@?$AAa?$AAr?$AA?9?$AAs?$AAa@ 1004be74     libcpmt:winapinls.obj
 0002:00002e80       ??_C@_1M@DMJDKLKM@?$AAa?$AAr?$AA?9?$AAs?$AAy@ 1004be80     libcpmt:winapinls.obj
 0002:00002e8c       ??_C@_1M@OMFIPEDC@?$AAa?$AAr?$AA?9?$AAt?$AAn@ 1004be8c     libcpmt:winapinls.obj
 0002:00002e98       ??_C@_1M@IHMHGAON@?$AAa?$AAr?$AA?9?$AAy?$AAe@ 1004be98     libcpmt:winapinls.obj
 0002:00002ea4       ??_C@_1BG@KDCPGJGB@?$AAa?$AAz?$AA?9?$AAa?$AAz?$AA?9?$AAc?$AAy?$AAr?$AAl@ 1004bea4     libcpmt:winapinls.obj
 0002:00002ebc       ??_C@_1BG@IBCKDDOE@?$AAa?$AAz?$AA?9?$AAa?$AAz?$AA?9?$AAl?$AAa?$AAt?$AAn@ 1004bebc     libcpmt:winapinls.obj
 0002:00002ed4       ??_C@_1M@EGPFDCPD@?$AAb?$AAe?$AA?9?$AAb?$AAy@ 1004bed4     libcpmt:winapinls.obj
 0002:00002ee0       ??_C@_1M@PCMGMCGC@?$AAb?$AAg?$AA?9?$AAb?$AAg@ 1004bee0     libcpmt:winapinls.obj
 0002:00002eec       ??_C@_1M@BJBMFGOB@?$AAb?$AAn?$AA?9?$AAi?$AAn@ 1004beec     libcpmt:winapinls.obj
 0002:00002ef8       ??_C@_1BG@EAKMMACD@?$AAb?$AAs?$AA?9?$AAb?$AAa?$AA?9?$AAl?$AAa?$AAt?$AAn@ 1004bef8     libcpmt:winapinls.obj
 0002:00002f10       ??_C@_1M@KGADAODK@?$AAc?$AAa?$AA?9?$AAe?$AAs@ 1004bf10     libcpmt:winapinls.obj
 0002:00002f1c       ??_C@_1M@COAJPDHI@?$AAc?$AAs?$AA?9?$AAc?$AAz@ 1004bf1c     libcpmt:winapinls.obj
 0002:00002f28       ??_C@_1M@DHBHFONH@?$AAc?$AAy?$AA?9?$AAg?$AAb@ 1004bf28     libcpmt:winapinls.obj
 0002:00002f34       ??_C@_1M@IMGKELGA@?$AAd?$AAa?$AA?9?$AAd?$AAk@ 1004bf34     libcpmt:winapinls.obj
 0002:00002f40       ??_C@_1M@NNDGDNGA@?$AAd?$AAe?$AA?9?$AAa?$AAt@ 1004bf40     libcpmt:winapinls.obj
 0002:00002f4c       ??_C@_1M@IKDBHEEM@?$AAd?$AAe?$AA?9?$AAc?$AAh@ 1004bf4c     libcpmt:winapinls.obj
 0002:00002f58       ??_C@_1M@GFFOJMCJ@?$AAd?$AAe?$AA?9?$AAd?$AAe@ 1004bf58     libcpmt:winapinls.obj
 0002:00002f64       ??_C@_1M@MDNLKBPM@?$AAd?$AAe?$AA?9?$AAl?$AAi@ 1004bf64     libcpmt:winapinls.obj
 0002:00002f70       ??_C@_1M@NJBEEJNL@?$AAd?$AAe?$AA?9?$AAl?$AAu@ 1004bf70     libcpmt:winapinls.obj
 0002:00002f7c       ??_C@_1O@GNNELBAP@?$AAd?$AAi?$AAv?$AA?9?$AAm?$AAv@ 1004bf7c     libcpmt:winapinls.obj
 0002:00002f8c       ??_C@_1M@EJLEOGAE@?$AAe?$AAl?$AA?9?$AAg?$AAr@ 1004bf8c     libcpmt:winapinls.obj
 0002:00002f98       ??_C@_1M@GMPONJN@?$AAe?$AAn?$AA?9?$AAa?$AAu@ 1004bf98     libcpmt:winapinls.obj
 0002:00002fa4       ??_C@_1M@NIDIIPGF@?$AAe?$AAn?$AA?9?$AAb?$AAz@ 1004bfa4     libcpmt:winapinls.obj
 0002:00002fb0       ??_C@_1M@JEHMIMFO@?$AAe?$AAn?$AA?9?$AAc?$AAa@ 1004bfb0     libcpmt:winapinls.obj
 0002:00002fbc       ??_C@_1M@IGMJCDLA@?$AAe?$AAn?$AA?9?$AAc?$AAb@ 1004bfbc     libcpmt:winapinls.obj
 0002:00002fc8       ??_C@_1M@BNFIGBKG@?$AAe?$AAn?$AA?9?$AAg?$AAb@ 1004bfc8     libcpmt:winapinls.obj
 0002:00002fd4       ??_C@_1M@LKIFDIGP@?$AAe?$AAn?$AA?9?$AAi?$AAe@ 1004bfd4     libcpmt:winapinls.obj
 0002:00002fe0       ??_C@_1M@PJKFGCCO@?$AAe?$AAn?$AA?9?$AAj?$AAm@ 1004bfe0     libcpmt:winapinls.obj
 0002:00002fec       ??_C@_1M@KPPKEPBO@?$AAe?$AAn?$AA?9?$AAn?$AAz@ 1004bfec     libcpmt:winapinls.obj
 0002:00002ff8       ??_C@_1M@GMDGLDOB@?$AAe?$AAn?$AA?9?$AAp?$AAh@ 1004bff8     libcpmt:winapinls.obj
 0002:00003004       ??_C@_1M@ONGIBJNA@?$AAe?$AAn?$AA?9?$AAt?$AAt@ 1004c004     libcpmt:winapinls.obj
 0002:00003010       ??_C@_1M@LLODPCMM@?$AAe?$AAn?$AA?9?$AAu?$AAs@ 1004c010     libcpmt:winapinls.obj
 0002:0000301c       ??_C@_1M@LAKFNPAN@?$AAe?$AAn?$AA?9?$AAz?$AAa@ 1004c01c     libcpmt:winapinls.obj
 0002:00003028       ??_C@_1M@MFNHNHEO@?$AAe?$AAn?$AA?9?$AAz?$AAw@ 1004c028     libcpmt:winapinls.obj
 0002:00003034       ??_C@_1M@EJEINPHM@?$AAe?$AAs?$AA?9?$AAa?$AAr@ 1004c034     libcpmt:winapinls.obj
 0002:00003040       ??_C@_1M@GNKPCCJA@?$AAe?$AAs?$AA?9?$AAb?$AAo@ 1004c040     libcpmt:winapinls.obj
 0002:0000304c       ??_C@_1M@LEEGFONL@?$AAe?$AAs?$AA?9?$AAc?$AAl@ 1004c04c     libcpmt:winapinls.obj
 0002:00003058       ??_C@_1M@KGPDPBDF@?$AAe?$AAs?$AA?9?$AAc?$AAo@ 1004c058     libcpmt:winapinls.obj
 0002:00003064       ??_C@_1M@EIAHOHH@?$AAe?$AAs?$AA?9?$AAc?$AAr@ 1004c064     libcpmt:winapinls.obj
 0002:00003070       ??_C@_1M@LLPGMBIN@?$AAe?$AAs?$AA?9?$AAd?$AAo@ 1004c070     libcpmt:winapinls.obj
 0002:0000307c       ??_C@_1M@DKHMKNJA@?$AAe?$AAs?$AA?9?$AAe?$AAc@ 1004c07c     libcpmt:winapinls.obj
 0002:00003088       ??_C@_1M@GKGFPKAP@?$AAe?$AAs?$AA?9?$AAe?$AAs@ 1004c088     libcpmt:winapinls.obj
 0002:00003094       ??_C@_1M@LKHKGDLN@?$AAe?$AAs?$AA?9?$AAg?$AAt@ 1004c094     libcpmt:winapinls.obj
 0002:000030a0       ??_C@_1M@HEIIGGJD@?$AAe?$AAs?$AA?9?$AAh?$AAn@ 1004c0a0     libcpmt:winapinls.obj
 0002:000030ac       ??_C@_1M@FBDHPPGD@?$AAe?$AAs?$AA?9?$AAm?$AAx@ 1004c0ac     libcpmt:winapinls.obj
 0002:000030b8       ??_C@_1M@DPAGLNDH@?$AAe?$AAs?$AA?9?$AAn?$AAi@ 1004c0b8     libcpmt:winapinls.obj
 0002:000030c4       ??_C@_1M@MDGOPGDD@?$AAe?$AAs?$AA?9?$AAp?$AAa@ 1004c0c4     libcpmt:winapinls.obj
 0002:000030d0       ??_C@_1M@EMAMGBGE@?$AAe?$AAs?$AA?9?$AAp?$AAe@ 1004c0d0     libcpmt:winapinls.obj
 0002:000030dc       ??_C@_1M@IBMCAOEC@?$AAe?$AAs?$AA?9?$AAp?$AAr@ 1004c0dc     libcpmt:winapinls.obj
 0002:000030e8       ??_C@_1M@FGMDIJED@?$AAe?$AAs?$AA?9?$AAp?$AAy@ 1004c0e8     libcpmt:winapinls.obj
 0002:000030f4       ??_C@_1M@IIDEOLLL@?$AAe?$AAs?$AA?9?$AAs?$AAv@ 1004c0f4     libcpmt:winapinls.obj
 0002:00003100       ??_C@_1M@GAOBIPA@?$AAe?$AAs?$AA?9?$AAu?$AAy@ 1004c100     libcpmt:winapinls.obj
 0002:0000310c       ??_C@_1M@JKFFICHJ@?$AAe?$AAs?$AA?9?$AAv?$AAe@ 1004c10c     libcpmt:winapinls.obj
 0002:00003118       ??_C@_1M@PNMLOJDF@?$AAe?$AAt?$AA?9?$AAe?$AAe@ 1004c118     libcpmt:winapinls.obj
 0002:00003124       ??_C@_1M@GHHLIKEI@?$AAe?$AAu?$AA?9?$AAe?$AAs@ 1004c124     libcpmt:winapinls.obj
 0002:00003130       ??_C@_1M@PBNONODE@?$AAf?$AAa?$AA?9?$AAi?$AAr@ 1004c130     libcpmt:winapinls.obj
 0002:0000313c       ??_C@_1M@JEEHPMIL@?$AAf?$AAi?$AA?9?$AAf?$AAi@ 1004c13c     libcpmt:winapinls.obj
 0002:00003148       ??_C@_1M@LMDCNDBA@?$AAf?$AAo?$AA?9?$AAf?$AAo@ 1004c148     libcpmt:winapinls.obj
 0002:00003154       ??_C@_1M@JKEOHLDK@?$AAf?$AAr?$AA?9?$AAb?$AAe@ 1004c154     libcpmt:winapinls.obj
 0002:00003160       ??_C@_1M@NOHADPMI@?$AAf?$AAr?$AA?9?$AAc?$AAa@ 1004c160     libcpmt:winapinls.obj
 0002:0000316c       ??_C@_1M@KDHIHAEC@?$AAf?$AAr?$AA?9?$AAc?$AAh@ 1004c16c     libcpmt:winapinls.obj
 0002:00003178       ??_C@_1M@MMBBFGAK@?$AAf?$AAr?$AA?9?$AAf?$AAr@ 1004c178     libcpmt:winapinls.obj
 0002:00003184       ??_C@_1M@PAFNENNF@?$AAf?$AAr?$AA?9?$AAl?$AAu@ 1004c184     libcpmt:winapinls.obj
 0002:00003190       ??_C@_1M@EOHDJGDD@?$AAf?$AAr?$AA?9?$AAm?$AAc@ 1004c190     libcpmt:winapinls.obj
 0002:0000319c       ??_C@_1M@FAPLLOPF@?$AAg?$AAl?$AA?9?$AAe?$AAs@ 1004c19c     libcpmt:winapinls.obj
 0002:000031a8       ??_C@_1M@FOPBFLOO@?$AAg?$AAu?$AA?9?$AAi?$AAn@ 1004c1a8     libcpmt:winapinls.obj
 0002:000031b4       ??_C@_1M@KBMCINPM@?$AAh?$AAe?$AA?9?$AAi?$AAl@ 1004c1b4     libcpmt:winapinls.obj
 0002:000031c0       ??_C@_1M@BBPHKFPJ@?$AAh?$AAi?$AA?9?$AAi?$AAn@ 1004c1c0     libcpmt:winapinls.obj
 0002:000031cc       ??_C@_1M@PMBNDPHD@?$AAh?$AAr?$AA?9?$AAb?$AAa@ 1004c1cc     libcpmt:winapinls.obj
 0002:000031d8       ??_C@_1M@BPCKOEGE@?$AAh?$AAr?$AA?9?$AAh?$AAr@ 1004c1d8     libcpmt:winapinls.obj
 0002:000031e4       ??_C@_1M@GACBMHKE@?$AAh?$AAu?$AA?9?$AAh?$AAu@ 1004c1e4     libcpmt:winapinls.obj
 0002:000031f0       ??_C@_1M@MILPAJJC@?$AAh?$AAy?$AA?9?$AAa?$AAm@ 1004c1f0     libcpmt:winapinls.obj
 0002:000031fc       ??_C@_1M@BABBICEC@?$AAi?$AAd?$AA?9?$AAi?$AAd@ 1004c1fc     libcpmt:winapinls.obj
 0002:00003208       ??_C@_1M@BIKNHHPF@?$AAi?$AAs?$AA?9?$AAi?$AAs@ 1004c208     libcpmt:winapinls.obj
 0002:00003214       ??_C@_1M@NMPCJPHE@?$AAi?$AAt?$AA?9?$AAc?$AAh@ 1004c214     libcpmt:winapinls.obj
 0002:00003220       ??_C@_1M@GHKGFEDF@?$AAi?$AAt?$AA?9?$AAi?$AAt@ 1004c220     libcpmt:winapinls.obj
 0002:0000322c       ??_C@_1M@NIEJCJJA@?$AAj?$AAa?$AA?9?$AAj?$AAp@ 1004c22c     libcpmt:winapinls.obj
 0002:00003238       ??_C@_1M@JILFNBIM@?$AAk?$AAa?$AA?9?$AAg?$AAe@ 1004c238     libcpmt:winapinls.obj
 0002:00003244       ??_C@_1M@PACPMGPH@?$AAk?$AAk?$AA?9?$AAk?$AAz@ 1004c244     libcpmt:winapinls.obj
 0002:00003250       ??_C@_1M@IELFGMHA@?$AAk?$AAn?$AA?9?$AAi?$AAn@ 1004c250     libcpmt:winapinls.obj
 0002:0000325c       ??_C@_1M@DMHAEOGC@?$AAk?$AAo?$AA?9?$AAk?$AAr@ 1004c25c     libcpmt:winapinls.obj
 0002:00003268       ??_C@_1O@IBBJHCH@?$AAk?$AAo?$AAk?$AA?9?$AAi?$AAn@ 1004c268     libcpmt:winapinls.obj
 0002:00003278       ??_C@_1M@HBAHBIGA@?$AAk?$AAy?$AA?9?$AAk?$AAg@ 1004c278     libcpmt:winapinls.obj
 0002:00003284       ??_C@_1M@KPMILCJG@?$AAl?$AAt?$AA?9?$AAl?$AAt@ 1004c284     libcpmt:winapinls.obj
 0002:00003290       ??_C@_1M@BDEKKCA@?$AAl?$AAv?$AA?9?$AAl?$AAv@ 1004c290     libcpmt:winapinls.obj
 0002:0000329c       ??_C@_1M@ELCKCCJJ@?$AAm?$AAi?$AA?9?$AAn?$AAz@ 1004c29c     libcpmt:winapinls.obj
 0002:000032a8       ??_C@_1M@CBOOLAPA@?$AAm?$AAk?$AA?9?$AAm?$AAk@ 1004c2a8     libcpmt:winapinls.obj
 0002:000032b4       ??_C@_1M@GPHNBJKN@?$AAm?$AAl?$AA?9?$AAi?$AAn@ 1004c2b4     libcpmt:winapinls.obj
 0002:000032c0       ??_C@_1M@PABJILIG@?$AAm?$AAn?$AA?9?$AAm?$AAn@ 1004c2c0     libcpmt:winapinls.obj
 0002:000032cc       ??_C@_1M@FGBKKIPG@?$AAm?$AAr?$AA?9?$AAi?$AAn@ 1004c2cc     libcpmt:winapinls.obj
 0002:000032d8       ??_C@_1M@NDBPDDAL@?$AAm?$AAs?$AA?9?$AAb?$AAn@ 1004c2d8     libcpmt:winapinls.obj
 0002:000032e4       ??_C@_1M@OPIHOOPI@?$AAm?$AAs?$AA?9?$AAm?$AAy@ 1004c2e4     libcpmt:winapinls.obj
 0002:000032f0       ??_C@_1M@PPDBCNFM@?$AAm?$AAt?$AA?9?$AAm?$AAt@ 1004c2f0     libcpmt:winapinls.obj
 0002:000032fc       ??_C@_1M@KDJDKMDD@?$AAn?$AAb?$AA?9?$AAn?$AAo@ 1004c2fc     libcpmt:winapinls.obj
 0002:00003308       ??_C@_1M@KFCFLMJP@?$AAn?$AAl?$AA?9?$AAb?$AAe@ 1004c308     libcpmt:winapinls.obj
 0002:00003314       ??_C@_1M@KPOPDDGO@?$AAn?$AAl?$AA?9?$AAn?$AAl@ 1004c314     libcpmt:winapinls.obj
 0002:00003320       ??_C@_1M@LJKPEMLN@?$AAn?$AAn?$AA?9?$AAn?$AAo@ 1004c320     libcpmt:winapinls.obj
 0002:0000332c       ??_C@_1M@BDGHHBFL@?$AAn?$AAs?$AA?9?$AAz?$AAa@ 1004c32c     libcpmt:winapinls.obj
 0002:00003338       ??_C@_1M@IDEHOAP@?$AAp?$AAa?$AA?9?$AAi?$AAn@ 1004c338     libcpmt:winapinls.obj
 0002:00003344       ??_C@_1M@HDBKGOGH@?$AAp?$AAl?$AA?9?$AAp?$AAl@ 1004c344     libcpmt:winapinls.obj
 0002:00003350       ??_C@_1M@LJLLCMEH@?$AAp?$AAt?$AA?9?$AAb?$AAr@ 1004c350     libcpmt:winapinls.obj
 0002:0000335c       ??_C@_1M@NCMONAAL@?$AAp?$AAt?$AA?9?$AAp?$AAt@ 1004c35c     libcpmt:winapinls.obj
 0002:00003368       ??_C@_1O@EAKMAJDN@?$AAq?$AAu?$AAz?$AA?9?$AAb?$AAo@ 1004c368     libcpmt:winapinls.obj
 0002:00003378       ??_C@_1O@BHHPIGDN@?$AAq?$AAu?$AAz?$AA?9?$AAe?$AAc@ 1004c378     libcpmt:winapinls.obj
 0002:00003388       ??_C@_1O@GBAPEKMJ@?$AAq?$AAu?$AAz?$AA?9?$AAp?$AAe@ 1004c388     libcpmt:winapinls.obj
 0002:00003398       ??_C@_1M@CLGLEFBO@?$AAr?$AAo?$AA?9?$AAr?$AAo@ 1004c398     libcpmt:winapinls.obj
 0002:000033a4       ??_C@_1M@CEEDODME@?$AAr?$AAu?$AA?9?$AAr?$AAu@ 1004c3a4     libcpmt:winapinls.obj
 0002:000033b0       ??_C@_1M@HPKKKMPP@?$AAs?$AAa?$AA?9?$AAi?$AAn@ 1004c3b0     libcpmt:winapinls.obj
 0002:000033bc       ??_C@_1M@BKMAIGOJ@?$AAs?$AAe?$AA?9?$AAf?$AAi@ 1004c3bc     libcpmt:winapinls.obj
 0002:000033c8       ??_C@_1M@NDPIFLFI@?$AAs?$AAe?$AA?9?$AAn?$AAo@ 1004c3c8     libcpmt:winapinls.obj
 0002:000033d4       ??_C@_1M@DANKKHJ@?$AAs?$AAe?$AA?9?$AAs?$AAe@ 1004c3d4     libcpmt:winapinls.obj
 0002:000033e0       ??_C@_1M@PNBLONPJ@?$AAs?$AAk?$AA?9?$AAs?$AAk@ 1004c3e0     libcpmt:winapinls.obj
 0002:000033ec       ??_C@_1M@LFMODOAL@?$AAs?$AAl?$AA?9?$AAs?$AAi@ 1004c3ec     libcpmt:winapinls.obj
 0002:000033f8       ??_C@_1O@DFKOMPG@?$AAs?$AAm?$AAa?$AA?9?$AAn?$AAo@ 1004c3f8     libcpmt:winapinls.obj
 0002:00003408       ??_C@_1O@NDKPBNNH@?$AAs?$AAm?$AAa?$AA?9?$AAs?$AAe@ 1004c408     libcpmt:winapinls.obj
 0002:00003418       ??_C@_1O@PLLKBHAB@?$AAs?$AAm?$AAj?$AA?9?$AAn?$AAo@ 1004c418     libcpmt:winapinls.obj
 0002:00003428       ??_C@_1O@CLEPOGCA@?$AAs?$AAm?$AAj?$AA?9?$AAs?$AAe@ 1004c428     libcpmt:winapinls.obj
 0002:00003438       ??_C@_1O@DLGJGKMK@?$AAs?$AAm?$AAn?$AA?9?$AAf?$AAi@ 1004c438     libcpmt:winapinls.obj
 0002:00003448       ??_C@_1O@OJDJGAJC@?$AAs?$AAm?$AAs?$AA?9?$AAf?$AAi@ 1004c448     libcpmt:winapinls.obj
 0002:00003458       ??_C@_1M@BOFOGHPB@?$AAs?$AAq?$AA?9?$AAa?$AAl@ 1004c458     libcpmt:winapinls.obj
 0002:00003464       ??_C@_1BG@LJBBIPGB@?$AAs?$AAr?$AA?9?$AAb?$AAa?$AA?9?$AAc?$AAy?$AAr?$AAl@ 1004c464     libcpmt:winapinls.obj
 0002:0000347c       ??_C@_1BG@JLBENFOE@?$AAs?$AAr?$AA?9?$AAb?$AAa?$AA?9?$AAl?$AAa?$AAt?$AAn@ 1004c47c     libcpmt:winapinls.obj
 0002:00003494       ??_C@_1BG@KODPNHE@?$AAs?$AAr?$AA?9?$AAs?$AAp?$AA?9?$AAc?$AAy?$AAr?$AAl@ 1004c494     libcpmt:winapinls.obj
 0002:000034ac       ??_C@_1BG@CIOGKHPB@?$AAs?$AAr?$AA?9?$AAs?$AAp?$AA?9?$AAl?$AAa?$AAt?$AAn@ 1004c4ac     libcpmt:winapinls.obj
 0002:000034c4       ??_C@_1M@NGFJLMAC@?$AAs?$AAv?$AA?9?$AAf?$AAi@ 1004c4c4     libcpmt:winapinls.obj
 0002:000034d0       ??_C@_1M@MPJEJAJC@?$AAs?$AAv?$AA?9?$AAs?$AAe@ 1004c4d0     libcpmt:winapinls.obj
 0002:000034dc       ??_C@_1M@MPNDHLFK@?$AAs?$AAw?$AA?9?$AAk?$AAe@ 1004c4dc     libcpmt:winapinls.obj
 0002:000034e8       ??_C@_1O@KOHBJJI@?$AAs?$AAy?$AAr?$AA?9?$AAs?$AAy@ 1004c4e8     libcpmt:winapinls.obj
 0002:000034f8       ??_C@_1M@LDCEFHA@?$AAt?$AAa?$AA?9?$AAi?$AAn@ 1004c4f8     libcpmt:winapinls.obj
 0002:00003504       ??_C@_1M@CNJOFAK@?$AAt?$AAe?$AA?9?$AAi?$AAn@ 1004c504     libcpmt:winapinls.obj
 0002:00003510       ??_C@_1M@GNAECACD@?$AAt?$AAh?$AA?9?$AAt?$AAh@ 1004c510     libcpmt:winapinls.obj
 0002:0000351c       ??_C@_1M@CHBIHOJO@?$AAt?$AAn?$AA?9?$AAz?$AAa@ 1004c51c     libcpmt:winapinls.obj
 0002:00003528       ??_C@_1M@GCCMIGPJ@?$AAt?$AAr?$AA?9?$AAt?$AAr@ 1004c528     libcpmt:winapinls.obj
 0002:00003534       ??_C@_1M@CELMCNBK@?$AAt?$AAt?$AA?9?$AAr?$AAu@ 1004c534     libcpmt:winapinls.obj
 0002:00003540       ??_C@_1M@KLMCELGA@?$AAu?$AAk?$AA?9?$AAu?$AAa@ 1004c540     libcpmt:winapinls.obj
 0002:0000354c       ??_C@_1M@EPAJJAJF@?$AAu?$AAr?$AA?9?$AAp?$AAk@ 1004c54c     libcpmt:winapinls.obj
 0002:00003558       ??_C@_1BG@GEGPMCDJ@?$AAu?$AAz?$AA?9?$AAu?$AAz?$AA?9?$AAc?$AAy?$AAr?$AAl@ 1004c558     libcpmt:winapinls.obj
 0002:00003570       ??_C@_1BG@EGGKJILM@?$AAu?$AAz?$AA?9?$AAu?$AAz?$AA?9?$AAl?$AAa?$AAt?$AAn@ 1004c570     libcpmt:winapinls.obj
 0002:00003588       ??_C@_1M@GFOCLFF@?$AAv?$AAi?$AA?9?$AAv?$AAn@ 1004c588     libcpmt:winapinls.obj
 0002:00003594       ??_C@_1M@CPAMEDFI@?$AAx?$AAh?$AA?9?$AAz?$AAa@ 1004c594     libcpmt:winapinls.obj
 0002:000035a0       ??_C@_1O@EBKIFIGN@?$AAz?$AAh?$AA?9?$AAc?$AAh?$AAs@ 1004c5a0     libcpmt:winapinls.obj
 0002:000035b0       ??_C@_1O@NMHPGANE@?$AAz?$AAh?$AA?9?$AAc?$AAh?$AAt@ 1004c5b0     libcpmt:winapinls.obj
 0002:000035c0       ??_C@_1M@LPINJOMC@?$AAz?$AAh?$AA?9?$AAc?$AAn@ 1004c5c0     libcpmt:winapinls.obj
 0002:000035cc       ??_C@_1M@OCJEJODD@?$AAz?$AAh?$AA?9?$AAh?$AAk@ 1004c5cc     libcpmt:winapinls.obj
 0002:000035d8       ??_C@_1M@DNDLJINH@?$AAz?$AAh?$AA?9?$AAm?$AAo@ 1004c5d8     libcpmt:winapinls.obj
 0002:000035e4       ??_C@_1M@MBFDNDND@?$AAz?$AAh?$AA?9?$AAs?$AAg@ 1004c5e4     libcpmt:winapinls.obj
 0002:000035f0       ??_C@_1M@IMEPLEPE@?$AAz?$AAh?$AA?9?$AAt?$AAw@ 1004c5f0     libcpmt:winapinls.obj
 0002:000035fc       ??_C@_1M@BBGHNHJP@?$AAz?$AAu?$AA?9?$AAz?$AAa@ 1004c5fc     libcpmt:winapinls.obj
 0002:0000360c       ??_7type_info@@6B@         1004c60c     LIBCMT:std_type_info_static.obj
 0002:00003610       __pRawDllMain              1004c610     LIBCMT:dll_dllmain.obj
 0002:00003610       __pDefaultRawDllMain       1004c610     LIBCMT:dll_dllmain.obj
 0002:00003620       ??_7bad_array_new_length@std@@6B@ 1004c620     LIBCMT:throw_bad_alloc.obj
 0002:00003628       ??_C@_0BF@KINCDENJ@bad?5array?5new?5length@ 1004c628     LIBCMT:throw_bad_alloc.obj
 0002:00003640       __pDestructExceptionObject 1004c640     libvcruntime:ehhelpers.obj
 0002:00003668       ??_7bad_exception@std@@6B@ 1004c668     libvcruntime:frame.obj
 0002:00003670       ??_C@_0O@DPKOEFFH@bad?5exception@ 1004c670     libvcruntime:frame.obj
 0002:0000368c       ??_C@_1DM@KHCHBNEB@?$AAa?$AAp?$AAi?$AA?9?$AAm?$AAs?$AA?9?$AAw?$AAi?$AAn?$AA?9?$AAc?$AAo?$AAr?$AAe@ 1004c68c     libvcruntime:winapi_downlevel.obj
 0002:000036c8       ??_C@_1DK@LPPGFMPP@?$AAa?$AAp?$AAi?$AA?9?$AAm?$AAs?$AA?9?$AAw?$AAi?$AAn?$AA?9?$AAc?$AAo?$AAr?$AAe@ 1004c6c8     libvcruntime:winapi_downlevel.obj
 0002:00003704       ??_C@_1BC@GDMECMAK@?$AAk?$AAe?$AAr?$AAn?$AAe?$AAl?$AA3?$AA2@ 1004c704     libvcruntime:winapi_downlevel.obj
 0002:00003718       ??_C@_1BA@PFFKHIOG@?$AAa?$AAp?$AAi?$AA?9?$AAm?$AAs?$AA?9@ 1004c718     libvcruntime:winapi_downlevel.obj
 0002:00003728       ??_C@_1BA@IAIFMGEF@?$AAe?$AAx?$AAt?$AA?9?$AAm?$AAs?$AA?9@ 1004c728     libvcruntime:winapi_downlevel.obj
 0002:000038fc       ??_C@_08EHJDFFNH@__based?$CI@ 1004c8fc     libvcruntime:undname.obj
 0002:00003908       ??_C@_07KOLFKCDI@__cdecl@  1004c908     libvcruntime:undname.obj
 0002:00003910       ??_C@_08GHMPAG@__pascal@   1004c910     libvcruntime:undname.obj
 0002:0000391c       ??_C@_09IFJBGAPI@__stdcall@ 1004c91c     libvcruntime:undname.obj
 0002:00003928       ??_C@_0L@NPHFGOKO@__thiscall@ 1004c928     libvcruntime:undname.obj
 0002:00003934       ??_C@_0L@JMKHOMEK@__fastcall@ 1004c934     libvcruntime:undname.obj
 0002:00003940       ??_C@_0N@BCKKPABJ@__vectorcall@ 1004c940     libvcruntime:undname.obj
 0002:00003950       ??_C@_09HIJEGCPM@__clrcall@ 1004c950     libvcruntime:undname.obj
 0002:0000395c       ??_C@_06GHPCKEAG@__eabi@   1004c95c     libvcruntime:undname.obj
 0002:00003964       ??_C@_09IOPIDJLG@__swift_1@ 1004c964     libvcruntime:undname.obj
 0002:00003970       ??_C@_09KFNFGKHF@__swift_2@ 1004c970     libvcruntime:undname.obj
 0002:0000397c       ??_C@_07JOMMBBKO@__ptr64@  1004c97c     libvcruntime:undname.obj
 0002:00003984       ??_C@_0L@PILCLIHE@__restrict@ 1004c984     libvcruntime:undname.obj
 0002:00003990       ??_C@_0M@GFIIJFMG@__unaligned@ 1004c990     libvcruntime:undname.obj
 0002:0000399c       ??_C@_09DHDLOLLB@restrict?$CI@ 1004c99c     libvcruntime:undname.obj
 0002:000039a8       ??_C@_04NIHEBCM@?5new@     1004c9a8     libvcruntime:undname.obj
 0002:000039b0       ??_C@_07FPCDHGMM@?5delete@ 1004c9b0     libvcruntime:undname.obj
 0002:000039b8       ??_C@_01NEMOKFLO@?$DN@     1004c9b8     libvcruntime:undname.obj
 0002:000039bc       ??_C@_02GPIOPFAK@?$DO?$DO@ 1004c9bc     libvcruntime:undname.obj
 0002:000039c0       ??_C@_02FODMEDOG@?$DM?$DM@ 1004c9c0     libvcruntime:undname.obj
 0002:000039c4       ??_C@_01DCLJPIOD@?$CB@     1004c9c4     libvcruntime:undname.obj
 0002:000039c8       ??_C@_02EGOFBIJA@?$DN?$DN@ 1004c9c8     libvcruntime:undname.obj
 0002:000039cc       ??_C@_02FDNJECIE@?$CB?$DN@ 1004c9cc     libvcruntime:undname.obj
 0002:000039d0       ??_C@_02GPECMEKF@?$FL?$FN@ 1004c9d0     libvcruntime:undname.obj
 0002:000039d4       ??_C@_08LHJFAFGD@operator@ 1004c9d4     libvcruntime:undname.obj
 0002:000039e0       ??_C@_02HBOOOICD@?9?$DO@   1004c9e0     libvcruntime:undname.obj
 0002:000039e4       ??_C@_02ECNGHCIF@?$CL?$CL@ 1004c9e4     libvcruntime:undname.obj
 0002:000039e8       ??_C@_02BAABKJLB@?9?9@     1004c9e8     libvcruntime:undname.obj
 0002:000039ec       ??_C@_01MIFGBAGJ@?$CL@     1004c9ec     libvcruntime:undname.obj
 0002:000039f0       ??_C@_01HNPIGOCE@?$CG@     1004c9f0     libvcruntime:undname.obj
 0002:000039f4       ??_C@_03MNHNFDLC@?9?$DO?$CK@ 1004c9f4     libvcruntime:undname.obj
 0002:000039f8       ??_C@_01KMDKNFGN@?1@       1004c9f8     libvcruntime:undname.obj
 0002:000039fc       ??_C@_01FGNFDNOH@?$CF@     1004c9fc     libvcruntime:undname.obj
 0002:00003a00       ??_C@_01MNNFJEPP@?$DM@     1004ca00     libvcruntime:undname.obj
 0002:00003a04       ??_C@_02EHCHHCKH@?$DM?$DN@ 1004ca04     libvcruntime:undname.obj
 0002:00003a08       ??_C@_01PPODPGHN@?$DO@     1004ca08     libvcruntime:undname.obj
 0002:00003a0c       ??_C@_02EEKDKGMJ@?$DO?$DN@ 1004ca0c     libvcruntime:undname.obj
 0002:00003a10       ??_C@_01IHBHIGKO@?0@       1004ca10     libvcruntime:undname.obj
 0002:00003a14       ??_C@_02HCKGKOFO@?$CI?$CJ@ 1004ca14     libvcruntime:undname.obj
 0002:00003a18       ??_C@_01PJKLJHI@?$HO@      1004ca18     libvcruntime:undname.obj
 0002:00003a1c       ??_C@_01JKBOJNNK@?$FO@     1004ca1c     libvcruntime:undname.obj
 0002:00003a20       ??_C@_01DNKMNLPK@?$HM@     1004ca20     libvcruntime:undname.obj
 0002:00003a24       ??_C@_02PPKAJPJL@?$CG?$CG@ 1004ca24     libvcruntime:undname.obj
 0002:00003a28       ??_C@_02NONPIBCD@?$HM?$HM@ 1004ca28     libvcruntime:undname.obj
 0002:00003a2c       ??_C@_02FPIMKNGF@?$CK?$DN@ 1004ca2c     libvcruntime:undname.obj
 0002:00003a30       ??_C@_02FOEOMHFC@?$CL?$DN@ 1004ca30     libvcruntime:undname.obj
 0002:00003a34       ??_C@_02FKMDLLOA@?9?$DN@   1004ca34     libvcruntime:undname.obj
 0002:00003a38       ??_C@_02FJEHGPIO@?1?$DN@   1004ca38     libvcruntime:undname.obj
 0002:00003a3c       ??_C@_02FENAOKFI@?$CF?$DN@ 1004ca3c     libvcruntime:undname.obj
 0002:00003a40       ??_C@_03IKFCCPFF@?$DO?$DO?$DN@ 1004ca40     libvcruntime:undname.obj
 0002:00003a44       ??_C@_03CDNPDDLA@?$DM?$DM?$DN@ 1004ca44     libvcruntime:undname.obj
 0002:00003a48       ??_C@_02FGJGFEAB@?$CG?$DN@ 1004ca48     libvcruntime:undname.obj
 0002:00003a4c       ??_C@_02DHLNPPGH@?$HM?$DN@ 1004ca4c     libvcruntime:undname.obj
 0002:00003a50       ??_C@_02MHEGNOJ@?$FO?$DN@  1004ca50     libvcruntime:undname.obj
 0002:00003a54       ??_C@_09IFPLHPGF@?$GAvftable?8@ 1004ca54     libvcruntime:undname.obj
 0002:00003a60       ??_C@_09BLBHBJP@?$GAvbtable?8@ 1004ca60     libvcruntime:undname.obj
 0002:00003a6c       ??_C@_07FEEIOKP@?$GAvcall?8@ 1004ca6c     libvcruntime:undname.obj
 0002:00003a74       ??_C@_08LLFFHHDJ@?$GAtypeof?8@ 1004ca74     libvcruntime:undname.obj
 0002:00003a80       ??_C@_0BF@KDPPACIK@?$GAlocal?5static?5guard?8@ 1004ca80     libvcruntime:undname.obj
 0002:00003a98       ??_C@_08OBABFOLI@?$GAstring?8@ 1004ca98     libvcruntime:undname.obj
 0002:00003aa4       ??_C@_0BD@JDLKDPAB@?$GAvbase?5destructor?8@ 1004caa4     libvcruntime:undname.obj
 0002:00003ab8       ??_C@_0BN@DEGPLNFK@?$GAvector?5deleting?5destructor?8@ 1004cab8     libvcruntime:undname.obj
 0002:00003ad8       ??_C@_0BO@OBMKPJIG@?$GAdefault?5constructor?5closure?8@ 1004cad8     libvcruntime:undname.obj
 0002:00003af8       ??_C@_0BN@IMDCHIKM@?$GAscalar?5deleting?5destructor?8@ 1004caf8     libvcruntime:undname.obj
 0002:00003b18       ??_C@_0BO@PFGOCPJJ@?$GAvector?5constructor?5iterator?8@ 1004cb18     libvcruntime:undname.obj
 0002:00003b38       ??_C@_0BN@LFPFMEDL@?$GAvector?5destructor?5iterator?8@ 1004cb38     libvcruntime:undname.obj
 0002:00003b58       ??_C@_0CE@IKBNEHA@?$GAvector?5vbase?5constructor?5itera@ 1004cb58     libvcruntime:undname.obj
 0002:00003b7c       ??_C@_0BL@NILFHHPC@?$GAvirtual?5displacement?5map?8@ 1004cb7c     libvcruntime:undname.obj
 0002:00003b98       ??_C@_0CB@JONCMFFK@?$GAeh?5vector?5constructor?5iterator@ 1004cb98     libvcruntime:undname.obj
 0002:00003bbc       ??_C@_0CA@GCEOPDGL@?$GAeh?5vector?5destructor?5iterator?8@ 1004cbbc     libvcruntime:undname.obj
 0002:00003bdc       ??_C@_0CH@OOJPLCPH@?$GAeh?5vector?5vbase?5constructor?5it@ 1004cbdc     libvcruntime:undname.obj
 0002:00003c04       ??_C@_0BL@LLKPOHJI@?$GAcopy?5constructor?5closure?8@ 1004cc04     libvcruntime:undname.obj
 0002:00003c20       ??_C@_0BA@KBCDOMBN@?$GAudt?5returning?8@ 1004cc20     libvcruntime:undname.obj
 0002:00003c30       ??_C@_03KLGMFNMG@?$GAEH@   1004cc30     libvcruntime:undname.obj
 0002:00003c34       ??_C@_05KHLCHHI@?$GARTTI@  1004cc34     libvcruntime:undname.obj
 0002:00003c3c       ??_C@_0BA@KKLDJDLB@?$GAlocal?5vftable?8@ 1004cc3c     libvcruntime:undname.obj
 0002:00003c4c       ??_C@_0CE@IIHCMGGL@?$GAlocal?5vftable?5constructor?5clos@ 1004cc4c     libvcruntime:undname.obj
 0002:00003c70       ??_C@_06FHBGPFGH@?5new?$FL?$FN@ 1004cc70     libvcruntime:undname.obj
 0002:00003c78       ??_C@_09LBNFPBCA@?5delete?$FL?$FN@ 1004cc78     libvcruntime:undname.obj
 0002:00003c84       ??_C@_0P@HJKNJFNN@?$GAomni?5callsig?8@ 1004cc84     libvcruntime:undname.obj
 0002:00003c94       ??_C@_0BL@CNOONJFP@?$GAplacement?5delete?5closure?8@ 1004cc94     libvcruntime:undname.obj
 0002:00003cb0       ??_C@_0BN@CKNJLHMB@?$GAplacement?5delete?$FL?$FN?5closure?8@ 1004ccb0     libvcruntime:undname.obj
 0002:00003cd0       ??_C@_0CG@CFDHKGGD@?$GAmanaged?5vector?5constructor?5ite@ 1004ccd0     libvcruntime:undname.obj
 0002:00003cf8       ??_C@_0CF@IMGKMJNO@?$GAmanaged?5vector?5destructor?5iter@ 1004ccf8     libvcruntime:undname.obj
 0002:00003d20       ??_C@_0CG@HLDDJMAG@?$GAeh?5vector?5copy?5constructor?5ite@ 1004cd20     libvcruntime:undname.obj
 0002:00003d48       ??_C@_0CM@FCBBDIGB@?$GAeh?5vector?5vbase?5copy?5construct@ 1004cd48     libvcruntime:undname.obj
 0002:00003d74       ??_C@_0BL@CLIPGLGB@?$GAdynamic?5initializer?5for?5?8@ 1004cd74     libvcruntime:undname.obj
 0002:00003d90       ??_C@_0CB@PDBIFEP@?$GAdynamic?5atexit?5destructor?5for?5@ 1004cd90     libvcruntime:undname.obj
 0002:00003db4       ??_C@_0CD@CGAJBKEJ@?$GAvector?5copy?5constructor?5iterat@ 1004cdb4     libvcruntime:undname.obj
 0002:00003dd8       ??_C@_0CJ@GJELGAMM@?$GAvector?5vbase?5copy?5constructor?5@ 1004cdd8     libvcruntime:undname.obj
 0002:00003e04       ??_C@_0CL@FGIJHLCE@?$GAmanaged?5vector?5copy?5constructo@ 1004ce04     libvcruntime:undname.obj
 0002:00003e30       ??_C@_0BM@PMGGMLDN@?$GAlocal?5static?5thread?5guard?8@ 1004ce30     libvcruntime:undname.obj
 0002:00003e4c       ??_C@_0N@BDNMDMOL@operator?5?$CC?$CC?5@ 1004ce4c     libvcruntime:undname.obj
 0002:00003e5c       ??_C@_0BC@GGEBGALA@operator?5co_await@ 1004ce5c     libvcruntime:undname.obj
 0002:00003e70       ??_C@_0BC@DAFEJGAK@?5Type?5Descriptor?8@ 1004ce70     libvcruntime:undname.obj
 0002:00003e84       ??_C@_0BM@LDKODKLH@?5Base?5Class?5Descriptor?5at?5?$CI@ 1004ce84     libvcruntime:undname.obj
 0002:00003ea0       ??_C@_0BD@LGICGFMM@?5Base?5Class?5Array?8@ 1004cea0     libvcruntime:undname.obj
 0002:00003eb4       ??_C@_0BN@MECKDCOJ@?5Class?5Hierarchy?5Descriptor?8@ 1004ceb4     libvcruntime:undname.obj
 0002:00003ed4       ??_C@_0BK@CFCOFLF@?5Complete?5Object?5Locator?8@ 1004ced4     libvcruntime:undname.obj
 0002:00003ef0       ??_C@_1FE@LHBLIKM@?$AAA?$AAs?$AAs?$AAe?$AAr?$AAt?$AAi?$AAo?$AAn?$AA?5?$AAf?$AAa?$AAi?$AAl?$AAe?$AAd?$AA?3?$AA?5?$AA?$CF?$AAT?$AAs?$AA?0?$AA?5?$AAf?$AAi?$AAl?$AAe?$AA?5?$AA?$CF?$AAT?$AAs?$AA?0@ 1004cef0     libucrt:assert.obj
 0002:00003f48       ??_C@_1EK@MBDPDCGA@?$AAM?$AAi?$AAc?$AAr?$AAo?$AAs?$AAo?$AAf?$AAt?$AA?5?$AAV?$AAi?$AAs?$AAu?$AAa?$AAl?$AA?5?$AAC?$AA?$CL?$AA?$CL?$AA?5?$AAR?$AAu?$AAn?$AAt?$AAi?$AAm?$AAe?$AA?5?$AAL?$AAi?$AAb@ 1004cf48     libucrt:assert.obj
 0002:00003f94       ??_C@_1CE@OJBNHDMO@?$AAA?$AAs?$AAs?$AAe?$AAr?$AAt?$AAi?$AAo?$AAn?$AA?5?$AAf?$AAa?$AAi?$AAl?$AAe?$AAd?$AA?$CB?$AA?$AA@ 1004cf94     libucrt:assert.obj
 0002:00003fb8       ??_C@_1BE@PHKBBGE@?$AAP?$AAr?$AAo?$AAg?$AAr?$AAa?$AAm?$AA?3?$AA?5?$AA?$AA@ 1004cfb8     libucrt:assert.obj
 0002:00003fcc       ??_C@_1O@HEMHKNDC@?$AAF?$AAi?$AAl?$AAe?$AA?3?$AA?5?$AA?$AA@ 1004cfcc     libucrt:assert.obj
 0002:00003fdc       ??_C@_1O@KCAFKHJE@?$AAL?$AAi?$AAn?$AAe?$AA?3?$AA?5?$AA?$AA@ 1004cfdc     libucrt:assert.obj
 0002:00003fec       ??_C@_1BK@PEDCIPMA@?$AAE?$AAx?$AAp?$AAr?$AAe?$AAs?$AAs?$AAi?$AAo?$AAn?$AA?3?$AA?5?$AA?$AA@ 1004cfec     libucrt:assert.obj
 0002:00004008       ??_C@_1OA@EGMLFBHJ@?$AAF?$AAo?$AAr?$AA?5?$AAi?$AAn?$AAf?$AAo?$AAr?$AAm?$AAa?$AAt?$AAi?$AAo?$AAn?$AA?5?$AAo?$AAn?$AA?5?$AAh?$AAo?$AAw?$AA?5?$AAy?$AAo?$AAu?$AAr?$AA?5?$AAp?$AAr?$AAo?$AAg@ 1004d008     libucrt:assert.obj
 0002:000040e8       ??_C@_1HK@POCJMFGK@?$AA?$CI?$AAP?$AAr?$AAe?$AAs?$AAs?$AA?5?$AAR?$AAe?$AAt?$AAr?$AAy?$AA?5?$AAt?$AAo?$AA?5?$AAd?$AAe?$AAb?$AAu?$AAg?$AA?5?$AAt?$AAh?$AAe?$AA?5?$AAa?$AAp?$AAp?$AAl?$AAi?$AAc@ 1004d0e8     libucrt:assert.obj
 0002:00004164       ??_C@_17LGKOMLJ@?$AA?4?$AA?4?$AA?4?$AA?$AA@ 1004d164     libucrt:assert.obj
 0002:0000416c       ??_C@_13LBAGMAIH@?$AA?6?$AA?$AA@ 1004d16c     libucrt:assert.obj
 0002:00004170       ??_C@_15IABLJNFO@?$AA?6?$AA?6?$AA?$AA@ 1004d170     libucrt:assert.obj
 0002:00004178       ??_C@_1CO@EAEJAADC@?$AA?$DM?$AAp?$AAr?$AAo?$AAg?$AAr?$AAa?$AAm?$AA?5?$AAn?$AAa?$AAm?$AAe?$AA?5?$AAu?$AAn?$AAk?$AAn?$AAo?$AAw?$AAn?$AA?$DO?$AA?$AA@ 1004d178     libucrt:assert.obj
 0002:000041a8       _standard_lookup_table     1004d1a8     libucrt:output.obj
 0002:00004204       ??_C@_1O@CEDCILHN@?$AA?$CI?$AAn?$AAu?$AAl?$AAl?$AA?$CJ?$AA?$AA@ 1004d204     libucrt:output.obj
 0002:00004214       ??_C@_06OJHGLDPL@?$CInull?$CJ?$AA@ 1004d214     libucrt:output.obj
 0002:00004388       ??_C@_19DOGDICKI@?$AA?4?$AAe?$AAx?$AAe?$AA?$AA@ 1004d388     libucrt:stat.obj
 0002:00004394       ??_C@_19BDKLHPGC@?$AA?4?$AAc?$AAm?$AAd?$AA?$AA@ 1004d394     libucrt:stat.obj
 0002:000043a0       ??_C@_19PINKOIBI@?$AA?4?$AAb?$AAa?$AAt?$AA?$AA@ 1004d3a0     libucrt:stat.obj
 0002:000043ac       ??_C@_19CDGLJBOD@?$AA?4?$AAc?$AAo?$AAm?$AA?$AA@ 1004d3ac     libucrt:stat.obj
 0002:000043b8       ___newctype                1004d3b8     libucrt:ctype.obj
 0002:000046b8       ___newclmap                1004d6b8     libucrt:ctype.obj
 0002:00004838       ___newcumap                1004d838     libucrt:ctype.obj
 0002:000049b8       __wctype                   1004d9b8     libucrt:ctype.obj
 0002:00004bc0       ?large_power_data@?1??multiply_by_power_of_ten@__crt_strtox@@YA_NAAUbig_integer@2@I@Z@4QBIB 1004dbc0     libucrt:strtod.obj
 0002:000054c8       ?large_power_indices@?1??multiply_by_power_of_ten@__crt_strtox@@YA_NAAUbig_integer@2@I@Z@4QBUunpack_index@?1??12@YA_N0I@Z@B 1004e4c8     libucrt:strtod.obj
 0002:00005560       ?small_powers_of_ten@?1??multiply_by_power_of_ten@__crt_strtox@@YA_NAAUbig_integer@2@I@Z@4QBIB 1004e560     libucrt:strtod.obj
 0002:00005594       __half                     1004e594     libucrt:pow_impl.obj
 0002:000055a0       ___acrt_exception_action_table 1004e5a0     libucrt:exception_filter.obj
 0002:00005630       ___acrt_signal_action_table_count 1004e630     libucrt:exception_filter.obj
 0002:00005634       ___acrt_signal_action_first_fpe_index 1004e634     libucrt:exception_filter.obj
 0002:00005638       ___acrt_signal_action_fpe_count 1004e638     libucrt:exception_filter.obj
 0002:0000563c       ??_C@_1BI@BGOHAHKC@?$AAm?$AAs?$AAc?$AAo?$AAr?$AAe?$AAe?$AA?4?$AAd?$AAl?$AAl?$AA?$AA@ 1004e63c     libucrt:exit.obj
 0002:00005654       ??_C@_0P@MIGLKIOC@CorExitProcess?$AA@ 1004e654     libucrt:exit.obj
 0002:00005768       ___lc_category             1004e768     libucrt:wsetlocale.obj
 0002:000057b0       ??_C@_1O@GIFLHMA@?$AAL?$AAC?$AA_?$AAA?$AAL?$AAL?$AA?$AA@ 1004e7b0     libucrt:wsetlocale.obj
 0002:000057c0       ??_C@_1BG@PPOMIBNJ@?$AAL?$AAC?$AA_?$AAC?$AAO?$AAL?$AAL?$AAA?$AAT?$AAE?$AA?$AA@ 1004e7c0     libucrt:wsetlocale.obj
 0002:000057d8       ??_C@_1BC@FFJGAPJM@?$AAL?$AAC?$AA_?$AAC?$AAT?$AAY?$AAP?$AAE?$AA?$AA@ 1004e7d8     libucrt:wsetlocale.obj
 0002:000057ec       ??_C@_1BI@PCKFNJFB@?$AAL?$AAC?$AA_?$AAM?$AAO?$AAN?$AAE?$AAT?$AAA?$AAR?$AAY?$AA?$AA@ 1004e7ec     libucrt:wsetlocale.obj
 0002:00005804       ??_C@_1BG@ENIEDKID@?$AAL?$AAC?$AA_?$AAN?$AAU?$AAM?$AAE?$AAR?$AAI?$AAC?$AA?$AA@ 1004e804     libucrt:wsetlocale.obj
 0002:0000581c       ??_C@_1BA@HAAOMIIG@?$AAL?$AAC?$AA_?$AAT?$AAI?$AAM?$AAE?$AA?$AA@ 1004e81c     libucrt:wsetlocale.obj
 0002:0000582c       ??_C@_15NBPDDFIP@?$AA?$DN?$AA?$DL?$AA?$AA@ 1004e82c     libucrt:wsetlocale.obj
 0002:00005834       ??_C@_13PJJBFPED@?$AA?$DL?$AA?$AA@ 1004e834     libucrt:wsetlocale.obj
 0002:00005838       ??_C@_13NMPKAAJP@?$AA?$DN?$AA?$AA@ 1004e838     libucrt:wsetlocale.obj
 0002:0000583c       ??_C@_13FHBKNHDA@?$AAC?$AA?$AA@ 1004e83c     libucrt:wsetlocale.obj
 0002:00005840       ??_C@_19MPDNHKDG@?$AAu?$AAt?$AAf?$AA8?$AA?$AA@ 1004e840     libucrt:wsetlocale.obj
 0002:0000584c       ??_C@_1M@FPEIIFAM@?$AAu?$AAt?$AAf?$AA?9?$AA8?$AA?$AA@ 1004e84c     libucrt:wsetlocale.obj
 0002:00005858       ??_C@_17MBJJLFDM@?$AA_?$AA?4?$AA?0?$AA?$AA@ 1004e858     libucrt:wsetlocale.obj
 0002:00005860       ??_C@_13ENNFDPBH@?$AA_?$AA?$AA@ 1004e860     libucrt:wsetlocale.obj
 0002:00005864       ??_C@_13JOFGPIOO@?$AA?4?$AA?$AA@ 1004e864     libucrt:wsetlocale.obj
 0002:00005868       ___lc_time_c               1004e868     libucrt:nlsdata.obj
 0002:000059cc       ??_C@_03KOEHGMDN@Sun?$AA@  1004e9cc     libucrt:nlsdata.obj
 0002:000059d0       ??_C@_03PDAGKDH@Mon?$AA@   1004e9d0     libucrt:nlsdata.obj
 0002:000059d4       ??_C@_03NAGEINEP@Tue?$AA@  1004e9d4     libucrt:nlsdata.obj
 0002:000059d8       ??_C@_03MHOMLAJA@Wed?$AA@  1004e9d8     libucrt:nlsdata.obj
 0002:000059dc       ??_C@_03IOFIKPDN@Thu?$AA@  1004e9dc     libucrt:nlsdata.obj
 0002:000059e0       ??_C@_03IDIOELNC@Fri?$AA@  1004e9e0     libucrt:nlsdata.obj
 0002:000059e4       ??_C@_03FEFJNEK@Sat?$AA@   1004e9e4     libucrt:nlsdata.obj
 0002:000059e8       ??_C@_06OOPIFAJ@Sunday?$AA@ 1004e9e8     libucrt:nlsdata.obj
 0002:000059f0       ??_C@_06JLEDEDGH@Monday?$AA@ 1004e9f0     libucrt:nlsdata.obj
 0002:000059f8       ??_C@_07BAAGCFCM@Tuesday?$AA@ 1004e9f8     libucrt:nlsdata.obj
 0002:00005a00       ??_C@_09DLIGFAKA@Wednesday?$AA@ 1004ea00     libucrt:nlsdata.obj
 0002:00005a0c       ??_C@_08HACCIKIA@Thursday?$AA@ 1004ea0c     libucrt:nlsdata.obj
 0002:00005a18       ??_C@_06JECMNKMI@Friday?$AA@ 1004ea18     libucrt:nlsdata.obj
 0002:00005a20       ??_C@_08INBOOONO@Saturday?$AA@ 1004ea20     libucrt:nlsdata.obj
 0002:00005a2c       ??_C@_03JIHJHPIE@Jan?$AA@  1004ea2c     libucrt:nlsdata.obj
 0002:00005a30       ??_C@_03HJBDCHOM@Feb?$AA@  1004ea30     libucrt:nlsdata.obj
 0002:00005a34       ??_C@_03ODNJBKGA@Mar?$AA@  1004ea34     libucrt:nlsdata.obj
 0002:00005a38       ??_C@_03LEOLGMJP@Apr?$AA@  1004ea38     libucrt:nlsdata.obj
 0002:00005a3c       ??_C@_03CNMDKL@May?$AA@    1004ea3c     libucrt:nlsdata.obj
 0002:00005a40       ??_C@_03IDFGHECI@Jun?$AA@  1004ea40     libucrt:nlsdata.obj
 0002:00005a44       ??_C@_03LBGABGKK@Jul?$AA@  1004ea44     libucrt:nlsdata.obj
 0002:00005a48       ??_C@_03IFJFEIGA@Aug?$AA@  1004ea48     libucrt:nlsdata.obj
 0002:00005a4c       ??_C@_03GGCAPAJC@Sep?$AA@  1004ea4c     libucrt:nlsdata.obj
 0002:00005a50       ??_C@_03BMAOKBAD@Oct?$AA@  1004ea50     libucrt:nlsdata.obj
 0002:00005a54       ??_C@_03JPJOFNIA@Nov?$AA@  1004ea54     libucrt:nlsdata.obj
 0002:00005a58       ??_C@_03MKABNOCG@Dec?$AA@  1004ea58     libucrt:nlsdata.obj
 0002:00005a5c       ??_C@_07CGJPFGJA@January?$AA@ 1004ea5c     libucrt:nlsdata.obj
 0002:00005a64       ??_C@_08GNJGEPFN@February?$AA@ 1004ea64     libucrt:nlsdata.obj
 0002:00005a70       ??_C@_05HPCKOFNC@March?$AA@ 1004ea70     libucrt:nlsdata.obj
 0002:00005a78       ??_C@_05DMJDNLEJ@April?$AA@ 1004ea78     libucrt:nlsdata.obj
 0002:00005a80       ??_C@_04CNLMGBGM@June?$AA@ 1004ea80     libucrt:nlsdata.obj
 0002:00005a88       ??_C@_04MIEPOIFP@July?$AA@ 1004ea88     libucrt:nlsdata.obj
 0002:00005a90       ??_C@_06LBBHFDDG@August?$AA@ 1004ea90     libucrt:nlsdata.obj
 0002:00005a98       ??_C@_09BHHEALKD@September?$AA@ 1004ea98     libucrt:nlsdata.obj
 0002:00005aa4       ??_C@_07JJNFCEND@October?$AA@ 1004eaa4     libucrt:nlsdata.obj
 0002:00005aac       ??_C@_08HCHEGEOA@November?$AA@ 1004eaac     libucrt:nlsdata.obj
 0002:00005ab8       ??_C@_08EDHMEBNP@December?$AA@ 1004eab8     libucrt:nlsdata.obj
 0002:00005ac4       ??_C@_02DEDBPAFC@AM?$AA@   1004eac4     libucrt:nlsdata.obj
 0002:00005ac8       ??_C@_02CJNFDJBF@PM?$AA@   1004eac8     libucrt:nlsdata.obj
 0002:00005acc       ??_C@_08BPBNCDIB@MM?1dd?1yy?$AA@ 1004eacc     libucrt:nlsdata.obj
 0002:00005ad8       ??_C@_0BE@CKGJFCPC@dddd?0?5MMMM?5dd?0?5yyyy?$AA@ 1004ead8     libucrt:nlsdata.obj
 0002:00005aec       ??_C@_08JCCMCCIL@HH?3mm?3ss?$AA@ 1004eaec     libucrt:nlsdata.obj
 0002:00005af8       ??_C@_17MBGCMIPB@?$AAS?$AAu?$AAn?$AA?$AA@ 1004eaf8     libucrt:nlsdata.obj
 0002:00005b00       ??_C@_17KBOMKBF@?$AAM?$AAo?$AAn?$AA?$AA@ 1004eb00     libucrt:nlsdata.obj
 0002:00005b08       ??_C@_17BMKGEGOJ@?$AAT?$AAu?$AAe?$AA?$AA@ 1004eb08     libucrt:nlsdata.obj
 0002:00005b10       ??_C@_17CJEDCEPE@?$AAW?$AAe?$AAd?$AA?$AA@ 1004eb10     libucrt:nlsdata.obj
 0002:00005b18       ??_C@_17PDPHAADD@?$AAT?$AAh?$AAu?$AA?$AA@ 1004eb18     libucrt:nlsdata.obj
 0002:00005b20       ??_C@_17HFOLPPLP@?$AAF?$AAr?$AAi?$AA?$AA@ 1004eb20     libucrt:nlsdata.obj
 0002:00005b28       ??_C@_17GGIBDPIH@?$AAS?$AAa?$AAt?$AA?$AA@ 1004eb28     libucrt:nlsdata.obj
 0002:00005b30       ??_C@_1O@IHNHDHPB@?$AAS?$AAu?$AAn?$AAd?$AAa?$AAy?$AA?$AA@ 1004eb30     libucrt:nlsdata.obj
 0002:00005b40       ??_C@_1O@MMNBFLIA@?$AAM?$AAo?$AAn?$AAd?$AAa?$AAy?$AA?$AA@ 1004eb40     libucrt:nlsdata.obj
 0002:00005b50       ??_C@_1BA@ENFBFFEK@?$AAT?$AAu?$AAe?$AAs?$AAd?$AAa?$AAy?$AA?$AA@ 1004eb50     libucrt:nlsdata.obj
 0002:00005b60       ??_C@_1BE@EBOGMDOH@?$AAW?$AAe?$AAd?$AAn?$AAe?$AAs?$AAd?$AAa?$AAy?$AA?$AA@ 1004eb60     libucrt:nlsdata.obj
 0002:00005b74       ??_C@_1BC@HHMNLIHE@?$AAT?$AAh?$AAu?$AAr?$AAs?$AAd?$AAa?$AAy?$AA?$AA@ 1004eb74     libucrt:nlsdata.obj
 0002:00005b88       ??_C@_1O@PDICJHAG@?$AAF?$AAr?$AAi?$AAd?$AAa?$AAy?$AA?$AA@ 1004eb88     libucrt:nlsdata.obj
 0002:00005b98       ??_C@_1BC@ENMNNPAJ@?$AAS?$AAa?$AAt?$AAu?$AAr?$AAd?$AAa?$AAy?$AA?$AA@ 1004eb98     libucrt:nlsdata.obj
 0002:00005bac       ??_C@_17DKNBKCHM@?$AAJ?$AAa?$AAn?$AA?$AA@ 1004ebac     libucrt:nlsdata.obj
 0002:00005bb4       ??_C@_17LMDJEKJN@?$AAF?$AAe?$AAb?$AA?$AA@ 1004ebb4     libucrt:nlsdata.obj
 0002:00005bbc       ??_C@_17CKNLEDEC@?$AAM?$AAa?$AAr?$AA?$AA@ 1004ebbc     libucrt:nlsdata.obj
 0002:00005bc4       ??_C@_17LFPOIHDD@?$AAA?$AAp?$AAr?$AA?$AA@ 1004ebc4     libucrt:nlsdata.obj
 0002:00005bcc       ??_C@_17PNNKMEED@?$AAM?$AAa?$AAy?$AA?$AA@ 1004ebcc     libucrt:nlsdata.obj
 0002:00005bd4       ??_C@_17KCJGOCPB@?$AAJ?$AAu?$AAn?$AA?$AA@ 1004ebd4     libucrt:nlsdata.obj
 0002:00005bdc       ??_C@_17IJPCKHK@?$AAJ?$AAu?$AAl?$AA?$AA@ 1004ebdc     libucrt:nlsdata.obj
 0002:00005be4       ??_C@_17ICPELBCN@?$AAA?$AAu?$AAg?$AA?$AA@ 1004ebe4     libucrt:nlsdata.obj
 0002:00005bec       ??_C@_17HCHCOKMG@?$AAS?$AAe?$AAp?$AA?$AA@ 1004ebec     libucrt:nlsdata.obj
 0002:00005bf4       ??_C@_17FNLKOI@?$AAO?$AAc?$AAt?$AA?$AA@ 1004ebf4     libucrt:nlsdata.obj
 0002:00005bfc       ??_C@_17BBDMLCIG@?$AAN?$AAo?$AAv?$AA?$AA@ 1004ebfc     libucrt:nlsdata.obj
 0002:00005c04       ??_C@_17EGKACKIF@?$AAD?$AAe?$AAc?$AA?$AA@ 1004ec04     libucrt:nlsdata.obj
 0002:00005c0c       ??_C@_1BA@EFMEIEBA@?$AAJ?$AAa?$AAn?$AAu?$AAa?$AAr?$AAy?$AA?$AA@ 1004ec0c     libucrt:nlsdata.obj
 0002:00005c1c       ??_C@_1BC@JGDDFFAM@?$AAF?$AAe?$AAb?$AAr?$AAu?$AAa?$AAr?$AAy?$AA?$AA@ 1004ec1c     libucrt:nlsdata.obj
 0002:00005c30       ??_C@_1M@IKEENEDF@?$AAM?$AAa?$AAr?$AAc?$AAh?$AA?$AA@ 1004ec30     libucrt:nlsdata.obj
 0002:00005c3c       ??_C@_1M@GJNLMHFD@?$AAA?$AAp?$AAr?$AAi?$AAl?$AA?$AA@ 1004ec3c     libucrt:nlsdata.obj
 0002:00005c48       ??_C@_19EPFLPGAP@?$AAJ?$AAu?$AAn?$AAe?$AA?$AA@ 1004ec48     libucrt:nlsdata.obj
 0002:00005c54       ??_C@_19BIFMLPCD@?$AAJ?$AAu?$AAl?$AAy?$AA?$AA@ 1004ec54     libucrt:nlsdata.obj
 0002:00005c60       ??_C@_1O@PAHLKOAC@?$AAA?$AAu?$AAg?$AAu?$AAs?$AAt?$AA?$AA@ 1004ec60     libucrt:nlsdata.obj
 0002:00005c70       ??_C@_1BE@DKAAMBJL@?$AAS?$AAe?$AAp?$AAt?$AAe?$AAm?$AAb?$AAe?$AAr?$AA?$AA@ 1004ec70     libucrt:nlsdata.obj
 0002:00005c84       ??_C@_1BA@EPANDLNG@?$AAO?$AAc?$AAt?$AAo?$AAb?$AAe?$AAr?$AA?$AA@ 1004ec84     libucrt:nlsdata.obj
 0002:00005c94       ??_C@_1BC@BGLIFPF@?$AAN?$AAo?$AAv?$AAe?$AAm?$AAb?$AAe?$AAr?$AA?$AA@ 1004ec94     libucrt:nlsdata.obj
 0002:00005ca8       ??_C@_1BC@FEMKIFH@?$AAD?$AAe?$AAc?$AAe?$AAm?$AAb?$AAe?$AAr?$AA?$AA@ 1004eca8     libucrt:nlsdata.obj
 0002:00005cbc       ??_C@_15ODEHAHHF@?$AAA?$AAM?$AA?$AA@ 1004ecbc     libucrt:nlsdata.obj
 0002:00005cc4       ??_C@_15CLMNNGEL@?$AAP?$AAM?$AA?$AA@ 1004ecc4     libucrt:nlsdata.obj
 0002:00005ccc       ??_C@_1BC@IEBCMHCM@?$AAM?$AAM?$AA?1?$AAd?$AAd?$AA?1?$AAy?$AAy?$AA?$AA@ 1004eccc     libucrt:nlsdata.obj
 0002:00005ce0       ??_C@_1CI@KNAKOEBC@?$AAd?$AAd?$AAd?$AAd?$AA?0?$AA?5?$AAM?$AAM?$AAM?$AAM?$AA?5?$AAd?$AAd?$AA?0?$AA?5?$AAy?$AAy?$AAy?$AAy?$AA?$AA@ 1004ece0     libucrt:nlsdata.obj
 0002:00005d08       ??_C@_1BC@GDGBMEMK@?$AAH?$AAH?$AA?3?$AAm?$AAm?$AA?3?$AAs?$AAs?$AA?$AA@ 1004ed08     libucrt:nlsdata.obj
 0002:00005d1c       ??_C@_1M@BMHNFIME@?$AAe?$AAn?$AA?9?$AAU?$AAS?$AA?$AA@ 1004ed1c     libucrt:nlsdata.obj
 0002:00005e40       ??_C@_03KHJOGHMM@exp?$AA@  1004ee40     libucrt:fpexcept.obj
 0002:00005e44       ??_C@_03JGHBODFD@pow?$AA@  1004ee44     libucrt:fpexcept.obj
 0002:00005e48       ??_C@_03MGHMBJCF@log?$AA@  1004ee48     libucrt:fpexcept.obj
 0002:00005e4c       ??_C@_05HGHHAHAP@log10?$AA@ 1004ee4c     libucrt:fpexcept.obj
 0002:00005e54       ??_C@_04COOMCNPB@sinh?$AA@ 1004ee54     libucrt:fpexcept.obj
 0002:00005e5c       ??_C@_04HPJJNFIM@cosh?$AA@ 1004ee5c     libucrt:fpexcept.obj
 0002:00005e64       ??_C@_04FJHINJAO@tanh?$AA@ 1004ee64     libucrt:fpexcept.obj
 0002:00005e6c       ??_C@_04FIHNOPOL@asin?$AA@ 1004ee6c     libucrt:fpexcept.obj
 0002:00005e74       ??_C@_04PDIFKINK@acos?$AA@ 1004ee74     libucrt:fpexcept.obj
 0002:00005e7c       ??_C@_04MLLJIGOK@atan?$AA@ 1004ee7c     libucrt:fpexcept.obj
 0002:00005e84       ??_C@_05KNGEOGJB@atan2?$AA@ 1004ee84     libucrt:fpexcept.obj
 0002:00005e8c       ??_C@_04EIAKFFMI@sqrt?$AA@ 1004ee8c     libucrt:fpexcept.obj
 0002:00005e94       ??_C@_03BLEJJJBH@sin?$AA@  1004ee94     libucrt:fpexcept.obj
 0002:00005e98       ??_C@_03LALBNOCG@cos?$AA@  1004ee98     libucrt:fpexcept.obj
 0002:00005e9c       ??_C@_03IIINPABG@tan?$AA@  1004ee9c     libucrt:fpexcept.obj
 0002:00005ea0       ??_C@_04GFPJNGEK@ceil?$AA@ 1004eea0     libucrt:fpexcept.obj
 0002:00005ea8       ??_C@_05PBJFFIGL@floor?$AA@ 1004eea8     libucrt:fpexcept.obj
 0002:00005eb0       ??_C@_04ODHECPBC@fabs?$AA@ 1004eeb0     libucrt:fpexcept.obj
 0002:00005eb8       ??_C@_04EHEDPDJG@modf?$AA@ 1004eeb8     libucrt:fpexcept.obj
 0002:00005ec0       ??_C@_05CEJMAHNP@ldexp?$AA@ 1004eec0     libucrt:fpexcept.obj
 0002:00005ec8       ??_C@_05KBKMEMPO@_cabs?$AA@ 1004eec8     libucrt:fpexcept.obj
 0002:00005ed0       ??_C@_06MEIMCGCF@_hypot?$AA@ 1004eed0     libucrt:fpexcept.obj
 0002:00005ed8       ??_C@_04KEPJIHGP@fmod?$AA@ 1004eed8     libucrt:fpexcept.obj
 0002:00005ee0       ??_C@_05GKKHEGJL@frexp?$AA@ 1004eee0     libucrt:fpexcept.obj
 0002:00005ee8       ??_C@_03MJLDFKDL@_y0?$AA@  1004eee8     libucrt:fpexcept.obj
 0002:00005eec       ??_C@_03NAKIGLHK@_y1?$AA@  1004eeec     libucrt:fpexcept.obj
 0002:00005ef0       ??_C@_03ONILCKOB@_yn?$AA@  1004eef0     libucrt:fpexcept.obj
 0002:00005ef4       ??_C@_05JGDBENOH@_logb?$AA@ 1004eef4     libucrt:fpexcept.obj
 0002:00005efc       ??_C@_0L@KDOEJCKC@_nextafter?$AA@ 1004eefc     libucrt:fpexcept.obj
 0002:00005f08       __d_inf                    1004ef08     libucrt:util.obj
 0002:00005f10       __d_max                    1004ef10     libucrt:util.obj
 0002:00005f18       __d_mzero                  1004ef18     libucrt:util.obj
 0002:00005f88       ??_C@_1EA@JGEFHKEI@?$AAa?$AAp?$AAi?$AA?9?$AAm?$AAs?$AA?9?$AAw?$AAi?$AAn?$AA?9?$AAc?$AAo?$AAr?$AAe?$AA?9?$AAd?$AAa?$AAt?$AAe?$AAt?$AAi?$AAm?$AAe?$AA?9?$AAl?$AA1?$AA?9?$AA1?$AA?9?$AA1?$AA?$AA@ 1004ef88     libucrt:winapi_thunks.obj
 0002:00005fc8       ??_C@_1DM@KHCHBNEB@?$AAa?$AAp?$AAi?$AA?9?$AAm?$AAs?$AA?9?$AAw?$AAi?$AAn?$AA?9?$AAc?$AAo?$AAr?$AAe?$AA?9?$AAf?$AAi?$AAb?$AAe?$AAr?$AAs?$AA?9?$AAl?$AA1?$AA?9?$AA1?$AA?9?$AA1?$AA?$AA@ 1004efc8     libucrt:winapi_thunks.obj
 0002:00006004       ??_C@_1DI@IJCEHOCB@?$AAa?$AAp?$AAi?$AA?9?$AAm?$AAs?$AA?9?$AAw?$AAi?$AAn?$AA?9?$AAc?$AAo?$AAr?$AAe?$AA?9?$AAf?$AAi?$AAl?$AAe?$AA?9?$AAl?$AA1?$AA?9?$AA2?$AA?9?$AA2?$AA?$AA@ 1004f004     libucrt:winapi_thunks.obj
 0002:00006040       ??_C@_1EI@MPIAOHOC@?$AAa?$AAp?$AAi?$AA?9?$AAm?$AAs?$AA?9?$AAw?$AAi?$AAn?$AA?9?$AAc?$AAo?$AAr?$AAe?$AA?9?$AAl?$AAo?$AAc?$AAa?$AAl?$AAi?$AAz?$AAa?$AAt?$AAi?$AAo?$AAn?$AA?9?$AAl?$AA1?$AA?9@ 1004f040     libucrt:winapi_thunks.obj
 0002:00006088       ??_C@_1FK@FPHCKFIE@?$AAa?$AAp?$AAi?$AA?9?$AAm?$AAs?$AA?9?$AAw?$AAi?$AAn?$AA?9?$AAc?$AAo?$AAr?$AAe?$AA?9?$AAl?$AAo?$AAc?$AAa?$AAl?$AAi?$AAz?$AAa?$AAt?$AAi?$AAo?$AAn?$AA?9?$AAo?$AAb?$AAs@ 1004f088     libucrt:winapi_thunks.obj
 0002:000060e8       ??_C@_1EM@DILCGIIO@?$AAa?$AAp?$AAi?$AA?9?$AAm?$AAs?$AA?9?$AAw?$AAi?$AAn?$AA?9?$AAc?$AAo?$AAr?$AAe?$AA?9?$AAp?$AAr?$AAo?$AAc?$AAe?$AAs?$AAs?$AAt?$AAh?$AAr?$AAe?$AAa?$AAd?$AAs?$AA?9?$AAl@ 1004f0e8     libucrt:winapi_thunks.obj
 0002:00006134       ??_C@_1DM@LNCGDDPN@?$AAa?$AAp?$AAi?$AA?9?$AAm?$AAs?$AA?9?$AAw?$AAi?$AAn?$AA?9?$AAc?$AAo?$AAr?$AAe?$AA?9?$AAs?$AAt?$AAr?$AAi?$AAn?$AAg?$AA?9?$AAl?$AA1?$AA?9?$AA1?$AA?9?$AA0?$AA?$AA@ 1004f134     libucrt:winapi_thunks.obj
 0002:00006170       ??_C@_1DK@LPPGFMPP@?$AAa?$AAp?$AAi?$AA?9?$AAm?$AAs?$AA?9?$AAw?$AAi?$AAn?$AA?9?$AAc?$AAo?$AAr?$AAe?$AA?9?$AAs?$AAy?$AAn?$AAc?$AAh?$AA?9?$AAl?$AA1?$AA?9?$AA2?$AA?9?$AA0?$AA?$AA@ 1004f170     libucrt:winapi_thunks.obj
 0002:000061ac       ??_C@_1DO@FPAPJEMD@?$AAa?$AAp?$AAi?$AA?9?$AAm?$AAs?$AA?9?$AAw?$AAi?$AAn?$AA?9?$AAc?$AAo?$AAr?$AAe?$AA?9?$AAs?$AAy?$AAs?$AAi?$AAn?$AAf?$AAo?$AA?9?$AAl?$AA1?$AA?9?$AA2?$AA?9?$AA1?$AA?$AA@ 1004f1ac     libucrt:winapi_thunks.obj
 0002:000061ec       ??_C@_1DK@NDHNAHIO@?$AAa?$AAp?$AAi?$AA?9?$AAm?$AAs?$AA?9?$AAw?$AAi?$AAn?$AA?9?$AAc?$AAo?$AAr?$AAe?$AA?9?$AAw?$AAi?$AAn?$AAr?$AAt?$AA?9?$AAl?$AA1?$AA?9?$AA1?$AA?9?$AA0?$AA?$AA@ 1004f1ec     libucrt:winapi_thunks.obj
 0002:00006228       ??_C@_1DM@KGHDGBCM@?$AAa?$AAp?$AAi?$AA?9?$AAm?$AAs?$AA?9?$AAw?$AAi?$AAn?$AA?9?$AAc?$AAo?$AAr?$AAe?$AA?9?$AAx?$AAs?$AAt?$AAa?$AAt?$AAe?$AA?9?$AAl?$AA2?$AA?9?$AA1?$AA?9?$AA0?$AA?$AA@ 1004f228     libucrt:winapi_thunks.obj
 0002:00006268       ??_C@_1EO@IJIOEFOH@?$AAa?$AAp?$AAi?$AA?9?$AAm?$AAs?$AA?9?$AAw?$AAi?$AAn?$AA?9?$AAr?$AAt?$AAc?$AAo?$AAr?$AAe?$AA?9?$AAn?$AAt?$AAu?$AAs?$AAe?$AAr?$AA?9?$AAw?$AAi?$AAn?$AAd?$AAo?$AAw?$AA?9@ 1004f268     libucrt:winapi_thunks.obj
 0002:000062b8       ??_C@_1FG@HHGEKANL@?$AAa?$AAp?$AAi?$AA?9?$AAm?$AAs?$AA?9?$AAw?$AAi?$AAn?$AA?9?$AAs?$AAe?$AAc?$AAu?$AAr?$AAi?$AAt?$AAy?$AA?9?$AAs?$AAy?$AAs?$AAt?$AAe?$AAm?$AAf?$AAu?$AAn?$AAc?$AAt?$AAi@ 1004f2b8     libucrt:winapi_thunks.obj
 0002:00006310       ??_C@_1EG@DBIOJECG@?$AAe?$AAx?$AAt?$AA?9?$AAm?$AAs?$AA?9?$AAw?$AAi?$AAn?$AA?9?$AAn?$AAt?$AAu?$AAs?$AAe?$AAr?$AA?9?$AAd?$AAi?$AAa?$AAl?$AAo?$AAg?$AAb?$AAo?$AAx?$AA?9?$AAl?$AA1?$AA?9?$AA1@ 1004f310     libucrt:winapi_thunks.obj
 0002:00006358       ??_C@_1EO@FIHMJCLF@?$AAe?$AAx?$AAt?$AA?9?$AAm?$AAs?$AA?9?$AAw?$AAi?$AAn?$AA?9?$AAn?$AAt?$AAu?$AAs?$AAe?$AAr?$AA?9?$AAw?$AAi?$AAn?$AAd?$AAo?$AAw?$AAs?$AAt?$AAa?$AAt?$AAi?$AAo?$AAn?$AA?9@ 1004f358     libucrt:winapi_thunks.obj
 0002:000063a8       ??_C@_1BC@DNHGCMLG@?$AAa?$AAd?$AAv?$AAa?$AAp?$AAi?$AA3?$AA2?$AA?$AA@ 1004f3a8     libucrt:winapi_thunks.obj
 0002:000063bc       ??_C@_1BC@GDMECMAK@?$AAk?$AAe?$AAr?$AAn?$AAe?$AAl?$AA3?$AA2?$AA?$AA@ 1004f3bc     libucrt:winapi_thunks.obj
 0002:000063d0       ??_C@_1M@OAIMIKLP@?$AAn?$AAt?$AAd?$AAl?$AAl?$AA?$AA@ 1004f3d0     libucrt:winapi_thunks.obj
 0002:000063e0       ??_C@_1EG@DPGNFKGC@?$AAa?$AAp?$AAi?$AA?9?$AAm?$AAs?$AA?9?$AAw?$AAi?$AAn?$AA?9?$AAa?$AAp?$AAp?$AAm?$AAo?$AAd?$AAe?$AAl?$AA?9?$AAr?$AAu?$AAn?$AAt?$AAi?$AAm?$AAe?$AA?9?$AAl?$AA1?$AA?9?$AA1@ 1004f3e0     libucrt:winapi_thunks.obj
 0002:00006428       ??_C@_1O@BCCLBEOE@?$AAu?$AAs?$AAe?$AAr?$AA3?$AA2?$AA?$AA@ 1004f428     libucrt:winapi_thunks.obj
 0002:00006438       ??_C@_1BA@PFFKHIOG@?$AAa?$AAp?$AAi?$AA?9?$AAm?$AAs?$AA?9?$AA?$AA@ 1004f438     libucrt:winapi_thunks.obj
 0002:00006448       ??_C@_1BA@IAIFMGEF@?$AAe?$AAx?$AAt?$AA?9?$AAm?$AAs?$AA?9?$AA?$AA@ 1004f448     libucrt:winapi_thunks.obj
 0002:0000645c       ??_C@_0BA@FHFNEAED@AreFileApisANSI?$AA@ 1004f45c     libucrt:winapi_thunks.obj
 0002:00006474       ??_C@_0BA@IHGNDAEB@CompareStringEx?$AA@ 1004f474     libucrt:winapi_thunks.obj
 0002:0000648c       ??_C@_0BE@LJANKFHF@EnumSystemLocalesEx?$AA@ 1004f48c     libucrt:winapi_thunks.obj
 0002:000064a8       ??_C@_08KNHFBNJ@FlsAlloc?$AA@ 1004f4a8     libucrt:winapi_thunks.obj
 0002:000064bc       ??_C@_07PEJMOBNF@FlsFree?$AA@ 1004f4bc     libucrt:winapi_thunks.obj
 0002:000064cc       ??_C@_0M@GDNOONDI@FlsGetValue?$AA@ 1004f4cc     libucrt:winapi_thunks.obj
 0002:000064e0       ??_C@_0M@JCPCPOEF@FlsSetValue?$AA@ 1004f4e0     libucrt:winapi_thunks.obj
 0002:000064f4       ??_C@_0BA@HNOPNCHB@GetActiveWindow?$AA@ 1004f4f4     libucrt:winapi_thunks.obj
 0002:0000650c       ??_C@_0BA@EPCJIIPD@GetDateFormatEx?$AA@ 1004f50c     libucrt:winapi_thunks.obj
 0002:00006524       ??_C@_0BD@HHGDFDBJ@GetLastActivePopup?$AA@ 1004f524     libucrt:winapi_thunks.obj
 0002:00006540       ??_C@_0BA@ONOKGCMP@GetLocaleInfoEx?$AA@ 1004f540     libucrt:winapi_thunks.obj
 0002:00006558       ??_C@_0BI@DFKBFLJE@GetProcessWindowStation?$AA@ 1004f558     libucrt:winapi_thunks.obj
 0002:00006578       ??_C@_0BA@CIJJKCJJ@GetTimeFormatEx?$AA@ 1004f578     libucrt:winapi_thunks.obj
 0002:00006590       ??_C@_0BJ@PBCCBIPI@GetUserDefaultLocaleName?$AA@ 1004f590     libucrt:winapi_thunks.obj
 0002:000065b4       ??_C@_0BK@DEKFELLI@GetUserObjectInformationW?$AA@ 1004f5b4     libucrt:winapi_thunks.obj
 0002:000065d8       ??_C@_0BM@HCFOFFN@InitializeCriticalSectionEx?$AA@ 1004f5d8     libucrt:winapi_thunks.obj
 0002:000065fc       ??_C@_0BC@CELBKLLA@IsValidLocaleName?$AA@ 1004f5fc     libucrt:winapi_thunks.obj
 0002:00006618       ??_C@_0O@KKBNKAPF@LCMapStringEx?$AA@ 1004f618     libucrt:winapi_thunks.obj
 0002:00006630       ??_C@_0BB@CDHDDLLP@LCIDToLocaleName?$AA@ 1004f630     libucrt:winapi_thunks.obj
 0002:0000664c       ??_C@_0BB@HBDEELFH@LocaleNameToLCID?$AA@ 1004f64c     libucrt:winapi_thunks.obj
 0002:00006668       ??_C@_0M@CHKKJDAI@MessageBoxA?$AA@ 1004f668     libucrt:winapi_thunks.obj
 0002:0000667c       ??_C@_0M@DLDCCGNP@MessageBoxW?$AA@ 1004f67c     libucrt:winapi_thunks.obj
 0002:0000668c       ??_C@_0CF@OJOFEIGO@AppPolicyGetProcessTerminationMe@ 1004f68c     libucrt:winapi_thunks.obj
 0002:000066b8       ??_C@_0CE@OICFMIKE@AppPolicyGetShowDeveloperDiagnos@ 1004f6b8     libucrt:winapi_thunks.obj
 0002:000066e0       ??_C@_0BL@ODDJNEDA@AppPolicyGetWindowingModel?$AA@ 1004f6e0     libucrt:winapi_thunks.obj
 0002:000066fc       ??_C@_03OEIAHPBN@INF?$AA@  1004f6fc     libucrt:cvt.obj
 0002:00006700       ??_C@_03OJHLLCGB@inf?$AA@  1004f700     libucrt:cvt.obj
 0002:00006704       ??_C@_03LKNCIKJB@NAN?$AA@  1004f704     libucrt:cvt.obj
 0002:00006708       ??_C@_03LHCJEHON@nan?$AA@  1004f708     libucrt:cvt.obj
 0002:0000670c       ??_C@_09OFJJIMPC@NAN?$CISNAN?$CJ?$AA@ 1004f70c     libucrt:cvt.obj
 0002:00006718       ??_C@_09IPFBKMDL@nan?$CIsnan?$CJ?$AA@ 1004f718     libucrt:cvt.obj
 0002:00006724       ??_C@_08IKHNHAJ@NAN?$CIIND?$CJ?$AA@ 1004f724     libucrt:cvt.obj
 0002:00006730       ??_C@_08OFCDMILK@nan?$CIind?$CJ?$AA@ 1004f730     libucrt:cvt.obj
 0002:0000673c       ??_C@_05KLBDPFGC@e?$CL000?$AA@ 1004f73c     libucrt:cvt.obj
 0002:00006744       ?ccs@?1???$__acrt_stdio_parse_mode@D@@YA?AU__acrt_stdio_stream_mode@@QBD@Z@4QBDB 1004f744     libucrt:openfile.obj
 0002:00006748       ?utf8_encoding@?1???$__acrt_stdio_parse_mode@D@@YA?AU__acrt_stdio_stream_mode@@QBD@Z@4QBDB 1004f748     libucrt:openfile.obj
 0002:00006750       ?utf16_encoding@?1???$__acrt_stdio_parse_mode@D@@YA?AU__acrt_stdio_stream_mode@@QBD@Z@4QBDB 1004f750     libucrt:openfile.obj
 0002:00006758       ?unicode_encoding@?1???$__acrt_stdio_parse_mode@D@@YA?AU__acrt_stdio_stream_mode@@QBD@Z@4QBDB 1004f758     libucrt:openfile.obj
 0002:00006820       __infinity                 1004f820     libucrt:87tran.obj
 0002:0000682a       __minfinity                1004f82a     libucrt:87tran.obj
 0002:00006834       __logemax                  1004f834     libucrt:87tran.obj
 0002:0000685a       __OP_EXPjmptab             1004f85a     libucrt:87tran.obj
 0002:00006880       __indefinite               1004f880     libucrt:87disp.obj
 0002:0000688a       __piby2                    1004f88a     libucrt:87disp.obj
 0002:00006894       __piby4                    1004f894     libucrt:87disp.obj
 0002:000068c8       __DEFAULT_CW_in_mem        1004f8c8     libucrt:common.obj
 0002:000068ca       __pi_by_2_to_61            1004f8ca     libucrt:common.obj
 0002:00006904       ??_C@_02CLFPBFFP@TZ?$AA@   1004f904     libucrt:tzset.obj
 0002:00006918       ??_C@_1M@HPNHIDJI@?$AAj?$AAa?$AA?9?$AAJ?$AAP?$AA?$AA@ 1004f918     libucrt:mbctype.obj
 0002:00006924       ??_C@_1M@BIBDDEMK@?$AAz?$AAh?$AA?9?$AAC?$AAN?$AA?$AA@ 1004f924     libucrt:mbctype.obj
 0002:00006930       ??_C@_1M@JLOOOEGK@?$AAk?$AAo?$AA?9?$AAK?$AAR?$AA?$AA@ 1004f930     libucrt:mbctype.obj
 0002:0000693c       ??_C@_1M@CLNBBOPM@?$AAz?$AAh?$AA?9?$AAT?$AAW?$AA?$AA@ 1004f93c     libucrt:mbctype.obj
 0002:00006948       ___acrt_rg_language        1004f948     libucrt:get_qualified_locale.obj
 0002:00006c54       ___acrt_rg_language_count  1004fc54     libucrt:get_qualified_locale.obj
 0002:00006c58       ___acrt_rg_country         1004fc58     libucrt:get_qualified_locale.obj
 0002:00006d6c       ___acrt_rg_country_count   1004fd6c     libucrt:get_qualified_locale.obj
 0002:00006d70       ??_C@_1BC@LLOKLNP@?$AAa?$AAm?$AAe?$AAr?$AAi?$AAc?$AAa?$AAn?$AA?$AA@ 1004fd70     libucrt:get_qualified_locale.obj
 0002:00006d84       ??_C@_1CC@HEIGCDGG@?$AAa?$AAm?$AAe?$AAr?$AAi?$AAc?$AAa?$AAn?$AA?5?$AAe?$AAn?$AAg?$AAl?$AAi?$AAs?$AAh?$AA?$AA@ 1004fd84     libucrt:get_qualified_locale.obj
 0002:00006da8       ??_C@_1CC@IHCNOMIN@?$AAa?$AAm?$AAe?$AAr?$AAi?$AAc?$AAa?$AAn?$AA?9?$AAe?$AAn?$AAg?$AAl?$AAi?$AAs?$AAh?$AA?$AA@ 1004fda8     libucrt:get_qualified_locale.obj
 0002:00006dcc       ??_C@_1BG@GKAGPCGG@?$AAa?$AAu?$AAs?$AAt?$AAr?$AAa?$AAl?$AAi?$AAa?$AAn?$AA?$AA@ 1004fdcc     libucrt:get_qualified_locale.obj
 0002:00006de4       ??_C@_1BA@GMENCENF@?$AAb?$AAe?$AAl?$AAg?$AAi?$AAa?$AAn?$AA?$AA@ 1004fde4     libucrt:get_qualified_locale.obj
 0002:00006df4       ??_C@_1BC@PJMIIAAN@?$AAc?$AAa?$AAn?$AAa?$AAd?$AAi?$AAa?$AAn?$AA?$AA@ 1004fdf4     libucrt:get_qualified_locale.obj
 0002:00006e08       ??_C@_17NOIMNFBF@?$AAc?$AAh?$AAh?$AA?$AA@ 1004fe08     libucrt:get_qualified_locale.obj
 0002:00006e10       ??_C@_17GGDALCHA@?$AAc?$AAh?$AAi?$AA?$AA@ 1004fe10     libucrt:get_qualified_locale.obj
 0002:00006e18       ??_C@_1BA@NPNJKIBL@?$AAc?$AAh?$AAi?$AAn?$AAe?$AAs?$AAe?$AA?$AA@ 1004fe18     libucrt:get_qualified_locale.obj
 0002:00006e28       ??_C@_1CC@DINBAMMJ@?$AAc?$AAh?$AAi?$AAn?$AAe?$AAs?$AAe?$AA?9?$AAh?$AAo?$AAn?$AAg?$AAk?$AAo?$AAn?$AAg?$AA?$AA@ 1004fe28     libucrt:get_qualified_locale.obj
 0002:00006e4c       ??_C@_1CG@IOBJPACO@?$AAc?$AAh?$AAi?$AAn?$AAe?$AAs?$AAe?$AA?9?$AAs?$AAi?$AAm?$AAp?$AAl?$AAi?$AAf?$AAi?$AAe?$AAd?$AA?$AA@ 1004fe4c     libucrt:get_qualified_locale.obj
 0002:00006e74       ??_C@_1CE@GAJNDCKG@?$AAc?$AAh?$AAi?$AAn?$AAe?$AAs?$AAe?$AA?9?$AAs?$AAi?$AAn?$AAg?$AAa?$AAp?$AAo?$AAr?$AAe?$AA?$AA@ 1004fe74     libucrt:get_qualified_locale.obj
 0002:00006e98       ??_C@_1CI@PAJPIOOD@?$AAc?$AAh?$AAi?$AAn?$AAe?$AAs?$AAe?$AA?9?$AAt?$AAr?$AAa?$AAd?$AAi?$AAt?$AAi?$AAo?$AAn?$AAa?$AAl?$AA?$AA@ 1004fe98     libucrt:get_qualified_locale.obj
 0002:00006ec0       ??_C@_1BM@NILJBMMD@?$AAd?$AAu?$AAt?$AAc?$AAh?$AA?9?$AAb?$AAe?$AAl?$AAg?$AAi?$AAa?$AAn?$AA?$AA@ 1004fec0     libucrt:get_qualified_locale.obj
 0002:00006edc       ??_C@_1CC@OOJPJNEJ@?$AAe?$AAn?$AAg?$AAl?$AAi?$AAs?$AAh?$AA?9?$AAa?$AAm?$AAe?$AAr?$AAi?$AAc?$AAa?$AAn?$AA?$AA@ 1004fedc     libucrt:get_qualified_locale.obj
 0002:00006f00       ??_C@_1BI@IOLFEEM@?$AAe?$AAn?$AAg?$AAl?$AAi?$AAs?$AAh?$AA?9?$AAa?$AAu?$AAs?$AA?$AA@ 1004ff00     libucrt:get_qualified_locale.obj
 0002:00006f18       ??_C@_1BO@HFFNLENJ@?$AAe?$AAn?$AAg?$AAl?$AAi?$AAs?$AAh?$AA?9?$AAb?$AAe?$AAl?$AAi?$AAz?$AAe?$AA?$AA@ 1004ff18     libucrt:get_qualified_locale.obj
 0002:00006f38       ??_C@_1BI@HAPKJMPO@?$AAe?$AAn?$AAg?$AAl?$AAi?$AAs?$AAh?$AA?9?$AAc?$AAa?$AAn?$AA?$AA@ 1004ff38     libucrt:get_qualified_locale.obj
 0002:00006f50       ??_C@_1CE@HLNDMIOJ@?$AAe?$AAn?$AAg?$AAl?$AAi?$AAs?$AAh?$AA?9?$AAc?$AAa?$AAr?$AAi?$AAb?$AAb?$AAe?$AAa?$AAn?$AA?$AA@ 1004ff50     libucrt:get_qualified_locale.obj
 0002:00006f74       ??_C@_1BI@LDHJHHAC@?$AAe?$AAn?$AAg?$AAl?$AAi?$AAs?$AAh?$AA?9?$AAi?$AAr?$AAe?$AA?$AA@ 1004ff74     libucrt:get_qualified_locale.obj
 0002:00006f8c       ??_C@_1CA@NJMMCFOC@?$AAe?$AAn?$AAg?$AAl?$AAi?$AAs?$AAh?$AA?9?$AAj?$AAa?$AAm?$AAa?$AAi?$AAc?$AAa?$AA?$AA@ 1004ff8c     libucrt:get_qualified_locale.obj
 0002:00006fac       ??_C@_1BG@BHJEBBGG@?$AAe?$AAn?$AAg?$AAl?$AAi?$AAs?$AAh?$AA?9?$AAn?$AAz?$AA?$AA@ 1004ffac     libucrt:get_qualified_locale.obj
 0002:00006fc4       ??_C@_1CK@FGOEJJCO@?$AAe?$AAn?$AAg?$AAl?$AAi?$AAs?$AAh?$AA?9?$AAs?$AAo?$AAu?$AAt?$AAh?$AA?5?$AAa?$AAf?$AAr?$AAi?$AAc?$AAa?$AA?$AA@ 1004ffc4     libucrt:get_qualified_locale.obj
 0002:00006ff0       ??_C@_1DE@PDBJPCJ@?$AAe?$AAn?$AAg?$AAl?$AAi?$AAs?$AAh?$AA?9?$AAt?$AAr?$AAi?$AAn?$AAi?$AAd?$AAa?$AAd?$AA?5?$AAy?$AA?5?$AAt?$AAo?$AAb?$AAa?$AAg?$AAo?$AA?$AA@ 1004fff0     libucrt:get_qualified_locale.obj
 0002:00007024       ??_C@_1BG@JGCANDME@?$AAe?$AAn?$AAg?$AAl?$AAi?$AAs?$AAh?$AA?9?$AAu?$AAk?$AA?$AA@ 10050024     libucrt:get_qualified_locale.obj
 0002:0000703c       ??_C@_1BG@DINKMLE@?$AAe?$AAn?$AAg?$AAl?$AAi?$AAs?$AAh?$AA?9?$AAu?$AAs?$AA?$AA@ 1005003c     libucrt:get_qualified_locale.obj
 0002:00007054       ??_C@_1BI@NMFDBHJE@?$AAe?$AAn?$AAg?$AAl?$AAi?$AAs?$AAh?$AA?9?$AAu?$AAs?$AAa?$AA?$AA@ 10050054     libucrt:get_qualified_locale.obj
 0002:0000706c       ??_C@_1BO@OIHKJKII@?$AAf?$AAr?$AAe?$AAn?$AAc?$AAh?$AA?9?$AAb?$AAe?$AAl?$AAg?$AAi?$AAa?$AAn?$AA?$AA@ 1005006c     libucrt:get_qualified_locale.obj
 0002:0000708c       ??_C@_1CA@NKAELJKI@?$AAf?$AAr?$AAe?$AAn?$AAc?$AAh?$AA?9?$AAc?$AAa?$AAn?$AAa?$AAd?$AAi?$AAa?$AAn?$AA?$AA@ 1005008c     libucrt:get_qualified_locale.obj
 0002:000070ac       ??_C@_1CE@MGKCNLGN@?$AAf?$AAr?$AAe?$AAn?$AAc?$AAh?$AA?9?$AAl?$AAu?$AAx?$AAe?$AAm?$AAb?$AAo?$AAu?$AAr?$AAg?$AA?$AA@ 100500ac     libucrt:get_qualified_locale.obj
 0002:000070d0       ??_C@_1BK@CEGEAILM@?$AAf?$AAr?$AAe?$AAn?$AAc?$AAh?$AA?9?$AAs?$AAw?$AAi?$AAs?$AAs?$AA?$AA@ 100500d0     libucrt:get_qualified_locale.obj
 0002:000070ec       ??_C@_1CA@PAFKEOCC@?$AAg?$AAe?$AAr?$AAm?$AAa?$AAn?$AA?9?$AAa?$AAu?$AAs?$AAt?$AAr?$AAi?$AAa?$AAn?$AA?$AA@ 100500ec     libucrt:get_qualified_locale.obj
 0002:0000710c       ??_C@_1CI@HCFHGOFD@?$AAg?$AAe?$AAr?$AAm?$AAa?$AAn?$AA?9?$AAl?$AAi?$AAc?$AAh?$AAt?$AAe?$AAn?$AAs?$AAt?$AAe?$AAi?$AAn?$AA?$AA@ 1005010c     libucrt:get_qualified_locale.obj
 0002:00007134       ??_C@_1CE@FEDDNPDG@?$AAg?$AAe?$AAr?$AAm?$AAa?$AAn?$AA?9?$AAl?$AAu?$AAx?$AAe?$AAm?$AAb?$AAo?$AAu?$AAr?$AAg?$AA?$AA@ 10050134     libucrt:get_qualified_locale.obj
 0002:00007158       ??_C@_1BK@LIMINNMN@?$AAg?$AAe?$AAr?$AAm?$AAa?$AAn?$AA?9?$AAs?$AAw?$AAi?$AAs?$AAs?$AA?$AA@ 10050158     libucrt:get_qualified_locale.obj
 0002:00007174       ??_C@_1BM@LGMDBEPD@?$AAi?$AAr?$AAi?$AAs?$AAh?$AA?9?$AAe?$AAn?$AAg?$AAl?$AAi?$AAs?$AAh?$AA?$AA@ 10050174     libucrt:get_qualified_locale.obj
 0002:00007190       ??_C@_1BM@NNCFBAEE@?$AAi?$AAt?$AAa?$AAl?$AAi?$AAa?$AAn?$AA?9?$AAs?$AAw?$AAi?$AAs?$AAs?$AA?$AA@ 10050190     libucrt:get_qualified_locale.obj
 0002:000071ac       ??_C@_1BE@FEDJNPIB@?$AAn?$AAo?$AAr?$AAw?$AAe?$AAg?$AAi?$AAa?$AAn?$AA?$AA@ 100501ac     libucrt:get_qualified_locale.obj
 0002:000071c0       ??_C@_1CC@CILKDEIE@?$AAn?$AAo?$AAr?$AAw?$AAe?$AAg?$AAi?$AAa?$AAn?$AA?9?$AAb?$AAo?$AAk?$AAm?$AAa?$AAl?$AA?$AA@ 100501c0     libucrt:get_qualified_locale.obj
 0002:000071e4       ??_C@_1CE@DHMMHEPL@?$AAn?$AAo?$AAr?$AAw?$AAe?$AAg?$AAi?$AAa?$AAn?$AA?9?$AAn?$AAy?$AAn?$AAo?$AAr?$AAs?$AAk?$AA?$AA@ 100501e4     libucrt:get_qualified_locale.obj
 0002:00007208       ??_C@_1CK@OPNMHECD@?$AAp?$AAo?$AAr?$AAt?$AAu?$AAg?$AAu?$AAe?$AAs?$AAe?$AA?9?$AAb?$AAr?$AAa?$AAz?$AAi?$AAl?$AAi?$AAa?$AAn?$AA?$AA@ 10050208     libucrt:get_qualified_locale.obj
 0002:00007234       ??_C@_1CE@KEEHCDB@?$AAs?$AAp?$AAa?$AAn?$AAi?$AAs?$AAh?$AA?9?$AAa?$AAr?$AAg?$AAe?$AAn?$AAt?$AAi?$AAn?$AAa?$AA?$AA@ 10050234     libucrt:get_qualified_locale.obj
 0002:00007258       ??_C@_1CA@GIAOLHJD@?$AAs?$AAp?$AAa?$AAn?$AAi?$AAs?$AAh?$AA?9?$AAb?$AAo?$AAl?$AAi?$AAv?$AAi?$AAa?$AA?$AA@ 10050258     libucrt:get_qualified_locale.obj
 0002:00007278       ??_C@_1BM@OJNDFNPD@?$AAs?$AAp?$AAa?$AAn?$AAi?$AAs?$AAh?$AA?9?$AAc?$AAh?$AAi?$AAl?$AAe?$AA?$AA@ 10050278     libucrt:get_qualified_locale.obj
 0002:00007294       ??_C@_1CC@OCOLPALL@?$AAs?$AAp?$AAa?$AAn?$AAi?$AAs?$AAh?$AA?9?$AAc?$AAo?$AAl?$AAo?$AAm?$AAb?$AAi?$AAa?$AA?$AA@ 10050294     libucrt:get_qualified_locale.obj
 0002:000072b8       ??_C@_1CG@BPOFMKBB@?$AAs?$AAp?$AAa?$AAn?$AAi?$AAs?$AAh?$AA?9?$AAc?$AAo?$AAs?$AAt?$AAa?$AA?5?$AAr?$AAi?$AAc?$AAa?$AA?$AA@ 100502b8     libucrt:get_qualified_locale.obj
 0002:000072e0       ??_C@_1DG@IGOBAPBB@?$AAs?$AAp?$AAa?$AAn?$AAi?$AAs?$AAh?$AA?9?$AAd?$AAo?$AAm?$AAi?$AAn?$AAi?$AAc?$AAa?$AAn?$AA?5?$AAr?$AAe?$AAp?$AAu?$AAb?$AAl?$AAi?$AAc?$AA?$AA@ 100502e0     libucrt:get_qualified_locale.obj
 0002:00007318       ??_C@_1CA@JHAPGEGI@?$AAs?$AAp?$AAa?$AAn?$AAi?$AAs?$AAh?$AA?9?$AAe?$AAc?$AAu?$AAa?$AAd?$AAo?$AAr?$AA?$AA@ 10050318     libucrt:get_qualified_locale.obj
 0002:00007338       ??_C@_1CI@LAPALJPP@?$AAs?$AAp?$AAa?$AAn?$AAi?$AAs?$AAh?$AA?9?$AAe?$AAl?$AA?5?$AAs?$AAa?$AAl?$AAv?$AAa?$AAd?$AAo?$AAr?$AA?$AA@ 10050338     libucrt:get_qualified_locale.obj
 0002:00007360       ??_C@_1CE@PDGBOFOM@?$AAs?$AAp?$AAa?$AAn?$AAi?$AAs?$AAh?$AA?9?$AAg?$AAu?$AAa?$AAt?$AAe?$AAm?$AAa?$AAl?$AAa?$AA?$AA@ 10050360     libucrt:get_qualified_locale.obj
 0002:00007384       ??_C@_1CC@NBEBAODI@?$AAs?$AAp?$AAa?$AAn?$AAi?$AAs?$AAh?$AA?9?$AAh?$AAo?$AAn?$AAd?$AAu?$AAr?$AAa?$AAs?$AA?$AA@ 10050384     libucrt:get_qualified_locale.obj
 0002:000073a8       ??_C@_1CA@LLKGHBMF@?$AAs?$AAp?$AAa?$AAn?$AAi?$AAs?$AAh?$AA?9?$AAm?$AAe?$AAx?$AAi?$AAc?$AAa?$AAn?$AA?$AA@ 100503a8     libucrt:get_qualified_locale.obj
 0002:000073c8       ??_C@_1BO@LKNDOIGD@?$AAs?$AAp?$AAa?$AAn?$AAi?$AAs?$AAh?$AA?9?$AAm?$AAo?$AAd?$AAe?$AAr?$AAn?$AA?$AA@ 100503c8     libucrt:get_qualified_locale.obj
 0002:000073e8       ??_C@_1CE@NMDMOEEB@?$AAs?$AAp?$AAa?$AAn?$AAi?$AAs?$AAh?$AA?9?$AAn?$AAi?$AAc?$AAa?$AAr?$AAa?$AAg?$AAu?$AAa?$AA?$AA@ 100503e8     libucrt:get_qualified_locale.obj
 0002:0000740c       ??_C@_1BO@LLCBEJGB@?$AAs?$AAp?$AAa?$AAn?$AAi?$AAs?$AAh?$AA?9?$AAp?$AAa?$AAn?$AAa?$AAm?$AAa?$AA?$AA@ 1005040c     libucrt:get_qualified_locale.obj
 0002:0000742c       ??_C@_1CC@FKPGGIHO@?$AAs?$AAp?$AAa?$AAn?$AAi?$AAs?$AAh?$AA?9?$AAp?$AAa?$AAr?$AAa?$AAg?$AAu?$AAa?$AAy?$AA?$AA@ 1005042c     libucrt:get_qualified_locale.obj
 0002:00007450       ??_C@_1BK@CDEIHOOP@?$AAs?$AAp?$AAa?$AAn?$AAi?$AAs?$AAh?$AA?9?$AAp?$AAe?$AAr?$AAu?$AA?$AA@ 10050450     libucrt:get_qualified_locale.obj
 0002:0000746c       ??_C@_1CI@GAHAKKGP@?$AAs?$AAp?$AAa?$AAn?$AAi?$AAs?$AAh?$AA?9?$AAp?$AAu?$AAe?$AAr?$AAt?$AAo?$AA?5?$AAr?$AAi?$AAc?$AAo?$AA?$AA@ 1005046c     libucrt:get_qualified_locale.obj
 0002:00007494       ??_C@_1CA@NKJBCAGP@?$AAs?$AAp?$AAa?$AAn?$AAi?$AAs?$AAh?$AA?9?$AAu?$AAr?$AAu?$AAg?$AAu?$AAa?$AAy?$AA?$AA@ 10050494     libucrt:get_qualified_locale.obj
 0002:000074b4       ??_C@_1CE@ODILCONM@?$AAs?$AAp?$AAa?$AAn?$AAi?$AAs?$AAh?$AA?9?$AAv?$AAe?$AAn?$AAe?$AAz?$AAu?$AAe?$AAl?$AAa?$AA?$AA@ 100504b4     libucrt:get_qualified_locale.obj
 0002:000074d8       ??_C@_1CA@OBNMCGFO@?$AAs?$AAw?$AAe?$AAd?$AAi?$AAs?$AAh?$AA?9?$AAf?$AAi?$AAn?$AAl?$AAa?$AAn?$AAd?$AA?$AA@ 100504d8     libucrt:get_qualified_locale.obj
 0002:000074f8       ??_C@_1M@PIPDDPPI@?$AAs?$AAw?$AAi?$AAs?$AAs?$AA?$AA@ 100504f8     libucrt:get_qualified_locale.obj
 0002:00007504       ??_C@_15PJPFLCCM@?$AAu?$AAk?$AA?$AA@ 10050504     libucrt:get_qualified_locale.obj
 0002:0000750c       ??_C@_15GMFIMNFM@?$AAu?$AAs?$AA?$AA@ 1005050c     libucrt:get_qualified_locale.obj
 0002:00007514       ??_C@_17HAEBFAGL@?$AAu?$AAs?$AAa?$AA?$AA@ 10050514     libucrt:get_qualified_locale.obj
 0002:0000751c       ??_C@_1BA@DPFJEPHB@?$AAa?$AAm?$AAe?$AAr?$AAi?$AAc?$AAa?$AA?$AA@ 1005051c     libucrt:get_qualified_locale.obj
 0002:0000752c       ??_C@_1BA@ELOGGFK@?$AAb?$AAr?$AAi?$AAt?$AAa?$AAi?$AAn?$AA?$AA@ 1005052c     libucrt:get_qualified_locale.obj
 0002:0000753c       ??_C@_1M@GHBGIGDA@?$AAc?$AAh?$AAi?$AAn?$AAa?$AA?$AA@ 1005053c     libucrt:get_qualified_locale.obj
 0002:00007548       ??_C@_1M@NCHEJOPO@?$AAc?$AAz?$AAe?$AAc?$AAh?$AA?$AA@ 10050548     libucrt:get_qualified_locale.obj
 0002:00007554       ??_C@_1BA@BKPAPBLA@?$AAe?$AAn?$AAg?$AAl?$AAa?$AAn?$AAd?$AA?$AA@ 10050554     libucrt:get_qualified_locale.obj
 0002:00007564       ??_C@_1BM@HKBCKIPC@?$AAg?$AAr?$AAe?$AAa?$AAt?$AA?5?$AAb?$AAr?$AAi?$AAt?$AAa?$AAi?$AAn?$AA?$AA@ 10050564     libucrt:get_qualified_locale.obj
 0002:00007580       ??_C@_1BA@PPCHPGJB@?$AAh?$AAo?$AAl?$AAl?$AAa?$AAn?$AAd?$AA?$AA@ 10050580     libucrt:get_qualified_locale.obj
 0002:00007590       ??_C@_1BE@JBMPEGDG@?$AAh?$AAo?$AAn?$AAg?$AA?9?$AAk?$AAo?$AAn?$AAg?$AA?$AA@ 10050590     libucrt:get_qualified_locale.obj
 0002:000075a4       ??_C@_1BI@KOELBBPJ@?$AAn?$AAe?$AAw?$AA?9?$AAz?$AAe?$AAa?$AAl?$AAa?$AAn?$AAd?$AA?$AA@ 100505a4     libucrt:get_qualified_locale.obj
 0002:000075bc       ??_C@_15HIEBHAIO@?$AAn?$AAz?$AA?$AA@ 100505bc     libucrt:get_qualified_locale.obj
 0002:000075c4       ??_C@_1BC@CHBCPFPI@?$AAp?$AAr?$AA?5?$AAc?$AAh?$AAi?$AAn?$AAa?$AA?$AA@ 100505c4     libucrt:get_qualified_locale.obj
 0002:000075d8       ??_C@_1BC@JAOIIFKD@?$AAp?$AAr?$AA?9?$AAc?$AAh?$AAi?$AAn?$AAa?$AA?$AA@ 100505d8     libucrt:get_qualified_locale.obj
 0002:000075ec       ??_C@_1BI@BEHPPHKC@?$AAp?$AAu?$AAe?$AAr?$AAt?$AAo?$AA?9?$AAr?$AAi?$AAc?$AAo?$AA?$AA@ 100505ec     libucrt:get_qualified_locale.obj
 0002:00007604       ??_C@_1O@PAEOFKDI@?$AAs?$AAl?$AAo?$AAv?$AAa?$AAk?$AA?$AA@ 10050604     libucrt:get_qualified_locale.obj
 0002:00007614       ??_C@_1BK@FIHMCKAM@?$AAs?$AAo?$AAu?$AAt?$AAh?$AA?5?$AAa?$AAf?$AAr?$AAi?$AAc?$AAa?$AA?$AA@ 10050614     libucrt:get_qualified_locale.obj
 0002:00007630       ??_C@_1BI@NAEOODKB@?$AAs?$AAo?$AAu?$AAt?$AAh?$AA?5?$AAk?$AAo?$AAr?$AAe?$AAa?$AA?$AA@ 10050630     libucrt:get_qualified_locale.obj
 0002:00007648       ??_C@_1BK@FBDGGIFF@?$AAs?$AAo?$AAu?$AAt?$AAh?$AA?9?$AAa?$AAf?$AAr?$AAi?$AAc?$AAa?$AA?$AA@ 10050648     libucrt:get_qualified_locale.obj
 0002:00007664       ??_C@_1BI@GHLEJDPK@?$AAs?$AAo?$AAu?$AAt?$AAh?$AA?9?$AAk?$AAo?$AAr?$AAe?$AAa?$AA?$AA@ 10050664     libucrt:get_qualified_locale.obj
 0002:0000767c       ??_C@_1CE@PLHLOMJF@?$AAt?$AAr?$AAi?$AAn?$AAi?$AAd?$AAa?$AAd?$AA?5?$AA?$CG?$AA?5?$AAt?$AAo?$AAb?$AAa?$AAg?$AAo?$AA?$AA@ 1005067c     libucrt:get_qualified_locale.obj
 0002:000076a0       ??_C@_1BO@MODIMHHI@?$AAu?$AAn?$AAi?$AAt?$AAe?$AAd?$AA?9?$AAk?$AAi?$AAn?$AAg?$AAd?$AAo?$AAm?$AA?$AA@ 100506a0     libucrt:get_qualified_locale.obj
 0002:000076c0       ??_C@_1BM@FFHJONBJ@?$AAu?$AAn?$AAi?$AAt?$AAe?$AAd?$AA?9?$AAs?$AAt?$AAa?$AAt?$AAe?$AAs?$AA?$AA@ 100506c0     libucrt:get_qualified_locale.obj
 0002:000076dc       ??_C@_17DNCLJFIF@?$AAA?$AAC?$AAP?$AA?$AA@ 100506dc     libucrt:get_qualified_locale.obj
 0002:000076e4       ??_C@_17CIKBIHLH@?$AAO?$AAC?$AAP?$AA?$AA@ 100506e4     libucrt:get_qualified_locale.obj
 0002:000076ec       ___rglangidNotDefault      100506ec     libucrt:getqloc_downlevel.obj
 0002:00007e20       ??_C@_15EMKDOKLE@?$AAa?$AAr?$AA?$AA@ 10050e20     libucrt:lcidtoname_downlevel.obj
 0002:00007e28       ??_C@_15KNPADPLH@?$AAb?$AAg?$AA?$AA@ 10050e28     libucrt:lcidtoname_downlevel.obj
 0002:00007e30       ??_C@_15EDMHLDMO@?$AAc?$AAa?$AA?$AA@ 10050e30     libucrt:lcidtoname_downlevel.obj
 0002:00007e38       ??_C@_1O@BPEAJADD@?$AAz?$AAh?$AA?9?$AAC?$AAH?$AAS?$AA?$AA@ 10050e38     libucrt:lcidtoname_downlevel.obj
 0002:00007e48       ??_C@_15LJNHCMNK@?$AAc?$AAs?$AA?$AA@ 10050e48     libucrt:lcidtoname_downlevel.obj
 0002:00007e50       ??_C@_15FOMCIDHG@?$AAd?$AAa?$AA?$AA@ 10050e50     libucrt:lcidtoname_downlevel.obj
 0002:00007e58       ??_C@_15NBKABECB@?$AAd?$AAe?$AA?$AA@ 10050e58     libucrt:lcidtoname_downlevel.obj
 0002:00007e60       ??_C@_15GHPEIIAO@?$AAe?$AAl?$AA?$AA@ 10050e60     libucrt:lcidtoname_downlevel.obj
 0002:00007e68       ??_C@_15MNPNEAIF@?$AAe?$AAn?$AA?$AA@ 10050e68     libucrt:lcidtoname_downlevel.obj
 0002:00007e70       ??_C@_15GPIOMPMH@?$AAe?$AAs?$AA?$AA@ 10050e70     libucrt:lcidtoname_downlevel.obj
 0002:00007e78       ??_C@_15NGLOAKJC@?$AAf?$AAi?$AA?$AA@ 10050e78     libucrt:lcidtoname_downlevel.obj
 0002:00007e80       ??_C@_15FBKGNKAM@?$AAf?$AAr?$AA?$AA@ 10050e80     libucrt:lcidtoname_downlevel.obj
 0002:00007e88       ??_C@_15KGGCNEFK@?$AAh?$AAe?$AA?$AA@ 10050e88     libucrt:lcidtoname_downlevel.obj
 0002:00007e90       ??_C@_15PGHLIDMF@?$AAh?$AAu?$AA?$AA@ 10050e90     libucrt:lcidtoname_downlevel.obj
 0002:00007e98       ??_C@_15BIEMAPLM@?$AAi?$AAs?$AA?$AA@ 10050e98     libucrt:lcidtoname_downlevel.obj
 0002:00007ea0       ??_C@_15IFJLDHAF@?$AAi?$AAt?$AA?$AA@ 10050ea0     libucrt:lcidtoname_downlevel.obj
 0002:00007ea8       ??_C@_15GEMIOCAG@?$AAj?$AAa?$AA?$AA@ 10050ea8     libucrt:lcidtoname_downlevel.obj
 0002:00007eb0       ??_C@_15EPELEGJA@?$AAk?$AAo?$AA?$AA@ 10050eb0     libucrt:lcidtoname_downlevel.obj
 0002:00007eb8       ??_C@_15NDDHIMN@?$AAn?$AAl?$AA?$AA@ 10050eb8     libucrt:lcidtoname_downlevel.obj
 0002:00007ec0       ??_C@_15BPIGNHCD@?$AAn?$AAo?$AA?$AA@ 10050ec0     libucrt:lcidtoname_downlevel.obj
 0002:00007ec8       ??_C@_15DEOPBLCG@?$AAp?$AAl?$AA?$AA@ 10050ec8     libucrt:lcidtoname_downlevel.obj
 0002:00007ed0       ??_C@_15KBECGEFG@?$AAp?$AAt?$AA?$AA@ 10050ed0     libucrt:lcidtoname_downlevel.obj
 0002:00007ed8       ??_C@_15GLJCBFMD@?$AAr?$AAo?$AA?$AA@ 10050ed8     libucrt:lcidtoname_downlevel.obj
 0002:00007ee0       ??_C@_15FEDGKCDI@?$AAr?$AAu?$AA?$AA@ 10050ee0     libucrt:lcidtoname_downlevel.obj
 0002:00007ee8       ??_C@_15GLKMLLHM@?$AAh?$AAr?$AA?$AA@ 10050ee8     libucrt:lcidtoname_downlevel.obj
 0002:00007ef0       ??_C@_15CPKMFBDB@?$AAs?$AAk?$AA?$AA@ 10050ef0     libucrt:lcidtoname_downlevel.obj
 0002:00007ef8       ??_C@_15BAAIOGMK@?$AAs?$AAq?$AA?$AA@ 10050ef8     libucrt:lcidtoname_downlevel.obj
 0002:00007f00       ??_C@_15INNPNOHD@?$AAs?$AAv?$AA?$AA@ 10050f00     libucrt:lcidtoname_downlevel.obj
 0002:00007f08       ??_C@_15CABMMOGH@?$AAt?$AAh?$AA?$AA@ 10050f08     libucrt:lcidtoname_downlevel.obj
 0002:00007f10       ??_C@_15BPLIHJJM@?$AAt?$AAr?$AA?$AA@ 10050f10     libucrt:lcidtoname_downlevel.obj
 0002:00007f18       ??_C@_15NEOEKKDJ@?$AAu?$AAr?$AA?$AA@ 10050f18     libucrt:lcidtoname_downlevel.obj
 0002:00007f20       ??_C@_15NFICGAJK@?$AAi?$AAd?$AA?$AA@ 10050f20     libucrt:lcidtoname_downlevel.obj
 0002:00007f28       ??_C@_15HPJPHDM@?$AAb?$AAe?$AA?$AA@ 10050f28     libucrt:lcidtoname_downlevel.obj
 0002:00007f30       ??_C@_15LCHLGJII@?$AAs?$AAl?$AA?$AA@ 10050f30     libucrt:lcidtoname_downlevel.obj
 0002:00007f38       ??_C@_15PCFJPHHO@?$AAe?$AAt?$AA?$AA@ 10050f38     libucrt:lcidtoname_downlevel.obj
 0002:00007f40       ??_C@_15HPFPGODN@?$AAl?$AAv?$AA?$AA@ 10050f40     libucrt:lcidtoname_downlevel.obj
 0002:00007f48       ??_C@_15NFFGKGLG@?$AAl?$AAt?$AA?$AA@ 10050f48     libucrt:lcidtoname_downlevel.obj
 0002:00007f50       ??_C@_15BDAKCCHN@?$AAf?$AAa?$AA?$AA@ 10050f50     libucrt:lcidtoname_downlevel.obj
 0002:00007f58       ??_C@_15NFGIAIAJ@?$AAv?$AAi?$AA?$AA@ 10050f58     libucrt:lcidtoname_downlevel.obj
 0002:00007f60       ??_C@_15LMKNDMHN@?$AAh?$AAy?$AA?$AA@ 10050f60     libucrt:lcidtoname_downlevel.obj
 0002:00007f68       ??_C@_15IJBHMCFL@?$AAa?$AAz?$AA?$AA@ 10050f68     libucrt:lcidtoname_downlevel.obj
 0002:00007f70       ??_C@_15EKOFJABL@?$AAe?$AAu?$AA?$AA@ 10050f70     libucrt:lcidtoname_downlevel.obj
 0002:00007f78       ??_C@_15BGHADCNK@?$AAm?$AAk?$AA?$AA@ 10050f78     libucrt:lcidtoname_downlevel.obj
 0002:00007f80       ??_C@_15JDNICKHM@?$AAa?$AAf?$AA?$AA@ 10050f80     libucrt:lcidtoname_downlevel.obj
 0002:00007f88       ??_C@_15KPJEDBKD@?$AAk?$AAa?$AA?$AA@ 10050f88     libucrt:lcidtoname_downlevel.obj
 0002:00007f90       ??_C@_15PDNFFFEO@?$AAf?$AAo?$AA?$AA@ 10050f90     libucrt:lcidtoname_downlevel.obj
 0002:00007f98       ??_C@_15OMLEGLOC@?$AAh?$AAi?$AA?$AA@ 10050f98     libucrt:lcidtoname_downlevel.obj
 0002:00007fa0       ??_C@_15IDNNENKK@?$AAm?$AAs?$AA?$AA@ 10050fa0     libucrt:lcidtoname_downlevel.obj
 0002:00007fa8       ??_C@_15MACJNBMH@?$AAk?$AAk?$AA?$AA@ 10050fa8     libucrt:lcidtoname_downlevel.obj
 0002:00007fb0       ??_C@_15DKDJEOND@?$AAk?$AAy?$AA?$AA@ 10050fb0     libucrt:lcidtoname_downlevel.obj
 0002:00007fb8       ??_C@_15DFGDLJBG@?$AAs?$AAw?$AA?$AA@ 10050fb8     libucrt:lcidtoname_downlevel.obj
 0002:00007fc0       ??_C@_15BBFAICNG@?$AAu?$AAz?$AA?$AA@ 10050fc0     libucrt:lcidtoname_downlevel.obj
 0002:00007fc8       ??_C@_15DKNDCGEA@?$AAt?$AAt?$AA?$AA@ 10050fc8     libucrt:lcidtoname_downlevel.obj
 0002:00007fd0       ??_C@_15MGIFMDPL@?$AAp?$AAa?$AA?$AA@ 10050fd0     libucrt:lcidtoname_downlevel.obj
 0002:00007fd8       ??_C@_15HCNDBBA@?$AAg?$AAu?$AA?$AA@ 10050fd8     libucrt:lcidtoname_downlevel.obj
 0002:00007fe0       ??_C@_15FNBEIBON@?$AAt?$AAa?$AA?$AA@ 10050fe0     libucrt:lcidtoname_downlevel.obj
 0002:00007fe8       ??_C@_15NCHGBGLK@?$AAt?$AAe?$AA?$AA@ 10050fe8     libucrt:lcidtoname_downlevel.obj
 0002:00007ff0       ??_C@_15PHPHCBPF@?$AAk?$AAn?$AA?$AA@ 10050ff0     libucrt:lcidtoname_downlevel.obj
 0002:00007ff8       ??_C@_15DLGBCKMP@?$AAm?$AAr?$AA?$AA@ 10050ff8     libucrt:lcidtoname_downlevel.obj
 0002:00008000       ??_C@_15EABBLBFF@?$AAs?$AAa?$AA?$AA@ 10051000     libucrt:lcidtoname_downlevel.obj
 0002:00008008       ??_C@_15CBKOMCOI@?$AAm?$AAn?$AA?$AA@ 10051008     libucrt:lcidtoname_downlevel.obj
 0002:00008010       ??_C@_15CKDMCJAF@?$AAg?$AAl?$AA?$AA@ 10051010     libucrt:lcidtoname_downlevel.obj
 0002:00008018       ??_C@_17CNJFBPG@?$AAk?$AAo?$AAk?$AA?$AA@ 10051018     libucrt:lcidtoname_downlevel.obj
 0002:00008020       ??_C@_17FFBJICPL@?$AAs?$AAy?$AAr?$AA?$AA@ 10051020     libucrt:lcidtoname_downlevel.obj
 0002:00008028       ??_C@_17KPNDCPAF@?$AAd?$AAi?$AAv?$AA?$AA@ 10051028     libucrt:lcidtoname_downlevel.obj
 0002:00008030       ??_C@_11LOCGONAA@?$AA?$AA@ 10051030     libucrt:lcidtoname_downlevel.obj
 0002:00008034       ??_C@_1M@OKAHONE@?$AAa?$AAr?$AA?9?$AAS?$AAA?$AA?$AA@ 10051034     libucrt:lcidtoname_downlevel.obj
 0002:00008040       ??_C@_1M@FFFIGIGK@?$AAb?$AAg?$AA?9?$AAB?$AAG?$AA?$AA@ 10051040     libucrt:lcidtoname_downlevel.obj
 0002:0000804c       ??_C@_1M@BJNKEDC@?$AAc?$AAa?$AA?9?$AAE?$AAS?$AA?$AA@ 1005104c     libucrt:lcidtoname_downlevel.obj
 0002:00008058       ??_C@_1M@IJJHFJHA@?$AAc?$AAs?$AA?9?$AAC?$AAZ?$AA?$AA@ 10051058     libucrt:lcidtoname_downlevel.obj
 0002:00008064       ??_C@_1M@CLPEOBGI@?$AAd?$AAa?$AA?9?$AAD?$AAK?$AA?$AA@ 10051064     libucrt:lcidtoname_downlevel.obj
 0002:00008070       ??_C@_1M@MCMADGCB@?$AAd?$AAe?$AA?9?$AAD?$AAE?$AA?$AA@ 10051070     libucrt:lcidtoname_downlevel.obj
 0002:0000807c       ??_C@_1M@OOCKEMAM@?$AAe?$AAl?$AA?9?$AAG?$AAR?$AA?$AA@ 1005107c     libucrt:lcidtoname_downlevel.obj
 0002:00008088       ??_C@_1M@DDNJFGID@?$AAf?$AAi?$AA?9?$AAF?$AAI?$AA?$AA@ 10051088     libucrt:lcidtoname_downlevel.obj
 0002:00008094       ??_C@_1M@GLIPPMAC@?$AAf?$AAr?$AA?9?$AAF?$AAR?$AA?$AA@ 10051094     libucrt:lcidtoname_downlevel.obj
 0002:000080a0       ??_C@_1M@GFMCHPE@?$AAh?$AAe?$AA?9?$AAI?$AAL?$AA?$AA@ 100510a0     libucrt:lcidtoname_downlevel.obj
 0002:000080ac       ??_C@_1M@MHLPGNKM@?$AAh?$AAu?$AA?9?$AAH?$AAU?$AA?$AA@ 100510ac     libucrt:lcidtoname_downlevel.obj
 0002:000080b8       ??_C@_1M@LPDDNNPN@?$AAi?$AAs?$AA?9?$AAI?$AAS?$AA?$AA@ 100510b8     libucrt:lcidtoname_downlevel.obj
 0002:000080c4       ??_C@_1M@MADIPODN@?$AAi?$AAt?$AA?9?$AAI?$AAT?$AA?$AA@ 100510c4     libucrt:lcidtoname_downlevel.obj
 0002:000080d0       ??_C@_1M@IHBJJGG@?$AAn?$AAl?$AA?9?$AAN?$AAL?$AA?$AA@ 100510d0     libucrt:lcidtoname_downlevel.obj
 0002:000080dc       ??_C@_1M@EANAGDL@?$AAn?$AAb?$AA?9?$AAN?$AAO?$AA?$AA@ 100510dc     libucrt:lcidtoname_downlevel.obj
 0002:000080e8       ??_C@_1M@NEIEMEGP@?$AAp?$AAl?$AA?9?$AAP?$AAL?$AA?$AA@ 100510e8     libucrt:lcidtoname_downlevel.obj
 0002:000080f4       ??_C@_1M@BOCFIGEP@?$AAp?$AAt?$AA?9?$AAB?$AAR?$AA?$AA@ 100510f4     libucrt:lcidtoname_downlevel.obj
 0002:00008100       ??_C@_1M@IMPFOPBG@?$AAr?$AAo?$AA?9?$AAR?$AAO?$AA?$AA@ 10051100     libucrt:lcidtoname_downlevel.obj
 0002:0000810c       ??_C@_1M@IDNNEJMM@?$AAr?$AAu?$AA?9?$AAR?$AAU?$AA?$AA@ 1005110c     libucrt:lcidtoname_downlevel.obj
 0002:00008118       ??_C@_1M@LILEEOGM@?$AAh?$AAr?$AA?9?$AAH?$AAR?$AA?$AA@ 10051118     libucrt:lcidtoname_downlevel.obj
 0002:00008124       ??_C@_1M@FKIFEHPB@?$AAs?$AAk?$AA?9?$AAS?$AAK?$AA?$AA@ 10051124     libucrt:lcidtoname_downlevel.obj
 0002:00008130       ??_C@_1M@LJMAMNPJ@?$AAs?$AAq?$AA?9?$AAA?$AAL?$AA?$AA@ 10051130     libucrt:lcidtoname_downlevel.obj
 0002:0000813c       ??_C@_1M@GIAKDKJK@?$AAs?$AAv?$AA?9?$AAS?$AAE?$AA?$AA@ 1005113c     libucrt:lcidtoname_downlevel.obj
 0002:00008148       ??_C@_1M@MKJKIKCL@?$AAt?$AAh?$AA?9?$AAT?$AAH?$AA?$AA@ 10051148     libucrt:lcidtoname_downlevel.obj
 0002:00008154       ??_C@_1M@MFLCCMPB@?$AAt?$AAr?$AA?9?$AAT?$AAR?$AA?$AA@ 10051154     libucrt:lcidtoname_downlevel.obj
 0002:00008160       ??_C@_1M@OIJHDKJN@?$AAu?$AAr?$AA?9?$AAP?$AAK?$AA?$AA@ 10051160     libucrt:lcidtoname_downlevel.obj
 0002:0000816c       ??_C@_1M@LHIPCIEK@?$AAi?$AAd?$AA?9?$AAI?$AAD?$AA?$AA@ 1005116c     libucrt:lcidtoname_downlevel.obj
 0002:00008178       ??_C@_1M@MFMOBGI@?$AAu?$AAk?$AA?9?$AAU?$AAA?$AA?$AA@ 10051178     libucrt:lcidtoname_downlevel.obj
 0002:00008184       ??_C@_1M@OBGLJIPL@?$AAb?$AAe?$AA?9?$AAB?$AAY?$AA?$AA@ 10051184     libucrt:lcidtoname_downlevel.obj
 0002:00008190       ??_C@_1M@BCFAJEAD@?$AAs?$AAl?$AA?9?$AAS?$AAI?$AA?$AA@ 10051190     libucrt:lcidtoname_downlevel.obj
 0002:0000819c       ??_C@_1M@FKFFEDDN@?$AAe?$AAt?$AA?9?$AAE?$AAE?$AA?$AA@ 1005119c     libucrt:lcidtoname_downlevel.obj
 0002:000081a8       ??_C@_1M@KGKKAACI@?$AAl?$AAv?$AA?9?$AAL?$AAV?$AA?$AA@ 100511a8     libucrt:lcidtoname_downlevel.obj
 0002:000081b4       ??_C@_1M@IFGBIJO@?$AAl?$AAt?$AA?9?$AAL?$AAT?$AA?$AA@ 100511b4     libucrt:lcidtoname_downlevel.obj
 0002:000081c0       ??_C@_1M@FGEAHEDM@?$AAf?$AAa?$AA?9?$AAI?$AAR?$AA?$AA@ 100511c0     libucrt:lcidtoname_downlevel.obj
 0002:000081cc       ??_C@_1M@KBMAIBFN@?$AAv?$AAi?$AA?9?$AAV?$AAN?$AA?$AA@ 100511cc     libucrt:lcidtoname_downlevel.obj
 0002:000081d8       ??_C@_1M@GPCBKDJK@?$AAh?$AAy?$AA?9?$AAA?$AAM?$AA?$AA@ 100511d8     libucrt:lcidtoname_downlevel.obj
 0002:000081e4       ??_C@_1BG@BECMDDJB@?$AAa?$AAz?$AA?9?$AAA?$AAZ?$AA?9?$AAL?$AAa?$AAt?$AAn?$AA?$AA@ 100511e4     libucrt:lcidtoname_downlevel.obj
 0002:000081fc       ??_C@_1M@MAOFCAEA@?$AAe?$AAu?$AA?9?$AAE?$AAS?$AA?$AA@ 100511fc     libucrt:lcidtoname_downlevel.obj
 0002:00008208       ??_C@_1M@IGHABKPI@?$AAm?$AAk?$AA?9?$AAM?$AAK?$AA?$AA@ 10051208     libucrt:lcidtoname_downlevel.obj
 0002:00008214       ??_C@_1M@IAIGNEJG@?$AAt?$AAn?$AA?9?$AAZ?$AAA?$AA?$AA@ 10051214     libucrt:lcidtoname_downlevel.obj
 0002:00008220       ??_C@_1M@IIJCOJFA@?$AAx?$AAh?$AA?9?$AAZ?$AAA?$AA?$AA@ 10051220     libucrt:lcidtoname_downlevel.obj
 0002:0000822c       ??_C@_1M@LGPJHNJH@?$AAz?$AAu?$AA?9?$AAZ?$AAA?$AA?$AA@ 1005122c     libucrt:lcidtoname_downlevel.obj
 0002:00008238       ??_C@_1M@HOKAOIO@?$AAa?$AAf?$AA?9?$AAZ?$AAA?$AA?$AA@ 10051238     libucrt:lcidtoname_downlevel.obj
 0002:00008244       ??_C@_1M@DPCLHLIE@?$AAk?$AAa?$AA?9?$AAG?$AAE?$AA?$AA@ 10051244     libucrt:lcidtoname_downlevel.obj
 0002:00008250       ??_C@_1M@BLKMHJBI@?$AAf?$AAo?$AA?9?$AAF?$AAO?$AA?$AA@ 10051250     libucrt:lcidtoname_downlevel.obj
 0002:0000825c       ??_C@_1M@LGGJAPPB@?$AAh?$AAi?$AA?9?$AAI?$AAN?$AA?$AA@ 1005125c     libucrt:lcidtoname_downlevel.obj
 0002:00008268       ??_C@_1M@FIKPIHFE@?$AAm?$AAt?$AA?9?$AAM?$AAT?$AA?$AA@ 10051268     libucrt:lcidtoname_downlevel.obj
 0002:00008274       ??_C@_1M@HEGGPBFA@?$AAs?$AAe?$AA?9?$AAN?$AAO?$AA?$AA@ 10051274     libucrt:lcidtoname_downlevel.obj
 0002:00008280       ??_C@_1M@EIBJEEPA@?$AAm?$AAs?$AA?9?$AAM?$AAY?$AA?$AA@ 10051280     libucrt:lcidtoname_downlevel.obj
 0002:0000828c       ??_C@_1M@FHLBGMPP@?$AAk?$AAk?$AA?9?$AAK?$AAZ?$AA?$AA@ 1005128c     libucrt:lcidtoname_downlevel.obj
 0002:00008298       ??_C@_1M@NGJJLCGI@?$AAk?$AAy?$AA?9?$AAK?$AAG?$AA?$AA@ 10051298     libucrt:lcidtoname_downlevel.obj
 0002:000082a4       ??_C@_1M@GIENNBFC@?$AAs?$AAw?$AA?9?$AAK?$AAE?$AA?$AA@ 100512a4     libucrt:lcidtoname_downlevel.obj
 0002:000082b0       ??_C@_1BG@NDGMJIMJ@?$AAu?$AAz?$AA?9?$AAU?$AAZ?$AA?9?$AAL?$AAa?$AAt?$AAn?$AA?$AA@ 100512b0     libucrt:lcidtoname_downlevel.obj
 0002:000082c8       ??_C@_1M@IDCCIHBC@?$AAt?$AAt?$AA?9?$AAR?$AAU?$AA?$AA@ 100512c8     libucrt:lcidtoname_downlevel.obj
 0002:000082d4       ??_C@_1M@LOICPMOJ@?$AAb?$AAn?$AA?9?$AAI?$AAN?$AA?$AA@ 100512d4     libucrt:lcidtoname_downlevel.obj
 0002:000082e0       ??_C@_1M@KPKKNEAH@?$AAp?$AAa?$AA?9?$AAI?$AAN?$AA?$AA@ 100512e0     libucrt:lcidtoname_downlevel.obj
 0002:000082ec       ??_C@_1M@PJGPPBOG@?$AAg?$AAu?$AA?9?$AAI?$AAN?$AA?$AA@ 100512ec     libucrt:lcidtoname_downlevel.obj
 0002:000082f8       ??_C@_1M@KMKMOPHI@?$AAt?$AAa?$AA?9?$AAI?$AAN?$AA?$AA@ 100512f8     libucrt:lcidtoname_downlevel.obj
 0002:00008304       ??_C@_1M@KFEHEPAC@?$AAt?$AAe?$AA?9?$AAI?$AAN?$AA?$AA@ 10051304     libucrt:lcidtoname_downlevel.obj
 0002:00008310       ??_C@_1M@CDCLMGHI@?$AAk?$AAn?$AA?9?$AAI?$AAN?$AA?$AA@ 10051310     libucrt:lcidtoname_downlevel.obj
 0002:0000831c       ??_C@_1M@MIODLDKF@?$AAm?$AAl?$AA?9?$AAI?$AAN?$AA?$AA@ 1005131c     libucrt:lcidtoname_downlevel.obj
 0002:00008328       ??_C@_1M@PBIEACPO@?$AAm?$AAr?$AA?9?$AAI?$AAN?$AA?$AA@ 10051328     libucrt:lcidtoname_downlevel.obj
 0002:00008334       ??_C@_1M@NIDEAGPH@?$AAs?$AAa?$AA?9?$AAI?$AAN?$AA?$AA@ 10051334     libucrt:lcidtoname_downlevel.obj
 0002:00008340       ??_C@_1M@FHIHCBIO@?$AAm?$AAn?$AA?9?$AAM?$AAN?$AA?$AA@ 10051340     libucrt:lcidtoname_downlevel.obj
 0002:0000834c       ??_C@_1M@JAIJPENP@?$AAc?$AAy?$AA?9?$AAG?$AAB?$AA?$AA@ 1005134c     libucrt:lcidtoname_downlevel.obj
 0002:00008358       ??_C@_1M@PHGFBEPN@?$AAg?$AAl?$AA?9?$AAE?$AAS?$AA?$AA@ 10051358     libucrt:lcidtoname_downlevel.obj
 0002:00008364       ??_C@_1O@KPIPDNCP@?$AAk?$AAo?$AAk?$AA?9?$AAI?$AAN?$AA?$AA@ 10051364     libucrt:lcidtoname_downlevel.obj
 0002:00008374       ??_C@_1O@KNHJLDJA@?$AAs?$AAy?$AAr?$AA?9?$AAS?$AAY?$AA?$AA@ 10051374     libucrt:lcidtoname_downlevel.obj
 0002:00008384       ??_C@_1O@MKEKBLAH@?$AAd?$AAi?$AAv?$AA?9?$AAM?$AAV?$AA?$AA@ 10051384     libucrt:lcidtoname_downlevel.obj
 0002:00008394       ??_C@_1O@OHDCKDDF@?$AAq?$AAu?$AAz?$AA?9?$AAB?$AAO?$AA?$AA@ 10051394     libucrt:lcidtoname_downlevel.obj
 0002:000083a4       ??_C@_1M@LEPJNLFD@?$AAn?$AAs?$AA?9?$AAZ?$AAA?$AA?$AA@ 100513a4     libucrt:lcidtoname_downlevel.obj
 0002:000083b0       ??_C@_1M@OMLEIIJB@?$AAm?$AAi?$AA?9?$AAN?$AAZ?$AA?$AA@ 100513b0     libucrt:lcidtoname_downlevel.obj
 0002:000083bc       ??_C@_1M@PMPEAILG@?$AAa?$AAr?$AA?9?$AAI?$AAQ?$AA?$AA@ 100513bc     libucrt:lcidtoname_downlevel.obj
 0002:000083c8       ??_C@_1M@CNKPNOEE@?$AAd?$AAe?$AA?9?$AAC?$AAH?$AA?$AA@ 100513c8     libucrt:lcidtoname_downlevel.obj
 0002:000083d4       ??_C@_1M@LKMGMLKO@?$AAe?$AAn?$AA?9?$AAG?$AAB?$AA?$AA@ 100513d4     libucrt:lcidtoname_downlevel.obj
 0002:000083e0       ??_C@_1M@PGKJFFGL@?$AAe?$AAs?$AA?9?$AAM?$AAX?$AA?$AA@ 100513e0     libucrt:lcidtoname_downlevel.obj
 0002:000083ec       ??_C@_1M@DNNANBDC@?$AAf?$AAr?$AA?9?$AAB?$AAE?$AA?$AA@ 100513ec     libucrt:lcidtoname_downlevel.obj
 0002:000083f8       ??_C@_1M@HLGMDFHM@?$AAi?$AAt?$AA?9?$AAC?$AAH?$AA?$AA@ 100513f8     libucrt:lcidtoname_downlevel.obj
 0002:00008404       ??_C@_1M@CLLBGJH@?$AAn?$AAl?$AA?9?$AAB?$AAE?$AA?$AA@ 10051404     libucrt:lcidtoname_downlevel.obj
 0002:00008410       ??_C@_1M@BODBOGLF@?$AAn?$AAn?$AA?9?$AAN?$AAO?$AA?$AA@ 10051410     libucrt:lcidtoname_downlevel.obj
 0002:0000841c       ??_C@_1M@HFFAHKAD@?$AAp?$AAt?$AA?9?$AAP?$AAT?$AA?$AA@ 1005141c     libucrt:lcidtoname_downlevel.obj
 0002:00008428       ??_C@_1BG@LNOAKHIE@?$AAs?$AAr?$AA?9?$AAS?$AAP?$AA?9?$AAL?$AAa?$AAt?$AAn?$AA?$AA@ 10051428     libucrt:lcidtoname_downlevel.obj
 0002:00008440       ??_C@_1M@HBMHBGAK@?$AAs?$AAv?$AA?9?$AAF?$AAI?$AA?$AA@ 10051440     libucrt:lcidtoname_downlevel.obj
 0002:0000844c       ??_C@_1BG@DGCJGJBE@?$AAa?$AAz?$AA?9?$AAA?$AAZ?$AA?9?$AAC?$AAy?$AAr?$AAl?$AA?$AA@ 1005144c     libucrt:lcidtoname_downlevel.obj
 0002:00008464       ??_C@_1M@KEJDAAHB@?$AAs?$AAe?$AA?9?$AAS?$AAE?$AA?$AA@ 10051464     libucrt:lcidtoname_downlevel.obj
 0002:00008470       ??_C@_1M@HEIBJJAD@?$AAm?$AAs?$AA?9?$AAB?$AAN?$AA?$AA@ 10051470     libucrt:lcidtoname_downlevel.obj
 0002:0000847c       ??_C@_1BG@PBGJMCEM@?$AAu?$AAz?$AA?9?$AAU?$AAZ?$AA?9?$AAC?$AAy?$AAr?$AAl?$AA?$AA@ 1005147c     libucrt:lcidtoname_downlevel.obj
 0002:00008494       ??_C@_1O@LAOBCMDF@?$AAq?$AAu?$AAz?$AA?9?$AAE?$AAC?$AA?$AA@ 10051494     libucrt:lcidtoname_downlevel.obj
 0002:000084a4       ??_C@_1M@POEEMAIO@?$AAa?$AAr?$AA?9?$AAE?$AAG?$AA?$AA@ 100514a4     libucrt:lcidtoname_downlevel.obj
 0002:000084b0       ??_C@_1M@EFAKDEDL@?$AAz?$AAh?$AA?9?$AAH?$AAK?$AA?$AA@ 100514b0     libucrt:lcidtoname_downlevel.obj
 0002:000084bc       ??_C@_1M@HKKIJHGI@?$AAd?$AAe?$AA?9?$AAA?$AAT?$AA?$AA@ 100514bc     libucrt:lcidtoname_downlevel.obj
 0002:000084c8       ??_C@_1M@KBFBEHJF@?$AAe?$AAn?$AA?9?$AAA?$AAU?$AA?$AA@ 100514c8     libucrt:lcidtoname_downlevel.obj
 0002:000084d4       ??_C@_1M@MNPLFAAH@?$AAe?$AAs?$AA?9?$AAE?$AAS?$AA?$AA@ 100514d4     libucrt:lcidtoname_downlevel.obj
 0002:000084e0       ??_C@_1M@HJOOJFMA@?$AAf?$AAr?$AA?9?$AAC?$AAA?$AA?$AA@ 100514e0     libucrt:lcidtoname_downlevel.obj
 0002:000084ec       ??_C@_1BG@JPOFPNAB@?$AAs?$AAr?$AA?9?$AAS?$AAP?$AA?9?$AAC?$AAy?$AAr?$AAl?$AA?$AA@ 100514ec     libucrt:lcidtoname_downlevel.obj
 0002:00008504       ??_C@_1M@LNFOCMOB@?$AAs?$AAe?$AA?9?$AAF?$AAI?$AA?$AA@ 10051504     libucrt:lcidtoname_downlevel.obj
 0002:00008510       ??_C@_1O@MGJBOAMB@?$AAq?$AAu?$AAz?$AA?9?$AAP?$AAE?$AA?$AA@ 10051510     libucrt:lcidtoname_downlevel.obj
 0002:00008520       ??_C@_1M@GJINLBOK@?$AAa?$AAr?$AA?9?$AAL?$AAY?$AA?$AA@ 10051520     libucrt:lcidtoname_downlevel.obj
 0002:0000852c       ??_C@_1M@GGMNHJNL@?$AAz?$AAh?$AA?9?$AAS?$AAG?$AA?$AA@ 1005152c     libucrt:lcidtoname_downlevel.obj
 0002:00008538       ??_C@_1M@HOIKODND@?$AAd?$AAe?$AA?9?$AAL?$AAU?$AA?$AA@ 10051538     libucrt:lcidtoname_downlevel.obj
 0002:00008544       ??_C@_1M@DDOCCGFG@?$AAe?$AAn?$AA?9?$AAC?$AAA?$AA?$AA@ 10051544     libucrt:lcidtoname_downlevel.obj
 0002:00008550       ??_C@_1M@BNOEMJLF@?$AAe?$AAs?$AA?9?$AAG?$AAT?$AA?$AA@ 10051550     libucrt:lcidtoname_downlevel.obj
 0002:0000855c       ??_C@_1M@EOGNKEK@?$AAf?$AAr?$AA?9?$AAC?$AAH?$AA?$AA@ 1005155c     libucrt:lcidtoname_downlevel.obj
 0002:00008568       ??_C@_1M@FLIDJFHL@?$AAh?$AAr?$AA?9?$AAB?$AAA?$AA?$AA@ 10051568     libucrt:lcidtoname_downlevel.obj
 0002:00008574       ??_C@_1O@FMCELNAJ@?$AAs?$AAm?$AAj?$AA?9?$AAN?$AAO?$AA?$AA@ 10051574     libucrt:lcidtoname_downlevel.obj
 0002:00008584       ??_C@_1M@JHGLJMGJ@?$AAa?$AAr?$AA?9?$AAD?$AAZ?$AA?$AA@ 10051584     libucrt:lcidtoname_downlevel.obj
 0002:00008590       ??_C@_1M@JKKFDCNP@?$AAz?$AAh?$AA?9?$AAM?$AAO?$AA?$AA@ 10051590     libucrt:lcidtoname_downlevel.obj
 0002:0000859c       ??_C@_1M@GEEFALPE@?$AAd?$AAe?$AA?9?$AAL?$AAI?$AA?$AA@ 1005159c     libucrt:lcidtoname_downlevel.obj
 0002:000085a8       ??_C@_1M@IGEOFBG@?$AAe?$AAn?$AA?9?$AAN?$AAZ?$AA?$AA@ 100515a8     libucrt:lcidtoname_downlevel.obj
 0002:000085b4       ??_C@_1M@KDBONEHP@?$AAe?$AAs?$AA?9?$AAC?$AAR?$AA?$AA@ 100515b4     libucrt:lcidtoname_downlevel.obj
 0002:000085c0       ??_C@_1M@FHMDOHNN@?$AAf?$AAr?$AA?9?$AAL?$AAU?$AA?$AA@ 100515c0     libucrt:lcidtoname_downlevel.obj
 0002:000085cc       ??_C@_1BG@NFKKMAFG@?$AAb?$AAs?$AA?9?$AAB?$AAA?$AA?9?$AAL?$AAa?$AAt?$AAn?$AA?$AA@ 100515cc     libucrt:lcidtoname_downlevel.obj
 0002:000085e4       ??_C@_1O@IMNBEMCI@?$AAs?$AAm?$AAj?$AA?9?$AAS?$AAE?$AA?$AA@ 100515e4     libucrt:lcidtoname_downlevel.obj
 0002:000085f4       ??_C@_1M@DHHMBNDP@?$AAa?$AAr?$AA?9?$AAM?$AAA?$AA?$AA@ 100515f4     libucrt:lcidtoname_downlevel.obj
 0002:00008600       ??_C@_1M@BNBLJCGH@?$AAe?$AAn?$AA?9?$AAI?$AAE?$AA?$AA@ 10051600     libucrt:lcidtoname_downlevel.obj
 0002:0000860c       ??_C@_1M@GEPAFMDL@?$AAe?$AAs?$AA?9?$AAP?$AAA?$AA?$AA@ 1005160c     libucrt:lcidtoname_downlevel.obj
 0002:00008618       ??_C@_1M@OJONDMDL@?$AAf?$AAr?$AA?9?$AAM?$AAC?$AA?$AA@ 10051618     libucrt:lcidtoname_downlevel.obj
 0002:00008624       ??_C@_1BG@OBCNFJB@?$AAs?$AAr?$AA?9?$AAB?$AAA?$AA?9?$AAL?$AAa?$AAt?$AAn?$AA?$AA@ 10051624     libucrt:lcidtoname_downlevel.obj
 0002:0000863c       ??_C@_1O@KEMEEGPO@?$AAs?$AAm?$AAa?$AA?9?$AAN?$AAO?$AA?$AA@ 1005163c     libucrt:lcidtoname_downlevel.obj
 0002:0000864c       ??_C@_1M@ELMGFODK@?$AAa?$AAr?$AA?9?$AAT?$AAN?$AA?$AA@ 1005164c     libucrt:lcidtoname_downlevel.obj
 0002:00008658       ??_C@_1M@BHDLHFAF@?$AAe?$AAn?$AA?9?$AAZ?$AAA?$AA?$AA@ 10051658     libucrt:lcidtoname_downlevel.obj
 0002:00008664       ??_C@_1M@BMGIGLIF@?$AAe?$AAs?$AA?9?$AAD?$AAO?$AA?$AA@ 10051664     libucrt:lcidtoname_downlevel.obj
 0002:00008670       ??_C@_1BG@CMBHIPBE@?$AAs?$AAr?$AA?9?$AAB?$AAA?$AA?9?$AAC?$AAy?$AAr?$AAl?$AA?$AA@ 10051670     libucrt:lcidtoname_downlevel.obj
 0002:00008688       ??_C@_1O@HEDBLHNP@?$AAs?$AAm?$AAa?$AA?9?$AAS?$AAE?$AA?$AA@ 10051688     libucrt:lcidtoname_downlevel.obj
 0002:00008698       ??_C@_1M@DAGCADIM@?$AAa?$AAr?$AA?9?$AAO?$AAM?$AA?$AA@ 10051698     libucrt:lcidtoname_downlevel.obj
 0002:000086a4       ??_C@_1M@FODLMICG@?$AAe?$AAn?$AA?9?$AAJ?$AAM?$AA?$AA@ 100516a4     libucrt:lcidtoname_downlevel.obj
 0002:000086b0       ??_C@_1M@DNMLCIHB@?$AAe?$AAs?$AA?9?$AAV?$AAE?$AA?$AA@ 100516b0     libucrt:lcidtoname_downlevel.obj
 0002:000086bc       ??_C@_1O@EOKHMKJK@?$AAs?$AAm?$AAs?$AA?9?$AAF?$AAI?$AA?$AA@ 100516bc     libucrt:lcidtoname_downlevel.obj
 0002:000086cc       ??_C@_1M@CAFJMKOF@?$AAa?$AAr?$AA?9?$AAY?$AAE?$AA?$AA@ 100516cc     libucrt:lcidtoname_downlevel.obj
 0002:000086d8       ??_C@_1M@CBFHIJLI@?$AAe?$AAn?$AA?9?$AAC?$AAB?$AA?$AA@ 100516d8     libucrt:lcidtoname_downlevel.obj
 0002:000086e4       ??_C@_1M@BGNFLDN@?$AAe?$AAs?$AA?9?$AAC?$AAO?$AA?$AA@ 100516e4     libucrt:lcidtoname_downlevel.obj
 0002:000086f0       ??_C@_1O@JMPHMAMC@?$AAs?$AAm?$AAn?$AA?9?$AAF?$AAI?$AA?$AA@ 100516f0     libucrt:lcidtoname_downlevel.obj
 0002:00008700       ??_C@_1M@JLANABKE@?$AAa?$AAr?$AA?9?$AAS?$AAY?$AA?$AA@ 10051700     libucrt:lcidtoname_downlevel.obj
 0002:0000870c       ??_C@_1M@HPKGCFGN@?$AAe?$AAn?$AA?9?$AAB?$AAZ?$AA?$AA@ 1005170c     libucrt:lcidtoname_downlevel.obj
 0002:00008718       ??_C@_1M@OLJCMLGM@?$AAe?$AAs?$AA?9?$AAP?$AAE?$AA?$AA@ 10051718     libucrt:lcidtoname_downlevel.obj
 0002:00008724       ??_C@_1M@MKKGFKLE@?$AAa?$AAr?$AA?9?$AAJ?$AAO?$AA?$AA@ 10051724     libucrt:lcidtoname_downlevel.obj
 0002:00008730       ??_C@_1M@EKPGLDNI@?$AAe?$AAn?$AA?9?$AAT?$AAT?$AA?$AA@ 10051730     libucrt:lcidtoname_downlevel.obj
 0002:0000873c       ??_C@_1M@OONGHFHE@?$AAe?$AAs?$AA?9?$AAA?$AAR?$AA?$AA@ 1005173c     libucrt:lcidtoname_downlevel.obj
 0002:00008748       ??_C@_1M@OOJFGBHE@?$AAa?$AAr?$AA?9?$AAL?$AAB?$AA?$AA@ 10051748     libucrt:lcidtoname_downlevel.obj
 0002:00008754       ??_C@_1M@GCEJHNEG@?$AAe?$AAn?$AA?9?$AAZ?$AAW?$AA?$AA@ 10051754     libucrt:lcidtoname_downlevel.obj
 0002:00008760       ??_C@_1M@JNOCAHJI@?$AAe?$AAs?$AA?9?$AAE?$AAC?$AA?$AA@ 10051760     libucrt:lcidtoname_downlevel.obj
 0002:0000876c       ??_C@_1M@JEFHPGGB@?$AAa?$AAr?$AA?9?$AAK?$AAW?$AA?$AA@ 1005176c     libucrt:lcidtoname_downlevel.obj
 0002:00008778       ??_C@_1M@MLKIBJOJ@?$AAe?$AAn?$AA?9?$AAP?$AAH?$AA?$AA@ 10051778     libucrt:lcidtoname_downlevel.obj
 0002:00008784       ??_C@_1M@BDNIPEND@?$AAe?$AAs?$AA?9?$AAC?$AAL?$AA?$AA@ 10051784     libucrt:lcidtoname_downlevel.obj
 0002:00008790       ??_C@_1M@MPNMEKBD@?$AAa?$AAr?$AA?9?$AAA?$AAE?$AA?$AA@ 10051790     libucrt:lcidtoname_downlevel.obj
 0002:0000879c       ??_C@_1M@KBJALCPI@?$AAe?$AAs?$AA?9?$AAU?$AAY?$AA?$AA@ 1005179c     libucrt:lcidtoname_downlevel.obj
 0002:000087a8       ??_C@_1M@LLCCOAGA@?$AAa?$AAr?$AA?9?$AAB?$AAH?$AA?$AA@ 100517a8     libucrt:lcidtoname_downlevel.obj
 0002:000087b4       ??_C@_1M@PBFNCDEL@?$AAe?$AAs?$AA?9?$AAP?$AAY?$AA?$AA@ 100517b4     libucrt:lcidtoname_downlevel.obj
 0002:000087c0       ??_C@_1M@EDGINPNP@?$AAa?$AAr?$AA?9?$AAQ?$AAA?$AA?$AA@ 100517c0     libucrt:lcidtoname_downlevel.obj
 0002:000087cc       ??_C@_1M@MKDBIIJI@?$AAe?$AAs?$AA?9?$AAB?$AAO?$AA?$AA@ 100517cc     libucrt:lcidtoname_downlevel.obj
 0002:000087d8       ??_C@_1M@CPKKEBLD@?$AAe?$AAs?$AA?9?$AAS?$AAV?$AA?$AA@ 100517d8     libucrt:lcidtoname_downlevel.obj
 0002:000087e4       ??_C@_1M@NDBGMMJL@?$AAe?$AAs?$AA?9?$AAH?$AAN?$AA?$AA@ 100517e4     libucrt:lcidtoname_downlevel.obj
 0002:000087f0       ??_C@_1M@JIJIBHDP@?$AAe?$AAs?$AA?9?$AAN?$AAI?$AA?$AA@ 100517f0     libucrt:lcidtoname_downlevel.obj
 0002:000087fc       ??_C@_1M@CGFMKEEK@?$AAe?$AAs?$AA?9?$AAP?$AAR?$AA?$AA@ 100517fc     libucrt:lcidtoname_downlevel.obj
 0002:00008808       ??_C@_1O@ICJHKIIK@?$AAz?$AAh?$AA?9?$AAC?$AAH?$AAT?$AA?$AA@ 10051808     libucrt:lcidtoname_downlevel.obj
 0002:00008818       ??_C@_15CLNEJCE@?$AAs?$AAr?$AA?$AA@ 10051818     libucrt:lcidtoname_downlevel.obj
 0002:00008f40       ??_C@_1M@KAHEKEIG@?$AAa?$AAf?$AA?9?$AAz?$AAa?$AA?$AA@ 10051f40     libucrt:lcidtoname_downlevel.obj
 0002:00008f4c       ??_C@_1M@GIECOABL@?$AAa?$AAr?$AA?9?$AAa?$AAe?$AA?$AA@ 10051f4c     libucrt:lcidtoname_downlevel.obj
 0002:00008f58       ??_C@_1M@BMLMEKGI@?$AAa?$AAr?$AA?9?$AAb?$AAh?$AA?$AA@ 10051f58     libucrt:lcidtoname_downlevel.obj
 0002:00008f64       ??_C@_1M@DAPFDGGB@?$AAa?$AAr?$AA?9?$AAd?$AAz?$AA?$AA@ 10051f64     libucrt:lcidtoname_downlevel.obj
 0002:00008f70       ??_C@_1M@FJNKGKIG@?$AAa?$AAr?$AA?9?$AAe?$AAg?$AA?$AA@ 10051f70     libucrt:lcidtoname_downlevel.obj
 0002:00008f7c       ??_C@_1M@FLGKKCLO@?$AAa?$AAr?$AA?9?$AAi?$AAq?$AA?$AA@ 10051f7c     libucrt:lcidtoname_downlevel.obj
 0002:00008f88       ??_C@_1M@GNDIPALM@?$AAa?$AAr?$AA?9?$AAj?$AAo?$AA?$AA@ 10051f88     libucrt:lcidtoname_downlevel.obj
 0002:00008f94       ??_C@_1M@DDMJFMGJ@?$AAa?$AAr?$AA?9?$AAk?$AAw?$AA?$AA@ 10051f94     libucrt:lcidtoname_downlevel.obj
 0002:00008fa0       ??_C@_1M@EJALMLHM@?$AAa?$AAr?$AA?9?$AAl?$AAb?$AA?$AA@ 10051fa0     libucrt:lcidtoname_downlevel.obj
 0002:00008fac       ??_C@_1M@MOBDBLOC@?$AAa?$AAr?$AA?9?$AAl?$AAy?$AA?$AA@ 10051fac     libucrt:lcidtoname_downlevel.obj
 0002:00008fb8       ??_C@_1M@JAOCLHDH@?$AAa?$AAr?$AA?9?$AAm?$AAa?$AA?$AA@ 10051fb8     libucrt:lcidtoname_downlevel.obj
 0002:00008fc4       ??_C@_1M@JHPMKJIE@?$AAa?$AAr?$AA?9?$AAo?$AAm?$AA?$AA@ 10051fc4     libucrt:lcidtoname_downlevel.obj
 0002:00008fd0       ??_C@_1M@OEPGHFNH@?$AAa?$AAr?$AA?9?$AAq?$AAa?$AA?$AA@ 10051fd0     libucrt:lcidtoname_downlevel.obj
 0002:00008fdc       ??_C@_1M@KJDONENM@?$AAa?$AAr?$AA?9?$AAs?$AAa?$AA?$AA@ 10051fdc     libucrt:lcidtoname_downlevel.obj
 0002:00008fe8       ??_C@_1M@DMJDKLKM@?$AAa?$AAr?$AA?9?$AAs?$AAy?$AA?$AA@ 10051fe8     libucrt:lcidtoname_downlevel.obj
 0002:00008ff4       ??_C@_1M@OMFIPEDC@?$AAa?$AAr?$AA?9?$AAt?$AAn?$AA?$AA@ 10051ff4     libucrt:lcidtoname_downlevel.obj
 0002:00009000       ??_C@_1M@IHMHGAON@?$AAa?$AAr?$AA?9?$AAy?$AAe?$AA?$AA@ 10052000     libucrt:lcidtoname_downlevel.obj
 0002:0000900c       ??_C@_1BG@KDCPGJGB@?$AAa?$AAz?$AA?9?$AAa?$AAz?$AA?9?$AAc?$AAy?$AAr?$AAl?$AA?$AA@ 1005200c     libucrt:lcidtoname_downlevel.obj
 0002:00009024       ??_C@_1BG@IBCKDDOE@?$AAa?$AAz?$AA?9?$AAa?$AAz?$AA?9?$AAl?$AAa?$AAt?$AAn?$AA?$AA@ 10052024     libucrt:lcidtoname_downlevel.obj
 0002:0000903c       ??_C@_1M@EGPFDCPD@?$AAb?$AAe?$AA?9?$AAb?$AAy?$AA?$AA@ 1005203c     libucrt:lcidtoname_downlevel.obj
 0002:00009048       ??_C@_1M@PCMGMCGC@?$AAb?$AAg?$AA?9?$AAb?$AAg?$AA?$AA@ 10052048     libucrt:lcidtoname_downlevel.obj
 0002:00009054       ??_C@_1M@BJBMFGOB@?$AAb?$AAn?$AA?9?$AAi?$AAn?$AA?$AA@ 10052054     libucrt:lcidtoname_downlevel.obj
 0002:00009060       ??_C@_1BG@EAKMMACD@?$AAb?$AAs?$AA?9?$AAb?$AAa?$AA?9?$AAl?$AAa?$AAt?$AAn?$AA?$AA@ 10052060     libucrt:lcidtoname_downlevel.obj
 0002:00009078       ??_C@_1M@KGADAODK@?$AAc?$AAa?$AA?9?$AAe?$AAs?$AA?$AA@ 10052078     libucrt:lcidtoname_downlevel.obj
 0002:00009084       ??_C@_1M@COAJPDHI@?$AAc?$AAs?$AA?9?$AAc?$AAz?$AA?$AA@ 10052084     libucrt:lcidtoname_downlevel.obj
 0002:00009090       ??_C@_1M@DHBHFONH@?$AAc?$AAy?$AA?9?$AAg?$AAb?$AA?$AA@ 10052090     libucrt:lcidtoname_downlevel.obj
 0002:0000909c       ??_C@_1M@IMGKELGA@?$AAd?$AAa?$AA?9?$AAd?$AAk?$AA?$AA@ 1005209c     libucrt:lcidtoname_downlevel.obj
 0002:000090a8       ??_C@_1M@NNDGDNGA@?$AAd?$AAe?$AA?9?$AAa?$AAt?$AA?$AA@ 100520a8     libucrt:lcidtoname_downlevel.obj
 0002:000090b4       ??_C@_1M@IKDBHEEM@?$AAd?$AAe?$AA?9?$AAc?$AAh?$AA?$AA@ 100520b4     libucrt:lcidtoname_downlevel.obj
 0002:000090c0       ??_C@_1M@GFFOJMCJ@?$AAd?$AAe?$AA?9?$AAd?$AAe?$AA?$AA@ 100520c0     libucrt:lcidtoname_downlevel.obj
 0002:000090cc       ??_C@_1M@MDNLKBPM@?$AAd?$AAe?$AA?9?$AAl?$AAi?$AA?$AA@ 100520cc     libucrt:lcidtoname_downlevel.obj
 0002:000090d8       ??_C@_1M@NJBEEJNL@?$AAd?$AAe?$AA?9?$AAl?$AAu?$AA?$AA@ 100520d8     libucrt:lcidtoname_downlevel.obj
 0002:000090e4       ??_C@_1O@GNNELBAP@?$AAd?$AAi?$AAv?$AA?9?$AAm?$AAv?$AA?$AA@ 100520e4     libucrt:lcidtoname_downlevel.obj
 0002:000090f4       ??_C@_1M@EJLEOGAE@?$AAe?$AAl?$AA?9?$AAg?$AAr?$AA?$AA@ 100520f4     libucrt:lcidtoname_downlevel.obj
 0002:00009100       ??_C@_1M@GMPONJN@?$AAe?$AAn?$AA?9?$AAa?$AAu?$AA?$AA@ 10052100     libucrt:lcidtoname_downlevel.obj
 0002:0000910c       ??_C@_1M@NIDIIPGF@?$AAe?$AAn?$AA?9?$AAb?$AAz?$AA?$AA@ 1005210c     libucrt:lcidtoname_downlevel.obj
 0002:00009118       ??_C@_1M@JEHMIMFO@?$AAe?$AAn?$AA?9?$AAc?$AAa?$AA?$AA@ 10052118     libucrt:lcidtoname_downlevel.obj
 0002:00009124       ??_C@_1M@IGMJCDLA@?$AAe?$AAn?$AA?9?$AAc?$AAb?$AA?$AA@ 10052124     libucrt:lcidtoname_downlevel.obj
 0002:00009130       ??_C@_1M@BNFIGBKG@?$AAe?$AAn?$AA?9?$AAg?$AAb?$AA?$AA@ 10052130     libucrt:lcidtoname_downlevel.obj
 0002:0000913c       ??_C@_1M@LKIFDIGP@?$AAe?$AAn?$AA?9?$AAi?$AAe?$AA?$AA@ 1005213c     libucrt:lcidtoname_downlevel.obj
 0002:00009148       ??_C@_1M@PJKFGCCO@?$AAe?$AAn?$AA?9?$AAj?$AAm?$AA?$AA@ 10052148     libucrt:lcidtoname_downlevel.obj
 0002:00009154       ??_C@_1M@KPPKEPBO@?$AAe?$AAn?$AA?9?$AAn?$AAz?$AA?$AA@ 10052154     libucrt:lcidtoname_downlevel.obj
 0002:00009160       ??_C@_1M@GMDGLDOB@?$AAe?$AAn?$AA?9?$AAp?$AAh?$AA?$AA@ 10052160     libucrt:lcidtoname_downlevel.obj
 0002:0000916c       ??_C@_1M@ONGIBJNA@?$AAe?$AAn?$AA?9?$AAt?$AAt?$AA?$AA@ 1005216c     libucrt:lcidtoname_downlevel.obj
 0002:00009178       ??_C@_1M@LLODPCMM@?$AAe?$AAn?$AA?9?$AAu?$AAs?$AA?$AA@ 10052178     libucrt:lcidtoname_downlevel.obj
 0002:00009184       ??_C@_1M@LAKFNPAN@?$AAe?$AAn?$AA?9?$AAz?$AAa?$AA?$AA@ 10052184     libucrt:lcidtoname_downlevel.obj
 0002:00009190       ??_C@_1M@MFNHNHEO@?$AAe?$AAn?$AA?9?$AAz?$AAw?$AA?$AA@ 10052190     libucrt:lcidtoname_downlevel.obj
 0002:0000919c       ??_C@_1M@EJEINPHM@?$AAe?$AAs?$AA?9?$AAa?$AAr?$AA?$AA@ 1005219c     libucrt:lcidtoname_downlevel.obj
 0002:000091a8       ??_C@_1M@GNKPCCJA@?$AAe?$AAs?$AA?9?$AAb?$AAo?$AA?$AA@ 100521a8     libucrt:lcidtoname_downlevel.obj
 0002:000091b4       ??_C@_1M@LEEGFONL@?$AAe?$AAs?$AA?9?$AAc?$AAl?$AA?$AA@ 100521b4     libucrt:lcidtoname_downlevel.obj
 0002:000091c0       ??_C@_1M@KGPDPBDF@?$AAe?$AAs?$AA?9?$AAc?$AAo?$AA?$AA@ 100521c0     libucrt:lcidtoname_downlevel.obj
 0002:000091cc       ??_C@_1M@EIAHOHH@?$AAe?$AAs?$AA?9?$AAc?$AAr?$AA?$AA@ 100521cc     libucrt:lcidtoname_downlevel.obj
 0002:000091d8       ??_C@_1M@LLPGMBIN@?$AAe?$AAs?$AA?9?$AAd?$AAo?$AA?$AA@ 100521d8     libucrt:lcidtoname_downlevel.obj
 0002:000091e4       ??_C@_1M@DKHMKNJA@?$AAe?$AAs?$AA?9?$AAe?$AAc?$AA?$AA@ 100521e4     libucrt:lcidtoname_downlevel.obj
 0002:000091f0       ??_C@_1M@GKGFPKAP@?$AAe?$AAs?$AA?9?$AAe?$AAs?$AA?$AA@ 100521f0     libucrt:lcidtoname_downlevel.obj
 0002:000091fc       ??_C@_1M@LKHKGDLN@?$AAe?$AAs?$AA?9?$AAg?$AAt?$AA?$AA@ 100521fc     libucrt:lcidtoname_downlevel.obj
 0002:00009208       ??_C@_1M@HEIIGGJD@?$AAe?$AAs?$AA?9?$AAh?$AAn?$AA?$AA@ 10052208     libucrt:lcidtoname_downlevel.obj
 0002:00009214       ??_C@_1M@FBDHPPGD@?$AAe?$AAs?$AA?9?$AAm?$AAx?$AA?$AA@ 10052214     libucrt:lcidtoname_downlevel.obj
 0002:00009220       ??_C@_1M@DPAGLNDH@?$AAe?$AAs?$AA?9?$AAn?$AAi?$AA?$AA@ 10052220     libucrt:lcidtoname_downlevel.obj
 0002:0000922c       ??_C@_1M@MDGOPGDD@?$AAe?$AAs?$AA?9?$AAp?$AAa?$AA?$AA@ 1005222c     libucrt:lcidtoname_downlevel.obj
 0002:00009238       ??_C@_1M@EMAMGBGE@?$AAe?$AAs?$AA?9?$AAp?$AAe?$AA?$AA@ 10052238     libucrt:lcidtoname_downlevel.obj
 0002:00009244       ??_C@_1M@IBMCAOEC@?$AAe?$AAs?$AA?9?$AAp?$AAr?$AA?$AA@ 10052244     libucrt:lcidtoname_downlevel.obj
 0002:00009250       ??_C@_1M@FGMDIJED@?$AAe?$AAs?$AA?9?$AAp?$AAy?$AA?$AA@ 10052250     libucrt:lcidtoname_downlevel.obj
 0002:0000925c       ??_C@_1M@IIDEOLLL@?$AAe?$AAs?$AA?9?$AAs?$AAv?$AA?$AA@ 1005225c     libucrt:lcidtoname_downlevel.obj
 0002:00009268       ??_C@_1M@GAOBIPA@?$AAe?$AAs?$AA?9?$AAu?$AAy?$AA?$AA@ 10052268     libucrt:lcidtoname_downlevel.obj
 0002:00009274       ??_C@_1M@JKFFICHJ@?$AAe?$AAs?$AA?9?$AAv?$AAe?$AA?$AA@ 10052274     libucrt:lcidtoname_downlevel.obj
 0002:00009280       ??_C@_1M@PNMLOJDF@?$AAe?$AAt?$AA?9?$AAe?$AAe?$AA?$AA@ 10052280     libucrt:lcidtoname_downlevel.obj
 0002:0000928c       ??_C@_1M@GHHLIKEI@?$AAe?$AAu?$AA?9?$AAe?$AAs?$AA?$AA@ 1005228c     libucrt:lcidtoname_downlevel.obj
 0002:00009298       ??_C@_1M@PBNONODE@?$AAf?$AAa?$AA?9?$AAi?$AAr?$AA?$AA@ 10052298     libucrt:lcidtoname_downlevel.obj
 0002:000092a4       ??_C@_1M@JEEHPMIL@?$AAf?$AAi?$AA?9?$AAf?$AAi?$AA?$AA@ 100522a4     libucrt:lcidtoname_downlevel.obj
 0002:000092b0       ??_C@_1M@LMDCNDBA@?$AAf?$AAo?$AA?9?$AAf?$AAo?$AA?$AA@ 100522b0     libucrt:lcidtoname_downlevel.obj
 0002:000092bc       ??_C@_1M@JKEOHLDK@?$AAf?$AAr?$AA?9?$AAb?$AAe?$AA?$AA@ 100522bc     libucrt:lcidtoname_downlevel.obj
 0002:000092c8       ??_C@_1M@NOHADPMI@?$AAf?$AAr?$AA?9?$AAc?$AAa?$AA?$AA@ 100522c8     libucrt:lcidtoname_downlevel.obj
 0002:000092d4       ??_C@_1M@KDHIHAEC@?$AAf?$AAr?$AA?9?$AAc?$AAh?$AA?$AA@ 100522d4     libucrt:lcidtoname_downlevel.obj
 0002:000092e0       ??_C@_1M@MMBBFGAK@?$AAf?$AAr?$AA?9?$AAf?$AAr?$AA?$AA@ 100522e0     libucrt:lcidtoname_downlevel.obj
 0002:000092ec       ??_C@_1M@PAFNENNF@?$AAf?$AAr?$AA?9?$AAl?$AAu?$AA?$AA@ 100522ec     libucrt:lcidtoname_downlevel.obj
 0002:000092f8       ??_C@_1M@EOHDJGDD@?$AAf?$AAr?$AA?9?$AAm?$AAc?$AA?$AA@ 100522f8     libucrt:lcidtoname_downlevel.obj
 0002:00009304       ??_C@_1M@FAPLLOPF@?$AAg?$AAl?$AA?9?$AAe?$AAs?$AA?$AA@ 10052304     libucrt:lcidtoname_downlevel.obj
 0002:00009310       ??_C@_1M@FOPBFLOO@?$AAg?$AAu?$AA?9?$AAi?$AAn?$AA?$AA@ 10052310     libucrt:lcidtoname_downlevel.obj
 0002:0000931c       ??_C@_1M@KBMCINPM@?$AAh?$AAe?$AA?9?$AAi?$AAl?$AA?$AA@ 1005231c     libucrt:lcidtoname_downlevel.obj
 0002:00009328       ??_C@_1M@BBPHKFPJ@?$AAh?$AAi?$AA?9?$AAi?$AAn?$AA?$AA@ 10052328     libucrt:lcidtoname_downlevel.obj
 0002:00009334       ??_C@_1M@PMBNDPHD@?$AAh?$AAr?$AA?9?$AAb?$AAa?$AA?$AA@ 10052334     libucrt:lcidtoname_downlevel.obj
 0002:00009340       ??_C@_1M@BPCKOEGE@?$AAh?$AAr?$AA?9?$AAh?$AAr?$AA?$AA@ 10052340     libucrt:lcidtoname_downlevel.obj
 0002:0000934c       ??_C@_1M@GACBMHKE@?$AAh?$AAu?$AA?9?$AAh?$AAu?$AA?$AA@ 1005234c     libucrt:lcidtoname_downlevel.obj
 0002:00009358       ??_C@_1M@MILPAJJC@?$AAh?$AAy?$AA?9?$AAa?$AAm?$AA?$AA@ 10052358     libucrt:lcidtoname_downlevel.obj
 0002:00009364       ??_C@_1M@BABBICEC@?$AAi?$AAd?$AA?9?$AAi?$AAd?$AA?$AA@ 10052364     libucrt:lcidtoname_downlevel.obj
 0002:00009370       ??_C@_1M@BIKNHHPF@?$AAi?$AAs?$AA?9?$AAi?$AAs?$AA?$AA@ 10052370     libucrt:lcidtoname_downlevel.obj
 0002:0000937c       ??_C@_1M@NMPCJPHE@?$AAi?$AAt?$AA?9?$AAc?$AAh?$AA?$AA@ 1005237c     libucrt:lcidtoname_downlevel.obj
 0002:00009388       ??_C@_1M@GHKGFEDF@?$AAi?$AAt?$AA?9?$AAi?$AAt?$AA?$AA@ 10052388     libucrt:lcidtoname_downlevel.obj
 0002:00009394       ??_C@_1M@NIEJCJJA@?$AAj?$AAa?$AA?9?$AAj?$AAp?$AA?$AA@ 10052394     libucrt:lcidtoname_downlevel.obj
 0002:000093a0       ??_C@_1M@JILFNBIM@?$AAk?$AAa?$AA?9?$AAg?$AAe?$AA?$AA@ 100523a0     libucrt:lcidtoname_downlevel.obj
 0002:000093ac       ??_C@_1M@PACPMGPH@?$AAk?$AAk?$AA?9?$AAk?$AAz?$AA?$AA@ 100523ac     libucrt:lcidtoname_downlevel.obj
 0002:000093b8       ??_C@_1M@IELFGMHA@?$AAk?$AAn?$AA?9?$AAi?$AAn?$AA?$AA@ 100523b8     libucrt:lcidtoname_downlevel.obj
 0002:000093c4       ??_C@_1O@IBBJHCH@?$AAk?$AAo?$AAk?$AA?9?$AAi?$AAn?$AA?$AA@ 100523c4     libucrt:lcidtoname_downlevel.obj
 0002:000093d4       ??_C@_1M@DMHAEOGC@?$AAk?$AAo?$AA?9?$AAk?$AAr?$AA?$AA@ 100523d4     libucrt:lcidtoname_downlevel.obj
 0002:000093e0       ??_C@_1M@HBAHBIGA@?$AAk?$AAy?$AA?9?$AAk?$AAg?$AA?$AA@ 100523e0     libucrt:lcidtoname_downlevel.obj
 0002:000093ec       ??_C@_1M@KPMILCJG@?$AAl?$AAt?$AA?9?$AAl?$AAt?$AA?$AA@ 100523ec     libucrt:lcidtoname_downlevel.obj
 0002:000093f8       ??_C@_1M@BDEKKCA@?$AAl?$AAv?$AA?9?$AAl?$AAv?$AA?$AA@ 100523f8     libucrt:lcidtoname_downlevel.obj
 0002:00009404       ??_C@_1M@ELCKCCJJ@?$AAm?$AAi?$AA?9?$AAn?$AAz?$AA?$AA@ 10052404     libucrt:lcidtoname_downlevel.obj
 0002:00009410       ??_C@_1M@CBOOLAPA@?$AAm?$AAk?$AA?9?$AAm?$AAk?$AA?$AA@ 10052410     libucrt:lcidtoname_downlevel.obj
 0002:0000941c       ??_C@_1M@GPHNBJKN@?$AAm?$AAl?$AA?9?$AAi?$AAn?$AA?$AA@ 1005241c     libucrt:lcidtoname_downlevel.obj
 0002:00009428       ??_C@_1M@PABJILIG@?$AAm?$AAn?$AA?9?$AAm?$AAn?$AA?$AA@ 10052428     libucrt:lcidtoname_downlevel.obj
 0002:00009434       ??_C@_1M@FGBKKIPG@?$AAm?$AAr?$AA?9?$AAi?$AAn?$AA?$AA@ 10052434     libucrt:lcidtoname_downlevel.obj
 0002:00009440       ??_C@_1M@NDBPDDAL@?$AAm?$AAs?$AA?9?$AAb?$AAn?$AA?$AA@ 10052440     libucrt:lcidtoname_downlevel.obj
 0002:0000944c       ??_C@_1M@OPIHOOPI@?$AAm?$AAs?$AA?9?$AAm?$AAy?$AA?$AA@ 1005244c     libucrt:lcidtoname_downlevel.obj
 0002:00009458       ??_C@_1M@PPDBCNFM@?$AAm?$AAt?$AA?9?$AAm?$AAt?$AA?$AA@ 10052458     libucrt:lcidtoname_downlevel.obj
 0002:00009464       ??_C@_1M@KDJDKMDD@?$AAn?$AAb?$AA?9?$AAn?$AAo?$AA?$AA@ 10052464     libucrt:lcidtoname_downlevel.obj
 0002:00009470       ??_C@_1M@KFCFLMJP@?$AAn?$AAl?$AA?9?$AAb?$AAe?$AA?$AA@ 10052470     libucrt:lcidtoname_downlevel.obj
 0002:0000947c       ??_C@_1M@KPOPDDGO@?$AAn?$AAl?$AA?9?$AAn?$AAl?$AA?$AA@ 1005247c     libucrt:lcidtoname_downlevel.obj
 0002:00009488       ??_C@_1M@LJKPEMLN@?$AAn?$AAn?$AA?9?$AAn?$AAo?$AA?$AA@ 10052488     libucrt:lcidtoname_downlevel.obj
 0002:00009494       ??_C@_1M@BDGHHBFL@?$AAn?$AAs?$AA?9?$AAz?$AAa?$AA?$AA@ 10052494     libucrt:lcidtoname_downlevel.obj
 0002:000094a0       ??_C@_1M@IDEHOAP@?$AAp?$AAa?$AA?9?$AAi?$AAn?$AA?$AA@ 100524a0     libucrt:lcidtoname_downlevel.obj
 0002:000094ac       ??_C@_1M@HDBKGOGH@?$AAp?$AAl?$AA?9?$AAp?$AAl?$AA?$AA@ 100524ac     libucrt:lcidtoname_downlevel.obj
 0002:000094b8       ??_C@_1M@LJLLCMEH@?$AAp?$AAt?$AA?9?$AAb?$AAr?$AA?$AA@ 100524b8     libucrt:lcidtoname_downlevel.obj
 0002:000094c4       ??_C@_1M@NCMONAAL@?$AAp?$AAt?$AA?9?$AAp?$AAt?$AA?$AA@ 100524c4     libucrt:lcidtoname_downlevel.obj
 0002:000094d0       ??_C@_1O@EAKMAJDN@?$AAq?$AAu?$AAz?$AA?9?$AAb?$AAo?$AA?$AA@ 100524d0     libucrt:lcidtoname_downlevel.obj
 0002:000094e0       ??_C@_1O@BHHPIGDN@?$AAq?$AAu?$AAz?$AA?9?$AAe?$AAc?$AA?$AA@ 100524e0     libucrt:lcidtoname_downlevel.obj
 0002:000094f0       ??_C@_1O@GBAPEKMJ@?$AAq?$AAu?$AAz?$AA?9?$AAp?$AAe?$AA?$AA@ 100524f0     libucrt:lcidtoname_downlevel.obj
 0002:00009500       ??_C@_1M@CLGLEFBO@?$AAr?$AAo?$AA?9?$AAr?$AAo?$AA?$AA@ 10052500     libucrt:lcidtoname_downlevel.obj
 0002:0000950c       ??_C@_1M@CEEDODME@?$AAr?$AAu?$AA?9?$AAr?$AAu?$AA?$AA@ 1005250c     libucrt:lcidtoname_downlevel.obj
 0002:00009518       ??_C@_1M@HPKKKMPP@?$AAs?$AAa?$AA?9?$AAi?$AAn?$AA?$AA@ 10052518     libucrt:lcidtoname_downlevel.obj
 0002:00009524       ??_C@_1M@BKMAIGOJ@?$AAs?$AAe?$AA?9?$AAf?$AAi?$AA?$AA@ 10052524     libucrt:lcidtoname_downlevel.obj
 0002:00009530       ??_C@_1M@NDPIFLFI@?$AAs?$AAe?$AA?9?$AAn?$AAo?$AA?$AA@ 10052530     libucrt:lcidtoname_downlevel.obj
 0002:0000953c       ??_C@_1M@DANKKHJ@?$AAs?$AAe?$AA?9?$AAs?$AAe?$AA?$AA@ 1005253c     libucrt:lcidtoname_downlevel.obj
 0002:00009548       ??_C@_1M@PNBLONPJ@?$AAs?$AAk?$AA?9?$AAs?$AAk?$AA?$AA@ 10052548     libucrt:lcidtoname_downlevel.obj
 0002:00009554       ??_C@_1M@LFMODOAL@?$AAs?$AAl?$AA?9?$AAs?$AAi?$AA?$AA@ 10052554     libucrt:lcidtoname_downlevel.obj
 0002:00009560       ??_C@_1O@DFKOMPG@?$AAs?$AAm?$AAa?$AA?9?$AAn?$AAo?$AA?$AA@ 10052560     libucrt:lcidtoname_downlevel.obj
 0002:00009570       ??_C@_1O@NDKPBNNH@?$AAs?$AAm?$AAa?$AA?9?$AAs?$AAe?$AA?$AA@ 10052570     libucrt:lcidtoname_downlevel.obj
 0002:00009580       ??_C@_1O@PLLKBHAB@?$AAs?$AAm?$AAj?$AA?9?$AAn?$AAo?$AA?$AA@ 10052580     libucrt:lcidtoname_downlevel.obj
 0002:00009590       ??_C@_1O@CLEPOGCA@?$AAs?$AAm?$AAj?$AA?9?$AAs?$AAe?$AA?$AA@ 10052590     libucrt:lcidtoname_downlevel.obj
 0002:000095a0       ??_C@_1O@DLGJGKMK@?$AAs?$AAm?$AAn?$AA?9?$AAf?$AAi?$AA?$AA@ 100525a0     libucrt:lcidtoname_downlevel.obj
 0002:000095b0       ??_C@_1O@OJDJGAJC@?$AAs?$AAm?$AAs?$AA?9?$AAf?$AAi?$AA?$AA@ 100525b0     libucrt:lcidtoname_downlevel.obj
 0002:000095c0       ??_C@_1M@BOFOGHPB@?$AAs?$AAq?$AA?9?$AAa?$AAl?$AA?$AA@ 100525c0     libucrt:lcidtoname_downlevel.obj
 0002:000095cc       ??_C@_1BG@LJBBIPGB@?$AAs?$AAr?$AA?9?$AAb?$AAa?$AA?9?$AAc?$AAy?$AAr?$AAl?$AA?$AA@ 100525cc     libucrt:lcidtoname_downlevel.obj
 0002:000095e4       ??_C@_1BG@JLBENFOE@?$AAs?$AAr?$AA?9?$AAb?$AAa?$AA?9?$AAl?$AAa?$AAt?$AAn?$AA?$AA@ 100525e4     libucrt:lcidtoname_downlevel.obj
 0002:000095fc       ??_C@_1BG@KODPNHE@?$AAs?$AAr?$AA?9?$AAs?$AAp?$AA?9?$AAc?$AAy?$AAr?$AAl?$AA?$AA@ 100525fc     libucrt:lcidtoname_downlevel.obj
 0002:00009614       ??_C@_1BG@CIOGKHPB@?$AAs?$AAr?$AA?9?$AAs?$AAp?$AA?9?$AAl?$AAa?$AAt?$AAn?$AA?$AA@ 10052614     libucrt:lcidtoname_downlevel.obj
 0002:0000962c       ??_C@_1M@NGFJLMAC@?$AAs?$AAv?$AA?9?$AAf?$AAi?$AA?$AA@ 1005262c     libucrt:lcidtoname_downlevel.obj
 0002:00009638       ??_C@_1M@MPJEJAJC@?$AAs?$AAv?$AA?9?$AAs?$AAe?$AA?$AA@ 10052638     libucrt:lcidtoname_downlevel.obj
 0002:00009644       ??_C@_1M@MPNDHLFK@?$AAs?$AAw?$AA?9?$AAk?$AAe?$AA?$AA@ 10052644     libucrt:lcidtoname_downlevel.obj
 0002:00009650       ??_C@_1O@KOHBJJI@?$AAs?$AAy?$AAr?$AA?9?$AAs?$AAy?$AA?$AA@ 10052650     libucrt:lcidtoname_downlevel.obj
 0002:00009660       ??_C@_1M@LDCEFHA@?$AAt?$AAa?$AA?9?$AAi?$AAn?$AA?$AA@ 10052660     libucrt:lcidtoname_downlevel.obj
 0002:0000966c       ??_C@_1M@CNJOFAK@?$AAt?$AAe?$AA?9?$AAi?$AAn?$AA?$AA@ 1005266c     libucrt:lcidtoname_downlevel.obj
 0002:00009678       ??_C@_1M@GNAECACD@?$AAt?$AAh?$AA?9?$AAt?$AAh?$AA?$AA@ 10052678     libucrt:lcidtoname_downlevel.obj
 0002:00009684       ??_C@_1M@CHBIHOJO@?$AAt?$AAn?$AA?9?$AAz?$AAa?$AA?$AA@ 10052684     libucrt:lcidtoname_downlevel.obj
 0002:00009690       ??_C@_1M@GCCMIGPJ@?$AAt?$AAr?$AA?9?$AAt?$AAr?$AA?$AA@ 10052690     libucrt:lcidtoname_downlevel.obj
 0002:0000969c       ??_C@_1M@CELMCNBK@?$AAt?$AAt?$AA?9?$AAr?$AAu?$AA?$AA@ 1005269c     libucrt:lcidtoname_downlevel.obj
 0002:000096a8       ??_C@_1M@KLMCELGA@?$AAu?$AAk?$AA?9?$AAu?$AAa?$AA?$AA@ 100526a8     libucrt:lcidtoname_downlevel.obj
 0002:000096b4       ??_C@_1M@EPAJJAJF@?$AAu?$AAr?$AA?9?$AAp?$AAk?$AA?$AA@ 100526b4     libucrt:lcidtoname_downlevel.obj
 0002:000096c0       ??_C@_1BG@GEGPMCDJ@?$AAu?$AAz?$AA?9?$AAu?$AAz?$AA?9?$AAc?$AAy?$AAr?$AAl?$AA?$AA@ 100526c0     libucrt:lcidtoname_downlevel.obj
 0002:000096d8       ??_C@_1BG@EGGKJILM@?$AAu?$AAz?$AA?9?$AAu?$AAz?$AA?9?$AAl?$AAa?$AAt?$AAn?$AA?$AA@ 100526d8     libucrt:lcidtoname_downlevel.obj
 0002:000096f0       ??_C@_1M@GFOCLFF@?$AAv?$AAi?$AA?9?$AAv?$AAn?$AA?$AA@ 100526f0     libucrt:lcidtoname_downlevel.obj
 0002:000096fc       ??_C@_1M@CPAMEDFI@?$AAx?$AAh?$AA?9?$AAz?$AAa?$AA?$AA@ 100526fc     libucrt:lcidtoname_downlevel.obj
 0002:00009708       ??_C@_1O@EBKIFIGN@?$AAz?$AAh?$AA?9?$AAc?$AAh?$AAs?$AA?$AA@ 10052708     libucrt:lcidtoname_downlevel.obj
 0002:00009718       ??_C@_1O@NMHPGANE@?$AAz?$AAh?$AA?9?$AAc?$AAh?$AAt?$AA?$AA@ 10052718     libucrt:lcidtoname_downlevel.obj
 0002:00009728       ??_C@_1M@LPINJOMC@?$AAz?$AAh?$AA?9?$AAc?$AAn?$AA?$AA@ 10052728     libucrt:lcidtoname_downlevel.obj
 0002:00009734       ??_C@_1M@OCJEJODD@?$AAz?$AAh?$AA?9?$AAh?$AAk?$AA?$AA@ 10052734     libucrt:lcidtoname_downlevel.obj
 0002:00009740       ??_C@_1M@DNDLJINH@?$AAz?$AAh?$AA?9?$AAm?$AAo?$AA?$AA@ 10052740     libucrt:lcidtoname_downlevel.obj
 0002:0000974c       ??_C@_1M@MBFDNDND@?$AAz?$AAh?$AA?9?$AAs?$AAg?$AA?$AA@ 1005274c     libucrt:lcidtoname_downlevel.obj
 0002:00009758       ??_C@_1M@IMEPLEPE@?$AAz?$AAh?$AA?9?$AAt?$AAw?$AA?$AA@ 10052758     libucrt:lcidtoname_downlevel.obj
 0002:00009764       ??_C@_1M@BBGHNHJP@?$AAz?$AAu?$AA?9?$AAz?$AAa?$AA?$AA@ 10052764     libucrt:lcidtoname_downlevel.obj
 0002:00009770       ??_C@_00CNPNBAHC@?$AA@     10052770     libucrt:mbrtowc.obj
 0002:00009774       ??_C@_01GBGANLPD@0?$AA@    10052774     libucrt:cfout.obj
 0002:00009778       ??_C@_05DNEBIAHO@1?$CDINF?$AA@ 10052778     libucrt:cfout.obj
 0002:00009780       ??_C@_06IMKFLFPG@1?$CDQNAN?$AA@ 10052780     libucrt:cfout.obj
 0002:00009788       ??_C@_06PGGFOGJG@1?$CDSNAN?$AA@ 10052788     libucrt:cfout.obj
 0002:00009790       ??_C@_05PHHOCPM@1?$CDIND?$AA@ 10052790     libucrt:cfout.obj
 0002:00009798       __days                     10052798     libucrt:days.obj
 0002:000097cc       __lpdays                   100527cc     libucrt:days.obj
 0002:00009800       ___acrt_pow_rcp_t1         10052800     libucrt:pow_tables.obj
 0002:00009c10       ___acrt_pow_log2_t1        10052c10     libucrt:pow_tables.obj
 0002:0000a420       ___acrt_pow_rcp_t2         10053420     libucrt:pow_tables.obj
 0002:0000a830       ___acrt_pow_log2_t2        10053830     libucrt:pow_tables.obj
 0002:0000b040       ___acrt_pow_rcp_t3         10054040     libucrt:pow_tables.obj
 0002:0000b850       ___acrt_pow_log2_t3        10054850     libucrt:pow_tables.obj
 0002:0000c860       ___acrt_pow_clv            10055860     libucrt:pow_tables.obj
 0002:0000c880       ___acrt_pow_exp2_tbl       10055880     libucrt:pow_tables.obj
 0002:0000d0d8       ??_C@_1BA@BALFACEM@?$AAC?$AAO?$AAN?$AAO?$AAU?$AAT?$AA$?$AA?$AA@ 100560d8     libucrt:initcon.obj
 0002:0000d1f0       ___acrt_log10_table_t      100561f0     libucrt:log10_tables.obj
 0002:0000d600       ___acrt_log10_table_cb     10056600     libucrt:log10_tables.obj
 0002:0000da10       ??_C@_1BK@DBDEIDLH@?$AAK?$AAE?$AAR?$AAN?$AAE?$AAL?$AA3?$AA2?$AA?4?$AAD?$AAL?$AAL@ 10056a10     DelayImp:delayhlp.obj
 0002:0000da2c       ___pfnDliFailureHook2      10056a2c     DelayImp:delayhk1.obj
 0002:0000da30       __load_config_used         10056a30     LIBCMT:loadcfg.obj
 0002:0000dad0       ??_C@_0BC@BDKFLDHL@unknown?5exception@ 10056ad0     Backend.obj
 0002:0000dae4       ??_C@_07CIFAGBMG@unknown@  10056ae4     Backend.obj
 0002:0000daec       ??_C@_1CO@EGNPJLKI@?$AAp?$AAe?$AAr?$AAs?$AAi?$AAs?$AAt?$AAe?$AAn?$AAt?$AA?$CI?$AA?$CJ?$AA?4?$AAI?$AAs@ 10056aec     Backend.obj
 0002:0000db1c       ??_C@_1DA@FBGAEOIO@?$AA?$CB?$AAp?$AAe?$AAr?$AAs?$AAi?$AAs?$AAt?$AAe?$AAn?$AAt?$AA?$CI?$AA?$CJ?$AA?4?$AAI@ 10056b1c     Backend.obj
 0002:0000db4c       ??_C@_1CO@JCKLEFMA@?$AA?$CB?$AAp?$AAe?$AAr?$AAs?$AAi?$AAs?$AAt?$AAe?$AAn?$AAt?$AA?$CI?$AA?$CJ?$AA?4?$AAI@ 10056b4c     Backend.obj
 0002:0000db7c       ??_C@_1BE@GMLLOIPJ@?$AAr?$AAe?$AAf?$AAs?$AA_?$AA?5?$AA?$DO?$AA?5?$AA0@ 10056b7c     Backend.obj
 0002:0000db90       ??_C@_1CC@GBFLAAPF@?$AAw?$AAr?$AAa?$AAp?$AA?9?$AA?$DO?$AAr?$AAe?$AAf?$AAs?$AA_?$AA?5?$AA?$DN?$AA?$DN?$AA?5@ 10056b90     Backend.obj
 0002:0000dbb4       ??_C@_0BA@JFNIOLAK@string?5too?5long@ 10056bb4     Backend.obj
 0002:0000dbc8       ??_C@_1LG@BBINNBLO@?$AAc?$AA?3?$AA?2?$AAu?$AAs?$AAe?$AAr?$AAs?$AA?2?$AAj?$AAo?$AAs?$AAi?$AAa?$AAh@ 10056bc8     Backend.obj
 0002:0000dc80       ??_C@_1EC@MGGLMBLC@?$AAo?$AAb?$AAj?$AAe?$AAc?$AAt?$AA?9?$AA?$DO?$AAI?$AAn?$AAt?$AAe?$AAr?$AAn?$AAa@ 10056c80     Backend.obj
 0002:0000dcc4       ??_7Backend@@6B@           10056cc4     Backend.obj
 0002:0000dce8       ??_7exception@stdext@@6B@  10056ce8     Backend.obj
 0002:0000dcf4       ??_7ObjectWrap@Nan@@6B@    10056cf4     Backend.obj
 0002:0000dd00       ??_C@_05NGOMGBBD@image@    10056d00     ImageBackend.obj
 0002:0000dd08       ??_C@_1KI@EBDNIBOB@?$AAc?$AA?3?$AA?2?$AAu?$AAs?$AAe?$AAr?$AAs?$AA?2?$AAj?$AAo?$AAs?$AAi?$AAa?$AAh@ 10056d08     ImageBackend.obj
 0002:0000ddb0       ??_C@_1BC@DIMDFFBM@?$AA?$CB?$AAs?$AAu?$AAr?$AAf?$AAa?$AAc?$AAe@ 10056db0     ImageBackend.obj
 0002:0000ddc4       ??_C@_1BA@BHHNPNF@?$AAs?$AAu?$AAr?$AAf?$AAa?$AAc?$AAe@ 10056dc4     ImageBackend.obj
 0002:0000ddd4       ??_C@_0N@KBCACLBD@ImageBackend@ 10056dd4     ImageBackend.obj
 0002:0000dde4       ??_7ImageBackend@@6B@      10056de4     ImageBackend.obj
 0002:0000de08       ??_C@_03MJPNCPKC@pdf@      10056e08     PdfBackend.obj
 0002:0000de0c       ??_C@_0L@HCGIDJMC@PdfBackend@ 10056e0c     PdfBackend.obj
 0002:0000de18       ??_C@_0BD@OLBABOEK@vector?$DMT?$DO?5too?5long@ 10056e18     PdfBackend.obj
 0002:0000de2c       ??_7PdfBackend@@6B@        10056e2c     PdfBackend.obj
 0002:0000de50       ??_C@_03NNPBMGBD@svg@      10056e50     SvgBackend.obj
 0002:0000de54       ??_C@_0L@NPKKBKFF@SvgBackend@ 10056e54     SvgBackend.obj
 0002:0000de60       ??_7SvgBackend@@6B@        10056e60     SvgBackend.obj
 0002:0000de84       ??_C@_00CNPNBAHC@@         10056e84     BMPParser.obj
 0002:0000de88       ??_C@_1JK@DJFFKHLA@?$AAc?$AA?3?$AA?2?$AAu?$AAs?$AAe?$AAr?$AAs?$AA?2?$AAj?$AAo?$AAs?$AAi?$AAa?$AAh@ 10056e88     BMPParser.obj
 0002:0000df24       ??_C@_1DA@GJKBCAIL@?$AAs?$AAt?$AAa?$AAt?$AAu?$AAs?$AA?5?$AA?$DN?$AA?$DN?$AA?5?$AAS?$AAt?$AAa?$AAt?$AAu@ 10056f24     BMPParser.obj
 0002:0000df54       ??_C@_0M@OPOGKKPL@file?5header@ 10056f54     BMPParser.obj
 0002:0000df60       ??_C@_0BG@JPBAHECP@file?5header?5signature@ 10056f60     BMPParser.obj
 0002:0000df78       ??_C@_02JKMCABAH@BA@       10056f78     BMPParser.obj
 0002:0000df7c       ??_C@_05BFGHBGGP@?5?$CCBA?$CC@ 10056f7c     BMPParser.obj
 0002:0000df84       ??_C@_02FDNJOBDI@CI@       10056f84     BMPParser.obj
 0002:0000df88       ??_C@_05KDMICALC@?5?$CCCI?$CC@ 10056f88     BMPParser.obj
 0002:0000df90       ??_C@_02MINJEICA@CP@       10056f90     BMPParser.obj
 0002:0000df94       ??_C@_05LADPLIEN@?5?$CCCP?$CC@ 10056f94     BMPParser.obj
 0002:0000df9c       ??_C@_02KEKBIMGE@IC@       10056f9c     BMPParser.obj
 0002:0000dfa0       ??_C@_05MBOCEFAA@?5?$CCIC?$CC@ 10056fa0     BMPParser.obj
 0002:0000dfa8       ??_C@_02LCNFJAAN@PT@       10056fa8     BMPParser.obj
 0002:0000dfac       ??_C@_05PFJKOIOA@?5?$CCPT?$CC@ 10056fac     BMPParser.obj
 0002:0000dfb4       ??_C@_02DGHHEOAL@BM@       10056fb4     BMPParser.obj
 0002:0000dfb8       ??_C@_0BH@PGODKMKI@inconsistent?5file?5size@ 10056fb8     BMPParser.obj
 0002:0000dfd0       ??_C@_0L@DKDHPBLO@DIB?5header@ 10056fd0     BMPParser.obj
 0002:0000dfdc       ??_C@_0BF@JGAMBPJ@?5?$CCOS22XBITMAPHEADER?$CC@ 10056fdc     BMPParser.obj
 0002:0000dff4       ??_C@_0BG@PMCCINBG@?5?$CCBITMAPV2INFOHEADER?$CC@ 10056ff4     BMPParser.obj
 0002:0000e00c       ??_C@_0BG@CBLEFEJD@?5?$CCBITMAPV3INFOHEADER?$CC@ 1005700c     BMPParser.obj
 0002:0000e024       ??_C@_0BC@MMEMFHJ@?5?$CCBITMAPV5HEADER?$CC@ 10057024     BMPParser.obj
 0002:0000e038       ??_C@_0BB@GLFIFBPJ@image?5width?5is?50@ 10057038     BMPParser.obj
 0002:0000e04c       ??_C@_0BF@PICPCPNH@negative?5image?5width@ 1005704c     BMPParser.obj
 0002:0000e064       ??_C@_0BG@DIENJMKE@too?5large?5image?5width@ 10057064     BMPParser.obj
 0002:0000e07c       ??_C@_0BC@BPGKCLEL@image?5height?5is?50@ 1005707c     BMPParser.obj
 0002:0000e090       ??_C@_0BH@MGLIIGAD@too?5large?5image?5height@ 10057090     BMPParser.obj
 0002:0000e0a8       ??_C@_0CB@EHNMIHLN@number?5of?5color?5planes?5must?5be?5@ 100570a8     BMPParser.obj
 0002:0000e0cc       ??_C@_0M@CGFHNEKC@color?5depth@ 100570cc     BMPParser.obj
 0002:0000e0d8       ??_C@_0BB@JGEMFNKM@compression?5type@ 100570d8     BMPParser.obj
 0002:0000e0ec       ??_C@_0L@LHCCDPID@?5?$CCBI_RLE8?$CC@ 100570ec     BMPParser.obj
 0002:0000e0f8       ??_C@_0L@LODIMGOH@?5?$CCBI_RLE4?$CC@ 100570f8     BMPParser.obj
 0002:0000e104       ??_C@_0L@KCBKOKJL@?5?$CCBI_JPEG?$CC@ 10057104     BMPParser.obj
 0002:0000e110       ??_C@_09CJGDEMME@?5?$CCBI_PNG?$CC@ 10057110     BMPParser.obj
 0002:0000e11c       ??_C@_0BF@IIABODNP@?5?$CCBI_ALPHABITFIELDS?$CC@ 1005711c     BMPParser.obj
 0002:0000e134       ??_C@_0L@OLAPJCD@?5?$CCBI_CMYK?$CC@ 10057134     BMPParser.obj
 0002:0000e140       ??_C@_0P@LMMOCJLO@?5?$CCBI_CMYKRLE8?$CC@ 10057140     BMPParser.obj
 0002:0000e150       ??_C@_0P@LFNENANK@?5?$CCBI_CMYKRLE4?$CC@ 10057150     BMPParser.obj
 0002:0000e160       ??_C@_0DO@KHKKDFCE@compression?5BI_BITFIELDS?5can?5be@ 10057160     BMPParser.obj
 0002:0000e1a0       ??_C@_0EC@NHKLHGO@compression?5BI_BITFIELDS?5can?5be@ 100571a0     BMPParser.obj
 0002:0000e1e4       ??_C@_0BI@GKCIJLON@non?9empty?5color?5palette@ 100571e4     BMPParser.obj
 0002:0000e1fc       ??_C@_0BK@HPGENDGE@non?9zero?5important?5colors@ 100571fc     BMPParser.obj
 0002:0000e218       ??_C@_08BFHLIEOC@red?5mask@ 10057218     BMPParser.obj
 0002:0000e224       ??_C@_0L@HPHHIHEI@green?5mask@ 10057224     BMPParser.obj
 0002:0000e230       ??_C@_09HLCEIPAL@blue?5mask@ 10057230     BMPParser.obj
 0002:0000e23c       ??_C@_0L@CFLPJOFG@alpha?5mask@ 1005723c     BMPParser.obj
 0002:0000e248       ??_C@_04CCANGBDI@Win?5@    10057248     BMPParser.obj
 0002:0000e250       ??_C@_01BJJEKLCA@?$CC@     10057250     BMPParser.obj
 0002:0000e254       ??_C@_0O@CJMICHBL@color?5space?5?$CC@ 10057254     BMPParser.obj
 0002:0000e264       ??_C@_0CL@BAIMHKPA@image?5data?5overlaps?5with?5anothe@ 10057264     BMPParser.obj
 0002:0000e290       ??_C@_0L@BENKOINO@image?5data@ 10057290     BMPParser.obj
 0002:0000e29c       ??_C@_0BI@IFJLKLBA@missing?5image?5data?5size@ 1005729c     BMPParser.obj
 0002:0000e2b4       ??_C@_0BN@FHBAMIBA@inconsistent?5image?5data?5size@ 100572b4     BMPParser.obj
 0002:0000e2d4       ??_C@_0BG@MANBHLLD@not?5enough?5image?5data@ 100572d4     BMPParser.obj
 0002:0000e2ec       ??_C@_0BK@KGDODFCD@unable?5to?5allocate?5memory@ 100572ec     BMPParser.obj
 0002:0000e308       ??_C@_0CE@OBHDFGM@extra?5data?5found?5at?5the?5end?5of?5@ 10057308     BMPParser.obj
 0002:0000e32c       ??_C@_03NLJIHOMM@?5?9?5@   1005732c     BMPParser.obj
 0002:0000e330       ??_C@_0BI@MNHGEGHJ@Error?5while?5processing?5@ 10057330     BMPParser.obj
 0002:0000e348       ??_C@_0BH@CFIIDOJD@unexpected?5end?5of?5file@ 10057348     BMPParser.obj
 0002:0000e360       ??_C@_0N@FMIEHHDB@unsupported?5@ 10057360     BMPParser.obj
 0002:0000e370       ??_C@_08OHKLBDEG@unknown?5@ 10057370     BMPParser.obj
 0002:0000e37c       ??_C@_08OMFJPINA@Backends@ 1005737c     Backends.obj
 0002:0000e388       ??_C@_0BA@ELKIONDK@bad?5locale?5name@ 10057388     Canvas.obj
 0002:0000e398       ??_C@_02LMMGGCAJ@?3?5@     10057398     Canvas.obj
 0002:0000e39c       ??_C@_08LLGCOLLL@iostream@ 1005739c     Canvas.obj
 0002:0000e3a8       ??_C@_0BG@PADBLCHM@iostream?5stream?5error@ 100573a8     Canvas.obj
 0002:0000e3c0       ??_C@_0BF@PHHKMMFD@ios_base?3?3badbit?5set@ 100573c0     Canvas.obj
 0002:0000e3d8       ??_C@_0BG@FMKFHCIL@ios_base?3?3failbit?5set@ 100573d8     Canvas.obj
 0002:0000e3f0       ??_C@_0BF@OOHOMBOF@ios_base?3?3eofbit?5set@ 100573f0     Canvas.obj
 0002:0000e408       ??_C@_1MK@DEPBEAFK@?$AAc?$AA?3?$AA?2?$AAu?$AAs?$AAe?$AAr?$AAs?$AA?2?$AAj?$AAo?$AAs?$AAi?$AAa?$AAh@ 10057408     Canvas.obj
 0002:0000e4d8       ??_C@_1FK@CBGIJHDF@?$AAv?$AAa?$AAl?$AAu?$AAe?$AA?4?$AAs?$AAi?$AAz?$AAe?$AA?$CI?$AA?$CJ?$AA?5?$AA?$DM?$AA?$DN@ 100574d8     Canvas.obj
 0002:0000e538       ??_C@_1JO@FLCKDGHB@?$AAc?$AA?3?$AA?2?$AAu?$AAs?$AAe?$AAr?$AAs?$AA?2?$AAj?$AAo?$AAs?$AAi?$AAa?$AAh@ 10057538     Canvas.obj
 0002:0000e5d8       ??_C@_1GA@PFOOBIAG@?$AAl?$AAe?$AAn?$AAg?$AAt?$AAh?$AA?5?$AA?$DM?$AA?$DN?$AA?5?$AAi?$AAm?$AAp?$AA?3?$AA?3@ 100575d8     Canvas.obj
 0002:0000e638       ??_C@_1FM@LOELJOFK@?$AAs?$AAi?$AAz?$AAe?$AA?5?$AA?$DM?$AA?$DN?$AA?5?$AAi?$AAm?$AAp?$AA?3?$AA?3?$AAk?$AAM@ 10057638     Canvas.obj
 0002:0000e694       ??_C@_1BO@OPFMAOCA@?$AAl?$AAe?$AAn?$AA?5?$AA?$DM?$AA?$DN?$AA?5?$AAI?$AAN?$AAT?$AA_?$AAM?$AAA?$AAX@ 10057694     Canvas.obj
 0002:0000e6b4       ??_C@_1BE@CKDJNAPC@?$AAs?$AAt?$AAr?$AA_?$AA?5?$AA?$CB?$AA?$DN?$AA?5?$AA0@ 100576b4     Canvas.obj
 0002:0000e6c8       ??_C@_05EGBLHKBN@1?44?43@  100576c8     Canvas.obj
 0002:0000e6d0       ??_C@_06PBIJCONE@Canvas@   100576d0     Canvas.obj
 0002:0000e6d8       ??_C@_08GOCDALDA@toBuffer@ 100576d8     Canvas.obj
 0002:0000e6e4       ??_C@_0O@IOKOGJGN@streamPNGSync@ 100576e4     Canvas.obj
 0002:0000e6f4       ??_C@_0O@OBICOFIG@streamPDFSync@ 100576f4     Canvas.obj
 0002:0000e704       ??_C@_0P@GMDNPKGK@streamJPEGSync@ 10057704     Canvas.obj
 0002:0000e714       ??_C@_04GPMDFGEJ@type@     10057714     Canvas.obj
 0002:0000e71c       ??_C@_06LNMIFCNI@stride@   1005771c     Canvas.obj
 0002:0000e724       ??_C@_05IGKADHGO@width@    10057724     Canvas.obj
 0002:0000e72c       ??_C@_06LNLHEAAG@height@   1005772c     Canvas.obj
 0002:0000e734       ??_C@_0P@DNOOAMCM@PNG_NO_FILTERS@ 10057734     Canvas.obj
 0002:0000e744       ??_C@_0BA@NECJFJGB@PNG_FILTER_NONE@ 10057744     Canvas.obj
 0002:0000e754       ??_C@_0P@ILKINAJE@PNG_FILTER_SUB@ 10057754     Canvas.obj
 0002:0000e764       ??_C@_0O@PHEANGBB@PNG_FILTER_UP@ 10057764     Canvas.obj
 0002:0000e774       ??_C@_0P@OIJAFJM@PNG_FILTER_AVG@ 10057774     Canvas.obj
 0002:0000e784       ??_C@_0BB@EOMICOFG@PNG_FILTER_PAETH@ 10057784     Canvas.obj
 0002:0000e798       ??_C@_0BA@HBOOLNBH@PNG_ALL_FILTERS@ 10057798     Canvas.obj
 0002:0000e7a8       ??_C@_0O@KCCDDIBD@_registerFont@ 100577a8     Canvas.obj
 0002:0000e7b8       ??_C@_0DD@NOKGMICM@Class?5constructors?5cannot?5be?5in@ 100577b8     Canvas.obj
 0002:0000e7ec       ??_C@_0BC@PALKPJEA@Invalid?5arguments@ 100577ec     Canvas.obj
 0002:0000e800       ??_C@_0BB@CHLGOGDL@compressionLevel@ 10057800     Canvas.obj
 0002:0000e814       ??_C@_0L@CAGNKJED@resolution@ 10057814     Canvas.obj
 0002:0000e820       ??_C@_07LOIMJIII@filters@  10057820     Canvas.obj
 0002:0000e828       ??_C@_07JKIHKJOO@palette@  10057828     Canvas.obj
 0002:0000e830       ??_C@_0CI@BHLKFIE@Palette?5length?5must?5be?5a?5multip@ 10057830     Canvas.obj
 0002:0000e858       ??_C@_0BA@IGMJCIAO@backgroundIndex@ 10057858     Canvas.obj
 0002:0000e868       ??_C@_07DADGLCBN@quality@  10057868     Canvas.obj
 0002:0000e870       ??_C@_0BC@PBNJDFOD@chromaSubsampling@ 10057870     Canvas.obj
 0002:0000e884       ??_C@_0M@BECHMDJA@progressive@ 10057884     Canvas.obj
 0002:0000e890       ??_C@_03DGOGAGNC@raw@      10057890     Canvas.obj
 0002:0000e894       ??_C@_09NGJJJBGE@image?1png@ 10057894     Canvas.obj
 0002:0000e8a0       ??_C@_0L@PJKHLKFB@image?1jpeg@ 100578a0     Canvas.obj
 0002:0000e8ac       ??_C@_0BL@NEPODJIN@callback?5function?5required@ 100578ac     Canvas.obj
 0002:0000e8c8       ??_C@_0BC@FANAGBIP@wrong?5canvas?5type@ 100578c8     Canvas.obj
 0002:0000e8dc       ??_C@_0BE@BPOGMHI@Wrong?5argument?5type@ 100578dc     Canvas.obj
 0002:0000e8f0       ??_C@_0KD@OFKOCKPC@The?5second?5argument?5to?5register@ 100578f0     Canvas.obj
 0002:0000e994       ??_C@_0BK@COFJPHCD@Could?5not?5parse?5font?5file@ 10057994     Canvas.obj
 0002:0000e9b0       ??_C@_06NBOBHOCP@family@   100579b0     Canvas.obj
 0002:0000e9b8       ??_C@_06CMCBKMCB@weight@   100579b8     Canvas.obj
 0002:0000e9c0       ??_C@_05IAKJCFIM@style@    100579c0     Canvas.obj
 0002:0000e9c8       ??_C@_06IKLLLDHL@normal@   100579c8     Canvas.obj
 0002:0000e9d0       ??_C@_0CO@PJJOAFFD@Could?5not?5load?5font?5to?5the?5syst@ 100579d0     Canvas.obj
 0002:0000ea00       ??_C@_06DAHKLION@italic@   10057a00     Canvas.obj
 0002:0000ea08       ??_C@_07PNBIOHPA@oblique@  10057a08     Canvas.obj
 0002:0000ea10       ??_C@_04PJDGFHHN@bold@     10057a10     Canvas.obj
 0002:0000ea18       ??_C@_03GNABGMEE@100@      10057a18     Canvas.obj
 0002:0000ea1c       ??_C@_03HPLEMDKK@200@      10057a1c     Canvas.obj
 0002:0000ea20       ??_C@_03MHAIKEMP@300@      10057a20     Canvas.obj
 0002:0000ea24       ??_C@_03FKNPJMHG@400@      10057a24     Canvas.obj
 0002:0000ea28       ??_C@_03OCGDPLBD@500@      10057a28     Canvas.obj
 0002:0000ea2c       ??_C@_03PANGFEPN@600@      10057a2c     Canvas.obj
 0002:0000ea30       ??_C@_03EIGKDDJI@700@      10057a30     Canvas.obj
 0002:0000ea34       ??_C@_03BAAJCDMO@800@      10057a34     Canvas.obj
 0002:0000ea38       ??_C@_03KILFEEKL@900@      10057a38     Canvas.obj
 0002:0000ea3c       ??_C@_07JKKCBBMM@context@  10057a3c     Canvas.obj
 0002:0000ea48       ??_C@_1MG@OALMMCHL@?$AAc?$AA?3?$AA?2?$AAu?$AAs?$AAe?$AAr?$AAs?$AA?2?$AAj?$AAo?$AAs?$AAi?$AAa?$AAh@ 10057a48     Canvas.obj
 0002:0000eb10       ??_C@_1GK@KNJIIFLH@?$AAr?$AAe?$AAi?$AAn?$AAt?$AAe?$AAr?$AAp?$AAr?$AAe?$AAt?$AA_?$AAc?$AAa?$AAs@ 10057b10     Canvas.obj
 0002:0000eb7c       ??_C@_1CE@LNAGEONJ@?$AA?$CB?$AAo?$AAb?$AAj?$AAe?$AAc?$AAt?$AA?4?$AAI?$AAs?$AAE?$AAm?$AAp?$AAt?$AAy@ 10057b7c     Canvas.obj
 0002:0000eba0       ??_C@_0BB@MOGOBHAF@list?$DMT?$DO?5too?5long@ 10057ba0     Canvas.obj
 0002:0000ebb4       ??_7?$basic_streambuf@DU?$char_traits@D@std@@@std@@6B@ 10057bb4     Canvas.obj
 0002:0000ebf0       ??_7_Iostream_error_category@std@@6B@ 10057bf0     Canvas.obj
 0002:0000ec08       ??_7ios_base@std@@6B@      10057c08     Canvas.obj
 0002:0000ec0c       ??_7?$basic_ios@DU?$char_traits@D@std@@@std@@6B@ 10057c0c     Canvas.obj
 0002:0000ec10       ??_7?$basic_stringbuf@DU?$char_traits@D@std@@V?$allocator@D@2@@std@@6B@ 10057c10     Canvas.obj
 0002:0000ec4c       ??_7?$basic_istream@DU?$char_traits@D@std@@@std@@6B@ 10057c4c     Canvas.obj
 0002:0000ec50       ??_7Canvas@@6B@            10057c50     Canvas.obj
 0002:0000ec5c       ??_8?$basic_istringstream@DU?$char_traits@D@std@@V?$allocator@D@2@@std@@7B@ 10057c5c     Canvas.obj
 0002:0000ec64       ??_7?$basic_istringstream@DU?$char_traits@D@std@@V?$allocator@D@2@@std@@6B@ 10057c64     Canvas.obj
 0002:0000ec68       ??_7failure@ios_base@std@@6B@ 10057c68     Canvas.obj
 0002:0000ec74       ??_C@_0P@CKNMLMDB@CanvasGradient@ 10057c74     CanvasGradient.obj
 0002:0000ec84       ??_C@_0N@FFOKKILE@addColorStop@ 10057c84     CanvasGradient.obj
 0002:0000ec94       ??_C@_0BC@KNPMEBHA@invalid?5arguments@ 10057c94     CanvasGradient.obj
 0002:0000eca8       ??_C@_0BA@ELGKPKEI@offset?5required@ 10057ca8     CanvasGradient.obj
 0002:0000ecb8       ??_C@_0BG@HHHCEBEM@color?5string?5required@ 10057cb8     CanvasGradient.obj
 0002:0000ecd0       ??_C@_0BD@JKDEPLNJ@parse?5color?5failed@ 10057cd0     CanvasGradient.obj
 0002:0000ece4       ??_7Gradient@@6B@          10057ce4     CanvasGradient.obj
 0002:0000ecf0       ??_C@_0O@KEPDKAFI@CanvasPattern@ 10057cf0     CanvasPattern.obj
 0002:0000ed00       ??_C@_0CG@CKGIHBBA@Image?5given?5has?5not?5completed?5l@ 10057d00     CanvasPattern.obj
 0002:0000ed28       ??_C@_0BJ@NBALILEB@Image?5or?5Canvas?5expected@ 10057d28     CanvasPattern.obj
 0002:0000ed44       ??_C@_09OGFADPEI@no?9repeat@ 10057d44     CanvasPattern.obj
 0002:0000ed50       ??_C@_08HMIFKPGE@repeat?9x@ 10057d50     CanvasPattern.obj
 0002:0000ed5c       ??_C@_08GFJOJOCF@repeat?9y@ 10057d5c     CanvasPattern.obj
 0002:0000ed68       ??_7Pattern@@6B@           10057d68     CanvasPattern.obj
 0002:0000ed74       ??_C@_03JBJLGPFL@end@      10057d74     CanvasRenderingContext2d.obj
 0002:0000ed78       ??_C@_0BJ@HOMNLOJF@CanvasRenderingContext2D@ 10057d78     CanvasRenderingContext2d.obj
 0002:0000ed94       ??_C@_09LANPKMCJ@drawImage@ 10057d94     CanvasRenderingContext2d.obj
 0002:0000eda0       ??_C@_0N@HMHAOANH@putImageData@ 10057da0     CanvasRenderingContext2d.obj
 0002:0000edb0       ??_C@_0N@LJBMKNKJ@getImageData@ 10057db0     CanvasRenderingContext2d.obj
 0002:0000edc0       ??_C@_0BA@LENOHGDH@createImageData@ 10057dc0     CanvasRenderingContext2d.obj
 0002:0000edd0       ??_C@_07IEJLLIOD@addPage@  10057dd0     CanvasRenderingContext2d.obj
 0002:0000edd8       ??_C@_04EMMDIJJL@save@     10057dd8     CanvasRenderingContext2d.obj
 0002:0000ede0       ??_C@_07HICINA@restore@    10057de0     CanvasRenderingContext2d.obj
 0002:0000ede8       ??_C@_06CEHMNFAL@rotate@   10057de8     CanvasRenderingContext2d.obj
 0002:0000edf0       ??_C@_09ODNGOEIO@translate@ 10057df0     CanvasRenderingContext2d.obj
 0002:0000edfc       ??_C@_09IFONHNKG@transform@ 10057dfc     CanvasRenderingContext2d.obj
 0002:0000ee08       ??_C@_0P@KBHJLFLN@resetTransform@ 10057e08     CanvasRenderingContext2d.obj
 0002:0000ee18       ??_C@_0N@NPHKHKKB@setTransform@ 10057e18     CanvasRenderingContext2d.obj
 0002:0000ee28       ??_C@_0O@MDNHBEAB@isPointInPath@ 10057e28     CanvasRenderingContext2d.obj
 0002:0000ee38       ??_C@_05MHMEBBGO@scale@    10057e38     CanvasRenderingContext2d.obj
 0002:0000ee40       ??_C@_04POIGMEJN@clip@     10057e40     CanvasRenderingContext2d.obj
 0002:0000ee48       ??_C@_04OBAECEGJ@fill@     10057e48     CanvasRenderingContext2d.obj
 0002:0000ee50       ??_C@_06JDPPEKDJ@stroke@   10057e50     CanvasRenderingContext2d.obj
 0002:0000ee58       ??_C@_08BKNBKKHP@fillText@ 10057e58     CanvasRenderingContext2d.obj
 0002:0000ee64       ??_C@_0L@NKNGGLJB@strokeText@ 10057e64     CanvasRenderingContext2d.obj
 0002:0000ee70       ??_C@_08IFOCBDEO@fillRect@ 10057e70     CanvasRenderingContext2d.obj
 0002:0000ee7c       ??_C@_0L@EFOFNCKA@strokeRect@ 10057e7c     CanvasRenderingContext2d.obj
 0002:0000ee88       ??_C@_09CADLENBP@clearRect@ 10057e88     CanvasRenderingContext2d.obj
 0002:0000ee94       ??_C@_04LHPFHFPH@rect@     10057e94     CanvasRenderingContext2d.obj
 0002:0000ee9c       ??_C@_0M@PDPLNFGN@measureText@ 10057e9c     CanvasRenderingContext2d.obj
 0002:0000eea8       ??_C@_06ICOKFDHB@moveTo@   10057ea8     CanvasRenderingContext2d.obj
 0002:0000eeb0       ??_C@_06KCFEGHJL@lineTo@   10057eb0     CanvasRenderingContext2d.obj
 0002:0000eeb8       ??_C@_0O@PAEGDEKM@bezierCurveTo@ 10057eb8     CanvasRenderingContext2d.obj
 0002:0000eec8       ??_C@_0BB@NNCDNEFE@quadraticCurveTo@ 10057ec8     CanvasRenderingContext2d.obj
 0002:0000eedc       ??_C@_09GMDIDHBP@beginPath@ 10057edc     CanvasRenderingContext2d.obj
 0002:0000eee8       ??_C@_09FFNFMCIM@closePath@ 10057ee8     CanvasRenderingContext2d.obj
 0002:0000eef4       ??_C@_03EEIEDENP@arc@      10057ef4     CanvasRenderingContext2d.obj
 0002:0000eef8       ??_C@_05KOMEJIOF@arcTo@    10057ef8     CanvasRenderingContext2d.obj
 0002:0000ef00       ??_C@_07IANGJLLC@ellipse@  10057f00     CanvasRenderingContext2d.obj
 0002:0000ef08       ??_C@_0M@KIBHMOJH@setLineDash@ 10057f08     CanvasRenderingContext2d.obj
 0002:0000ef14       ??_C@_0M@KHAJBIBE@getLineDash@ 10057f14     CanvasRenderingContext2d.obj
 0002:0000ef20       ??_C@_0O@IIFIBGIF@createPattern@ 10057f20     CanvasRenderingContext2d.obj
 0002:0000ef30       ??_C@_0BF@FLJOOEKA@createLinearGradient@ 10057f30     CanvasRenderingContext2d.obj
 0002:0000ef48       ??_C@_0BF@MHOEOHFA@createRadialGradient@ 10057f48     CanvasRenderingContext2d.obj
 0002:0000ef60       ??_C@_0M@GJLGNIPC@pixelFormat@ 10057f60     CanvasRenderingContext2d.obj
 0002:0000ef6c       ??_C@_0P@HGKACBEG@patternQuality@ 10057f6c     CanvasRenderingContext2d.obj
 0002:0000ef7c       ??_C@_0BG@NBHIGNIP@imageSmoothingEnabled@ 10057f7c     CanvasRenderingContext2d.obj
 0002:0000ef94       ??_C@_0BJ@KOAEPHEF@globalCompositeOperation@ 10057f94     CanvasRenderingContext2d.obj
 0002:0000efb0       ??_C@_0M@EJNLOLOE@globalAlpha@ 10057fb0     CanvasRenderingContext2d.obj
 0002:0000efbc       ??_C@_0M@JPJLLJDB@shadowColor@ 10057fbc     CanvasRenderingContext2d.obj
 0002:0000efc8       ??_C@_0L@EFNIPLDK@miterLimit@ 10057fc8     CanvasRenderingContext2d.obj
 0002:0000efd4       ??_C@_09PELAPJEH@lineWidth@ 10057fd4     CanvasRenderingContext2d.obj
 0002:0000efe0       ??_C@_07IPBACFHB@lineCap@  10057fe0     CanvasRenderingContext2d.obj
 0002:0000efe8       ??_C@_08CCMLJKBL@lineJoin@ 10057fe8     CanvasRenderingContext2d.obj
 0002:0000eff4       ??_C@_0P@NNEFDNMM@lineDashOffset@ 10057ff4     CanvasRenderingContext2d.obj
 0002:0000f004       ??_C@_0O@FOAIOCIO@shadowOffsetX@ 10058004     CanvasRenderingContext2d.obj
 0002:0000f014       ??_C@_0O@EHBDNDMP@shadowOffsetY@ 10058014     CanvasRenderingContext2d.obj
 0002:0000f024       ??_C@_0L@FJBIPGOL@shadowBlur@ 10058024     CanvasRenderingContext2d.obj
 0002:0000f030       ??_C@_09BEIGEBLF@antialias@ 10058030     CanvasRenderingContext2d.obj
 0002:0000f03c       ??_C@_0BA@GALDJJKL@textDrawingMode@ 1005803c     CanvasRenderingContext2d.obj
 0002:0000f04c       ??_C@_0BB@FMAKGOMH@currentTransform@ 1005804c     CanvasRenderingContext2d.obj
 0002:0000f060       ??_C@_09DCCGDJMC@fillStyle@ 10058060     CanvasRenderingContext2d.obj
 0002:0000f06c       ??_C@_0M@HFFEPBHM@strokeStyle@ 1005806c     CanvasRenderingContext2d.obj
 0002:0000f078       ??_C@_04EFPADHIC@font@     10058078     CanvasRenderingContext2d.obj
 0002:0000f080       ??_C@_0N@KIMHKGNF@textBaseline@ 10058080     CanvasRenderingContext2d.obj
 0002:0000f090       ??_C@_09PKLPGIBN@textAlign@ 10058090     CanvasRenderingContext2d.obj
 0002:0000f09c       ??_C@_0BJ@OLEJJKDH@CanvasRenderingContext2d@ 1005809c     CanvasRenderingContext2d.obj
 0002:0000f0b8       ??_C@_0BN@JFEMENH@CanvasRenderingContext2dInit@ 100580b8     CanvasRenderingContext2d.obj
 0002:0000f0d8       ??_C@_0L@NNKNDDLN@sans?5serif@ 100580d8     CanvasRenderingContext2d.obj
 0002:0000f0e4       ??_C@_0BJ@MMHEOABP@Unexpected?5gradient?5type@ 100580e4     CanvasRenderingContext2d.obj
 0002:0000f100       ??_C@_0BN@FEKPFJFP@Failed?5to?5initialize?5context@ 10058100     CanvasRenderingContext2d.obj
 0002:0000f120       ??_C@_07NOFPBGJH@evenodd@  10058120     CanvasRenderingContext2d.obj
 0002:0000f128       ??_C@_0BA@IBFIJLCO@Canvas?5expected@ 10058128     CanvasRenderingContext2d.obj
 0002:0000f138       ??_C@_06OECNJAC@RGBA32@    10058138     CanvasRenderingContext2d.obj
 0002:0000f140       ??_C@_05EIHACBEG@RGB24@    10058140     CanvasRenderingContext2d.obj
 0002:0000f148       ??_C@_02GGHJHNOB@A8@       10058148     CanvasRenderingContext2d.obj
 0002:0000f14c       ??_C@_09FDIJCLOJ@RGB16_565@ 1005814c     CanvasRenderingContext2d.obj
 0002:0000f158       ??_C@_02LHLLMGKI@A1@       10058158     CanvasRenderingContext2d.obj
 0002:0000f15c       ??_C@_05IAEKHIAN@alpha@    1005815c     CanvasRenderingContext2d.obj
 0002:0000f164       ??_C@_0CG@EHLCPGGB@only?5PDF?5canvases?5support?5?4next@ 10058164     CanvasRenderingContext2d.obj
 0002:0000f18c       ??_C@_0BD@DJPHEEKJ@ImageData?5expected@ 1005818c     CanvasRenderingContext2d.obj
 0002:0000f1a0       ??_C@_0DJ@CKCCPANE@putImageData?5for?5CANVAS_FORMAT_@ 100581a0     CanvasRenderingContext2d.obj
 0002:0000f1dc       ??_C@_0BF@EKHJHFGA@Invalid?5pixel?5format@ 100581dc     CanvasRenderingContext2d.obj
 0002:0000f1f4       ??_C@_0CH@NDMGIAMG@IndexSizeError?3?5The?5source?5widt@ 100581f4     CanvasRenderingContext2d.obj
 0002:0000f21c       ??_C@_0CI@HDADGBDO@IndexSizeError?3?5The?5source?5heig@ 1005821c     CanvasRenderingContext2d.obj
 0002:0000f244       ??_C@_0BC@GJDMJLID@Canvas?5width?5is?50@ 10058244     CanvasRenderingContext2d.obj
 0002:0000f258       ??_C@_0BD@KPLINHKD@Canvas?5height?5is?50@ 10058258     CanvasRenderingContext2d.obj
 0002:0000f26c       ??_C@_0DJ@DCIKNENI@getImageData?5for?5CANVAS_FORMAT_@ 1005826c     CanvasRenderingContext2d.obj
 0002:0000f2a8       ??_C@_0CF@NIOBFMGH@The?5first?5argument?5must?5be?5an?5o@ 100582a8     CanvasRenderingContext2d.obj
 0002:0000f2d0       ??_C@_0M@OABMHCHE@source?9over@ 100582d0     CanvasRenderingContext2d.obj
 0002:0000f2dc       ??_C@_05MEHLAELG@clear@    100582dc     CanvasRenderingContext2d.obj
 0002:0000f2e4       ??_C@_04COAGEIMF@copy@     100582e4     CanvasRenderingContext2d.obj
 0002:0000f2ec       ??_C@_0M@BLMAJMLK@destination@ 100582ec     CanvasRenderingContext2d.obj
 0002:0000f2f8       ??_C@_0BB@CIGJAIPI@destination?9over@ 100582f8     CanvasRenderingContext2d.obj
 0002:0000f30c       ??_C@_09CMAEPNDN@source?9in@ 1005830c     CanvasRenderingContext2d.obj
 0002:0000f318       ??_C@_0P@GAHJLNBO@destination?9in@ 10058318     CanvasRenderingContext2d.obj
 0002:0000f328       ??_C@_0L@CGAPOHFD@source?9out@ 10058328     CanvasRenderingContext2d.obj
 0002:0000f334       ??_C@_0BA@IECEOLGB@destination?9out@ 10058334     CanvasRenderingContext2d.obj
 0002:0000f344       ??_C@_0M@MKIEODMK@source?9atop@ 10058344     CanvasRenderingContext2d.obj
 0002:0000f350       ??_C@_0BB@CPBJJEG@destination?9atop@ 10058350     CanvasRenderingContext2d.obj
 0002:0000f364       ??_C@_03COLCDPPJ@xor@      10058364     CanvasRenderingContext2d.obj
 0002:0000f368       ??_C@_07IEMLKEO@lighter@   10058368     CanvasRenderingContext2d.obj
 0002:0000f370       ??_C@_08MMOCDOEL@multiply@ 10058370     CanvasRenderingContext2d.obj
 0002:0000f37c       ??_C@_06LPLGMLP@screen@    1005837c     CanvasRenderingContext2d.obj
 0002:0000f384       ??_C@_07BJNHBMF@overlay@   10058384     CanvasRenderingContext2d.obj
 0002:0000f38c       ??_C@_06EJFBIMH@darken@    1005838c     CanvasRenderingContext2d.obj
 0002:0000f394       ??_C@_07OODLOHBD@lighten@  10058394     CanvasRenderingContext2d.obj
 0002:0000f39c       ??_C@_0M@HJIFAOGP@color?9dodge@ 1005839c     CanvasRenderingContext2d.obj
 0002:0000f3a8       ??_C@_0L@BNODHIAO@color?9burn@ 100583a8     CanvasRenderingContext2d.obj
 0002:0000f3b4       ??_C@_0L@CEKGHIKD@hard?9light@ 100583b4     CanvasRenderingContext2d.obj
 0002:0000f3c0       ??_C@_0L@DKCPCJMJ@soft?9light@ 100583c0     CanvasRenderingContext2d.obj
 0002:0000f3cc       ??_C@_0L@CHCOIIBP@difference@ 100583cc     CanvasRenderingContext2d.obj
 0002:0000f3d8       ??_C@_09GJPEMMGJ@exclusion@ 100583d8     CanvasRenderingContext2d.obj
 0002:0000f3e4       ??_C@_03GKJJMKFG@hue@      100583e4     CanvasRenderingContext2d.obj
 0002:0000f3e8       ??_C@_0L@MOLEDBMN@saturation@ 100583e8     CanvasRenderingContext2d.obj
 0002:0000f3f4       ??_C@_05PEENBMOG@color@    100583f4     CanvasRenderingContext2d.obj
 0002:0000f3fc       ??_C@_0L@MLCMHDMB@luminosity@ 100583fc     CanvasRenderingContext2d.obj
 0002:0000f408       ??_C@_08MEKLKAIJ@saturate@ 10058408     CanvasRenderingContext2d.obj
 0002:0000f414       ??_C@_04LBNBHAJC@fast@     10058414     CanvasRenderingContext2d.obj
 0002:0000f41c       ??_C@_04DDJAGGFE@good@     1005841c     CanvasRenderingContext2d.obj
 0002:0000f424       ??_C@_04MLDDEBAF@best@     10058424     CanvasRenderingContext2d.obj
 0002:0000f42c       ??_C@_07NHJEPDMH@nearest@  1005842c     CanvasRenderingContext2d.obj
 0002:0000f434       ??_C@_08LJMMPFJO@bilinear@ 10058434     CanvasRenderingContext2d.obj
 0002:0000f440       ??_C@_04CGFJFPFD@none@     10058440     CanvasRenderingContext2d.obj
 0002:0000f448       ??_C@_04GEBBKIAA@gray@     10058448     CanvasRenderingContext2d.obj
 0002:0000f450       ??_C@_08JOJOGLJH@subpixel@ 10058450     CanvasRenderingContext2d.obj
 0002:0000f45c       ??_C@_07DLHCIBDH@default@  1005845c     CanvasRenderingContext2d.obj
 0002:0000f464       ??_C@_04LNEJFJGI@path@     10058464     CanvasRenderingContext2d.obj
 0002:0000f46c       ??_C@_05OIOMJNBL@glyph@    1005846c     CanvasRenderingContext2d.obj
 0002:0000f474       ??_C@_0BD@BOGGAILC@Expected?5DOMMatrix@ 10058474     CanvasRenderingContext2d.obj
 0002:0000f488       ??_C@_01INIBCBCB@f@        10058488     CanvasRenderingContext2d.obj
 0002:0000f48c       ??_C@_01KGKMHCOC@e@        1005848c     CanvasRenderingContext2d.obj
 0002:0000f490       ??_C@_01LPLHEDKD@d@        10058490     CanvasRenderingContext2d.obj
 0002:0000f494       ??_C@_01PAPGNFGE@c@        10058494     CanvasRenderingContext2d.obj
 0002:0000f498       ??_C@_01OJONOECF@b@        10058498     CanvasRenderingContext2d.obj
 0002:0000f49c       ??_C@_01MCMALHOG@a@        1005849c     CanvasRenderingContext2d.obj
 0002:0000f4a0       ??_C@_0BN@MEBGIMHG@Gradient?5or?5Pattern?5expected@ 100584a0     CanvasRenderingContext2d.obj
 0002:0000f4c0       ??_C@_05JDNDNKBA@bevel@    100584c0     CanvasRenderingContext2d.obj
 0002:0000f4c8       ??_C@_05MIMAKCN@round@     100584c8     CanvasRenderingContext2d.obj
 0002:0000f4d0       ??_C@_05NJDNHCJA@miter@    100584d0     CanvasRenderingContext2d.obj
 0002:0000f4d8       ??_C@_06ICDKOIFG@square@   100584d8     CanvasRenderingContext2d.obj
 0002:0000f4e0       ??_C@_04JOGFAABP@butt@     100584e0     CanvasRenderingContext2d.obj
 0002:0000f4e8       ??_C@_06LGDBIFHB@repeat@   100584e8     CanvasRenderingContext2d.obj
 0002:0000f4f0       ??_C@_0BA@LKDIBKDD@10px?5sans?9serif@ 100584f0     CanvasRenderingContext2d.obj
 0002:0000f500       ??_C@_04IAGNFIBA@size@     10058500     CanvasRenderingContext2d.obj
 0002:0000f508       ??_C@_04NPEDKLDA@unit@     10058508     CanvasRenderingContext2d.obj
 0002:0000f510       ??_C@_0L@OJPAHFPD@alphabetic@ 10058510     CanvasRenderingContext2d.obj
 0002:0000f51c       ??_C@_03FGFCOCMD@top@      1005851c     CanvasRenderingContext2d.obj
 0002:0000f520       ??_C@_06PMMPCIPB@bottom@   10058520     CanvasRenderingContext2d.obj
 0002:0000f528       ??_C@_06CGLIEPEJ@middle@   10058528     CanvasRenderingContext2d.obj
 0002:0000f530       ??_C@_0M@JCPEIEF@ideographic@ 10058530     CanvasRenderingContext2d.obj
 0002:0000f53c       ??_C@_07IDCFLKHN@hanging@  1005853c     CanvasRenderingContext2d.obj
 0002:0000f544       ??_C@_05FAGFPHJG@start@    10058544     CanvasRenderingContext2d.obj
 0002:0000f54c       ??_C@_06BBLOAEEI@center@   1005854c     CanvasRenderingContext2d.obj
 0002:0000f554       ??_C@_04GOOOJOPP@left@     10058554     CanvasRenderingContext2d.obj
 0002:0000f55c       ??_C@_05DHJDAOHK@right@    1005855c     CanvasRenderingContext2d.obj
 0002:0000f564       ??_C@_0BG@IGICBKHO@actualBoundingBoxLeft@ 10058564     CanvasRenderingContext2d.obj
 0002:0000f57c       ??_C@_0BH@KNMENBEI@actualBoundingBoxRight@ 1005857c     CanvasRenderingContext2d.obj
 0002:0000f594       ??_C@_0BI@NBNJEOJE@actualBoundingBoxAscent@ 10058594     CanvasRenderingContext2d.obj
 0002:0000f5ac       ??_C@_0BJ@LKCIMDON@actualBoundingBoxDescent@ 100585ac     CanvasRenderingContext2d.obj
 0002:0000f5c8       ??_C@_0P@FGHEPLGI@emHeightAscent@ 100585c8     CanvasRenderingContext2d.obj
 0002:0000f5d8       ??_C@_0BA@OKENAGP@emHeightDescent@ 100585d8     CanvasRenderingContext2d.obj
 0002:0000f5e8       ??_C@_0BD@NGFBNEGE@alphabeticBaseline@ 100585e8     CanvasRenderingContext2d.obj
 0002:0000f5fc       ??_C@_0BE@JONHPENG@map?1set?$DMT?$DO?5too?5long@ 100585fc     CanvasRenderingContext2d.obj
 0002:0000f610       ??_7Context2d@@6B@         10058610     CanvasRenderingContext2d.obj
 0002:0000f61c       ??_C@_0M@CEEDCJLA@transparent@ 1005861c     color.obj
 0002:0000f628       ??_C@_09GNHGKALJ@aliceblue@ 10058628     color.obj
 0002:0000f634       ??_C@_0N@OJFLMGEJ@antiquewhite@ 10058634     color.obj
 0002:0000f644       ??_C@_04GANAGBLL@aqua@     10058644     color.obj
 0002:0000f64c       ??_C@_0L@MOKEMMG@aquamarine@ 1005864c     color.obj
 0002:0000f658       ??_C@_05CNOJAJLP@azure@    10058658     color.obj
 0002:0000f660       ??_C@_05EJOPPCPO@beige@    10058660     color.obj
 0002:0000f668       ??_C@_06HGAAELGA@bisque@   10058668     color.obj
 0002:0000f670       ??_C@_05BIMBDNDC@black@    10058670     color.obj
 0002:0000f678       ??_C@_0P@CMCBOAOE@blanchedalmond@ 10058678     color.obj
 0002:0000f688       ??_C@_04OBGPFBCN@blue@     10058688     color.obj
 0002:0000f690       ??_C@_0L@LKLKALMM@blueviolet@ 10058690     color.obj
 0002:0000f69c       ??_C@_05EBJGJMAL@brown@    1005869c     color.obj
 0002:0000f6a4       ??_C@_09JHLANABP@burlywood@ 100586a4     color.obj
 0002:0000f6b0       ??_C@_09KIJDGGAG@cadetblue@ 100586b0     color.obj
 0002:0000f6bc       ??_C@_0L@CHNAEACO@chartreuse@ 100586bc     color.obj
 0002:0000f6c8       ??_C@_09BPADAHOC@chocolate@ 100586c8     color.obj
 0002:0000f6d4       ??_C@_05JKFECOJP@coral@    100586d4     color.obj
 0002:0000f6dc       ??_C@_0P@KLMOGGLK@cornflowerblue@ 100586dc     color.obj
 0002:0000f6ec       ??_C@_08DECOJLB@cornsilk@  100586ec     color.obj
 0002:0000f6f8       ??_C@_07DAGIGOOE@crimson@  100586f8     color.obj
 0002:0000f700       ??_C@_04EDBDANFH@cyan@     10058700     color.obj
 0002:0000f708       ??_C@_08MFEOPMII@darkblue@ 10058708     color.obj
 0002:0000f714       ??_C@_08GHDCKAPC@darkcyan@ 10058714     color.obj
 0002:0000f720       ??_C@_0O@GGJPBKNE@darkgoldenrod@ 10058720     color.obj
 0002:0000f730       ??_C@_08EADAAFKF@darkgray@ 10058730     color.obj
 0002:0000f73c       ??_C@_09MHNMOMAI@darkgreen@ 1005873c     color.obj
 0002:0000f748       ??_C@_08EHDJKNHJ@darkgrey@ 10058748     color.obj
 0002:0000f754       ??_C@_09FAPDIPMK@darkkhaki@ 10058754     color.obj
 0002:0000f760       ??_C@_0M@MEEFECHN@darkmagenta@ 10058760     color.obj
 0002:0000f76c       ??_C@_0P@BGCLDNDK@darkolivegreen@ 1005876c     color.obj
 0002:0000f77c       ??_C@_0L@ICJJPBF@darkorange@ 1005877c     color.obj
 0002:0000f788       ??_C@_0L@EEAHIPOC@darkorchid@ 10058788     color.obj
 0002:0000f794       ??_C@_07MFAOOMGP@darkred@  10058794     color.obj
 0002:0000f79c       ??_C@_0L@CKNHPKLG@darksalmon@ 1005879c     color.obj
 0002:0000f7a8       ??_C@_0N@FBOCOPGH@darkseagreen@ 100587a8     color.obj
 0002:0000f7b8       ??_C@_0O@PABAFENG@darkslateblue@ 100587b8     color.obj
 0002:0000f7c8       ??_C@_0O@HFGOKNPL@darkslategray@ 100587c8     color.obj
 0002:0000f7d8       ??_C@_0O@HCGHAFCH@darkslategrey@ 100587d8     color.obj
 0002:0000f7e8       ??_C@_0O@HKLGOIEA@darkturquoise@ 100587e8     color.obj
 0002:0000f7f8       ??_C@_0L@NGBKDFME@darkviolet@ 100587f8     color.obj
 0002:0000f804       ??_C@_08CJGCPHKF@deeppink@ 10058804     color.obj
 0002:0000f810       ??_C@_0M@BGGBNDNG@deepskyblue@ 10058810     color.obj
 0002:0000f81c       ??_C@_07DJPEDLIH@dimgray@  1005881c     color.obj
 0002:0000f824       ??_C@_07DOPNJDFL@dimgrey@  10058824     color.obj
 0002:0000f82c       ??_C@_0L@MIOOBLBJ@dodgerblue@ 1005882c     color.obj
 0002:0000f838       ??_C@_09ELCPEDIM@firebrick@ 10058838     color.obj
 0002:0000f844       ??_C@_0M@FFMCAIP@floralwhite@ 10058844     color.obj
 0002:0000f850       ??_C@_0M@HBKAKFBN@forestgreen@ 10058850     color.obj
 0002:0000f85c       ??_C@_07FHEBJCGF@fuchsia@  1005885c     color.obj
 0002:0000f864       ??_C@_09MIGKOGAO@gainsboro@ 10058864     color.obj
 0002:0000f870       ??_C@_0L@CELMEDAA@ghostwhite@ 10058870     color.obj
 0002:0000f87c       ??_C@_04DBNGNIAN@gold@     1005887c     color.obj
 0002:0000f884       ??_C@_09KJDOAGJL@goldenrod@ 10058884     color.obj
 0002:0000f890       ??_C@_05GBEEJKMC@green@    10058890     color.obj
 0002:0000f898       ??_C@_0M@LFPLFELJ@greenyellow@ 10058898     color.obj
 0002:0000f8a4       ??_C@_04GDBIAANM@grey@     100588a4     color.obj
 0002:0000f8ac       ??_C@_08BKNCNHLL@honeydew@ 100588ac     color.obj
 0002:0000f8b8       ??_C@_07PCCOEED@hotpink@   100588b8     color.obj
 0002:0000f8c0       ??_C@_09IELIJPNO@indianred@ 100588c0     color.obj
 0002:0000f8cc       ??_C@_06MLCCIEFE@indigo@   100588cc     color.obj
 0002:0000f8d4       ??_C@_05NNJJIMHF@ivory@    100588d4     color.obj
 0002:0000f8dc       ??_C@_05PGGLPJAA@khaki@    100588dc     color.obj
 0002:0000f8e4       ??_C@_08KJDCPJPL@lavender@ 100588e4     color.obj
 0002:0000f8f0       ??_C@_0O@CCCMFNCK@lavenderblush@ 100588f0     color.obj
 0002:0000f900       ??_C@_09MONDINDP@lawngreen@ 10058900     color.obj
 0002:0000f90c       ??_C@_0N@ICDCAEHK@lemonchiffon@ 1005890c     color.obj
 0002:0000f91c       ??_C@_09NBIPJLA@lightblue@ 1005891c     color.obj
 0002:0000f928       ??_C@_0L@BEAGLGMO@lightcoral@ 10058928     color.obj
 0002:0000f934       ??_C@_09KPGEKFMK@lightcyan@ 10058934     color.obj
 0002:0000f940       ??_C@_0BF@PJADCIND@lightgoldenrodyellow@ 10058940     color.obj
 0002:0000f958       ??_C@_09IIGGAAJN@lightgray@ 10058958     color.obj
 0002:0000f964       ??_C@_0L@OPBGACJD@lightgreen@ 10058964     color.obj
 0002:0000f970       ??_C@_09IPGPKIEB@lightgrey@ 10058970     color.obj
 0002:0000f97c       ??_C@_09KOBGKMHP@lightpink@ 1005897c     color.obj
 0002:0000f988       ??_C@_0M@ENCCHKJE@lightsalmon@ 10058988     color.obj
 0002:0000f994       ??_C@_0O@BLOIENJC@lightseagreen@ 10058994     color.obj
 0002:0000f9a4       ??_C@_0N@JIFIFCAN@lightskyblue@ 100589a4     color.obj
 0002:0000f9b4       ??_C@_0P@LIPDKBMK@lightslategray@ 100589b4     color.obj
 0002:0000f9c4       ??_C@_0P@LPPKAJBG@lightslategrey@ 100589c4     color.obj
 0002:0000f9d4       ??_C@_0P@EIHJHAMG@lightsteelblue@ 100589d4     color.obj
 0002:0000f9e4       ??_C@_0M@FBHPKJLB@lightyellow@ 100589e4     color.obj
 0002:0000f9f0       ??_C@_04HLLEONLG@lime@     100589f0     color.obj
 0002:0000f9f8       ??_C@_09JKHHFGDO@limegreen@ 100589f8     color.obj
 0002:0000fa04       ??_C@_05MLLCELJD@linen@    10058a04     color.obj
 0002:0000fa0c       ??_C@_07EMDGAPCI@magenta@  10058a0c     color.obj
 0002:0000fa14       ??_C@_06BDPIEPJF@maroon@   10058a14     color.obj
 0002:0000fa1c       ??_C@_0BB@HHCOFKIC@mediumaquamarine@ 10058a1c     color.obj
 0002:0000fa30       ??_C@_0L@CEFFILOH@mediumblue@ 10058a30     color.obj
 0002:0000fa3c       ??_C@_0N@GIADPNAO@mediumorchid@ 10058a3c     color.obj
 0002:0000fa4c       ??_C@_0N@DDGNBDHJ@mediumpurple@ 10058a4c     color.obj
 0002:0000fa5c       ??_C@_0P@BNCCGPJD@mediumseagreen@ 10058a5c     color.obj
 0002:0000fa6c       ??_C@_0BA@EKIMKCFD@mediumslateblue@ 10058a6c     color.obj
 0002:0000fa7c       ??_C@_0BC@POGDBPNO@mediumspringgreen@ 10058a7c     color.obj
 0002:0000fa90       ??_C@_0BA@MACKBOMF@mediumturquoise@ 10058a90     color.obj
 0002:0000faa0       ??_C@_0BA@PNNCDMHM@mediumvioletred@ 10058aa0     color.obj
 0002:0000fab0       ??_C@_0N@PJDKAOHK@midnightblue@ 10058ab0     color.obj
 0002:0000fac0       ??_C@_09INCGBEJA@mintcream@ 10058ac0     color.obj
 0002:0000facc       ??_C@_09HABDAMOF@mistyrose@ 10058acc     color.obj
 0002:0000fad8       ??_C@_08OIIPPDDA@moccasin@ 10058ad8     color.obj
 0002:0000fae4       ??_C@_0M@OKLAMJCL@navajowhite@ 10058ae4     color.obj
 0002:0000faf0       ??_C@_04DCMEIHPF@navy@     10058af0     color.obj
 0002:0000faf8       ??_C@_07MBCGBJON@oldlace@  10058af8     color.obj
 0002:0000fb00       ??_C@_05OFIFEKBG@olive@    10058b00     color.obj
 0002:0000fb08       ??_C@_09CNLBGLAE@olivedrab@ 10058b08     color.obj
 0002:0000fb14       ??_C@_06HDDOCMMN@orange@   10058b14     color.obj
 0002:0000fb1c       ??_C@_09OPJMLMBK@orangered@ 10058b1c     color.obj
 0002:0000fb28       ??_C@_06DPBADMDK@orchid@   10058b28     color.obj
 0002:0000fb30       ??_C@_0O@KONOLMEH@palegoldenrod@ 10058b30     color.obj
 0002:0000fb40       ??_C@_09NAJHJFNO@palegreen@ 10058b40     color.obj
 0002:0000fb4c       ??_C@_0O@LCPHEOND@paleturquoise@ 10058b4c     color.obj
 0002:0000fb5c       ??_C@_0O@IPAPGMGK@palevioletred@ 10058b5c     color.obj
 0002:0000fb6c       ??_C@_0L@NPJMDDDD@papayawhip@ 10058b6c     color.obj
 0002:0000fb78       ??_C@_09GELOGGEC@peachpuff@ 10058b78     color.obj
 0002:0000fb84       ??_C@_04MJMKNOJB@peru@     10058b84     color.obj
 0002:0000fb8c       ??_C@_04ECGBAEOC@pink@     10058b8c     color.obj
 0002:0000fb94       ??_C@_04DDJGBPMH@plum@     10058b94     color.obj
 0002:0000fb9c       ??_C@_0L@MNADNFAH@powderblue@ 10058b9c     color.obj
 0002:0000fba8       ??_C@_06GEHONCEN@purple@   10058ba8     color.obj
 0002:0000fbb0       ??_C@_0O@JGOBAAIL@rebeccapurple@ 10058bb0     color.obj
 0002:0000fbc0       ??_C@_03FAAAOPJM@red@      10058bc0     color.obj
 0002:0000fbc4       ??_C@_09DJJHENIF@rosybrown@ 10058bc4     color.obj
 0002:0000fbd0       ??_C@_09FEEJNHFN@royalblue@ 10058bd0     color.obj
 0002:0000fbdc       ??_C@_0M@MOEGEDCP@saddlebrown@ 10058bdc     color.obj
 0002:0000fbe8       ??_C@_06FBMAEJGO@salmon@   10058be8     color.obj
 0002:0000fbf0       ??_C@_0L@HLMGLGHH@sandybrown@ 10058bf0     color.obj
 0002:0000fbfc       ??_C@_08EKGLDJFB@seagreen@ 10058bfc     color.obj
 0002:0000fc08       ??_C@_08MFJLKPPC@seashell@ 10058c08     color.obj
 0002:0000fc14       ??_C@_06CEGMHAGE@sienna@   10058c14     color.obj
 0002:0000fc1c       ??_C@_06NBGLMDBG@silver@   10058c1c     color.obj
 0002:0000fc24       ??_C@_07MFCMKLDM@skyblue@  10058c24     color.obj
 0002:0000fc2c       ??_C@_09DPLBEIJJ@slateblue@ 10058c2c     color.obj
 0002:0000fc38       ??_C@_09LKMPLBLE@slategray@ 10058c38     color.obj
 0002:0000fc44       ??_C@_09LNMGBJGI@slategrey@ 10058c44     color.obj
 0002:0000fc50       ??_C@_04HPKDHBOB@snow@     10058c50     color.obj
 0002:0000fc58       ??_C@_0M@IPKJFOEB@springgreen@ 10058c58     color.obj
 0002:0000fc64       ??_C@_09EKEFGALI@steelblue@ 10058c64     color.obj
 0002:0000fc70       ??_C@_03IIINPABG@tan@      10058c70     color.obj
 0002:0000fc74       ??_C@_04LJCKMMGA@teal@     10058c74     color.obj
 0002:0000fc7c       ??_C@_07CGANODJO@thistle@  10058c7c     color.obj
 0002:0000fc84       ??_C@_06NALDPNEI@tomato@   10058c84     color.obj
 0002:0000fc8c       ??_C@_09LFBHPEAP@turquoise@ 10058c8c     color.obj
 0002:0000fc98       ??_C@_06KNANIGBM@violet@   10058c98     color.obj
 0002:0000fca0       ??_C@_05PPOGEFHN@wheat@    10058ca0     color.obj
 0002:0000fca8       ??_C@_05PMAELIEO@white@    10058ca8     color.obj
 0002:0000fcb0       ??_C@_0L@FDFMBGNF@whitesmoke@ 10058cb0     color.obj
 0002:0000fcbc       ??_C@_06ENJNJKEL@yellow@   10058cbc     color.obj
 0002:0000fcc4       ??_C@_0M@GCLLLGON@yellowgreen@ 10058cc4     color.obj
 0002:0000fcd0       ??_C@_0O@CAFKCKKM@?$CD?$CF?42x?$CF?42x?$CF?42x@ 10058cd0     color.obj
 0002:0000fce0       ??_C@_0BH@IMKFBGII@rgba?$CI?$CFd?0?5?$CFd?0?5?$CFd?0?5?$CF?42f?$CJ@ 10058ce0     color.obj
 0002:0000fcf8       ??_C@_04KDAMFBD@rgb?$CI@   10058cf8     color.obj
 0002:0000fd00       ??_C@_05KGKCGJPO@rgba?$CI@ 10058d00     color.obj
 0002:0000fd08       ??_C@_05HBFAAOHC@hsla?$CI@ 10058d08     color.obj
 0002:0000fd10       ??_C@_04PFIFKHPC@hsl?$CI@  10058d10     color.obj
 0002:0000fd18       ??_C@_04CLILDBFP@rgba@     10058d18     color.obj
 0002:0000fd20       ??_C@_03FNOJMHE@rgb@       10058d20     color.obj
 0002:0000fd24       ??_C@_04NEDOFDLO@hsla@     10058d24     color.obj
 0002:0000fd2c       ??_C@_03LPNGANKN@hsl@      10058d2c     color.obj
 0002:0000fd30       ??_C@_05NBEAGECF@Image@    10058d30     Image.obj
 0002:0000fd38       ??_C@_08IPNIAGNA@complete@ 10058d38     Image.obj
 0002:0000fd44       ??_C@_0N@KIMBCBLK@naturalWidth@ 10058d44     Image.obj
 0002:0000fd54       ??_C@_0O@DMCHDHNN@naturalHeight@ 10058d54     Image.obj
 0002:0000fd64       ??_C@_08ELMFDEKI@dataMode@ 10058d64     Image.obj
 0002:0000fd70       ??_C@_0L@ICMMJJAL@MODE_IMAGE@ 10058d70     Image.obj
 0002:0000fd7c       ??_C@_09IDBFNFDI@MODE_MIME@ 10058d7c     Image.obj
 0002:0000fd88       ??_C@_09BHHNHDEH@GetSource@ 10058d88     Image.obj
 0002:0000fd94       ??_C@_09DJDIFCNF@SetSource@ 10058d94     Image.obj
 0002:0000fda0       ??_C@_06FKJAAAAK@onload@   10058da0     Image.obj
 0002:0000fda8       ??_C@_07MAAHHAB@onerror@   10058da8     Image.obj
 0002:0000fdb0       ??_C@_0CK@KDFAILML@node?9canvas?5was?5built?5without?5G@ 10058db0     Image.obj
 0002:0000fddc       ??_C@_0CK@HOICAGHL@node?9canvas?5was?5built?5without?5S@ 10058ddc     Image.obj
 0002:0000fe08       ??_C@_0BH@DEJIGAIG@Unsupported?5image?5type@ 10058e08     Image.obj
 0002:0000fe20       ??_C@_02JDPG@rb@           10058e20     Image.obj
 0002:0000fe24       ??_C@_05FFKPLNPJ@fopen@    10058e24     Image.obj
 0002:0000fe2c       ??_C@_06GLDDLHNF@malloc@   10058e2c     Image.obj
 0002:0000fe34       ??_C@_0BK@DBBCPGCH@Unsupported?5JPEG?5encoding@ 10058e34     Image.obj
 0002:0000fe98       ??_7Image@@6B@             10058e98     Image.obj
 0002:0000fea4       ??_C@_09NIGIGFDC@ImageData@ 10058ea4     ImageData.obj
 0002:0000feb0       ??_C@_0BK@BFELGOEH@The?5source?5width?5is?5zero?4@ 10058eb0     ImageData.obj
 0002:0000fecc       ??_C@_0BL@EMOEEHOI@The?5source?5height?5is?5zero?4@ 10058ecc     ImageData.obj
 0002:0000fee8       ??_C@_0CH@IEOMAMPI@The?5input?5data?5has?5a?5zero?5byte?5@ 10058ee8     ImageData.obj
 0002:0000ff10       ??_C@_0GB@KDECOCKL@Expected?5?$CIUint8ClampedArray?0?5wi@ 10058f10     ImageData.obj
 0002:0000ff74       ??_C@_04PJOLNDGD@data@     10058f74     ImageData.obj
 0002:0000ff7c       ??_7ImageData@@6B@         10058f7c     ImageData.obj
 0002:0000ff88       ??_C@_0N@OGDOEBIM@cairoVersion@ 10058f88     init.obj
 0002:0000ff98       ??_C@_04PEOOHEKN@?$CFd?$CFc@ 10058f98     init.obj
 0002:0000ffa0       ??_C@_0M@PLCFBBDI@jpegVersion@ 10058fa0     init.obj
 0002:0000ffac       ??_C@_08FOJKHHJA@?$CFd?4?$CFd?4?$CFd@ 10058fac     init.obj
 0002:0000ffb8       ??_C@_0BA@MCPGPJBI@freetypeVersion@ 10058fb8     init.obj
 0002:0000ffc8       ??_C@_0EE@OMMJECDG@c?3?2users?2josiah?2desktop?2server?5@ 10058fc8     init.obj
 0002:0001000c       ??_C@_06DODEBHEI@canvas@   1005900c     init.obj
 0002:00010014       ??_C@_03BNMJFLDC@MAC@      10059014     register_font.obj
 0002:00010018       ??_C@_08NLKHJAFK@UTF?916BE@ 10059018     register_font.obj
 0002:00010024       ??_C@_05EGJIMALK@UTF?98@   10059024     register_font.obj
 0002:0001002c       ??_C@_08HCOMDCCD@iojs?4exe@ 1005902c     win_delay_load_hook.obj
 0002:00010038       ??_C@_08JDDNMFDB@node?4exe@ 10059038     win_delay_load_hook.obj
 0002:00010044       ___pfnDliNotifyHook2       10059044     win_delay_load_hook.obj
 0002:00010048       __real@0000000000000000    10059048     CanvasRenderingContext2d.obj
 0002:00010050       __real@3a800000            10059050     CanvasRenderingContext2d.obj
 0002:00010054       __real@3dcccccd            10059054     color.obj
 0002:00010058       __real@3f000000            10059058     CanvasRenderingContext2d.obj
 0002:0001005c       __real@3f13cd36            1005905c     CanvasRenderingContext2d.obj
 0002:00010060       __real@3f50000000000000    10059060     CanvasRenderingContext2d.obj
 0002:00010068       __real@3f800000            10059068     color.obj
 0002:00010070       __real@3fe0000000000000    10059070     CanvasRenderingContext2d.obj
 0002:00010078       __real@3fe5555555555555    10059078     CanvasRenderingContext2d.obj
 0002:00010080       __real@3ff0000000000000    10059080     CanvasRenderingContext2d.obj
 0002:00010088       __real@3ff6666666666666    10059088     CanvasRenderingContext2d.obj
 0002:00010090       __real@3ff8000000000000    10059090     closure.obj
 0002:00010098       __real@40000000            10059098     color.obj
 0002:000100a0       __real@4000000000000000    100590a0     Image.obj
 0002:000100a8       __real@400921fb54442d18    100590a8     CanvasRenderingContext2d.obj
 0002:000100b0       __real@401921fb54442d18    100590b0     CanvasRenderingContext2d.obj
 0002:000100b8       __real@40400000            100590b8     color.obj
 0002:000100c0       __real@4043af5f6fd21ff3    100590c0     Canvas.obj
 0002:000100c8       __real@4059000000000000    100590c8     Canvas.obj
 0002:000100d0       __real@406fe00000000000    100590d0     color.obj
 0002:000100d8       __real@4076800000000000    100590d8     color.obj
 0002:000100e0       __real@40800000            100590e0     color.obj
 0002:000100e8       __real@4090000000000000    100590e8     CanvasRenderingContext2d.obj
 0002:000100f0       __real@40b0000000000000    100590f0     Canvas.obj
 0002:000100f8       __real@40c00000            100590f8     color.obj
 0002:00010100       __real@40c4000000000000    10059100     CanvasRenderingContext2d.obj
 0002:00010108       __real@41200000            10059108     color.obj
 0002:0001010c       __real@42c80000            1005910c     color.obj
 0002:00010110       __real@437f0000            10059110     color.obj
 0002:00010114       __real@43b40000            10059114     color.obj
 0002:00010118       __real@477fff00            10059118     CanvasRenderingContext2d.obj
 0002:00010120       __real@7ff0000000000000    10059120     CanvasRenderingContext2d.obj
 0002:00010128       __real@bff0000000000000    10059128     CanvasRenderingContext2d.obj
 0002:00010130       __real@fff0000000000000    10059130     CanvasRenderingContext2d.obj
 0002:00010140       __xmm@3ff00000000000000000000000000000 10059140     CanvasRenderingContext2d.obj
 0002:00010150       __xmm@41f00000000000000000000000000000 10059150     color.obj
 0002:00010160       __xmm@80000000000000008000000000000000 10059160     CanvasRenderingContext2d.obj
 0002:00010170       __xmm@80000000800000008000000080000000 10059170     CanvasRenderingContext2d.obj
 0002:00010210       __OP_FMODjmptab            10059210     libucrt:87fmod_impl.obj
 0002:000104b0       ___acrt_acos_asin_tbl_addr 100594b0     libucrt:acos_asin_tbl_addr.obj
 0002:000113b0       ___acrt_acos_asin_t_table  1005a3b0     libucrt:acos_asin_t_table.obj
 0002:00011bc0       ___acrt_tan_ctable         1005abc0     libucrt:tan_tables.obj
 0002:000133e4       ??_R4exception@std@@6B@    1005c3e4     libcpmt:xthrow.obj
 0002:000133f8       ??_R3exception@std@@8      1005c3f8     libcpmt:xthrow.obj
 0002:00013408       ??_R2exception@std@@8      1005c408     libcpmt:xthrow.obj
 0002:00013410       ??_R1A@?0A@EA@exception@std@@8 1005c410     libcpmt:xthrow.obj
 0002:0001342c       ??_R4bad_alloc@std@@6B@    1005c42c     libcpmt:xthrow.obj
 0002:00013440       ??_R3bad_alloc@std@@8      1005c440     libcpmt:xthrow.obj
 0002:00013450       ??_R2bad_alloc@std@@8      1005c450     libcpmt:xthrow.obj
 0002:0001345c       ??_R1A@?0A@EA@bad_alloc@std@@8 1005c45c     libcpmt:xthrow.obj
 0002:00013478       ??_R4logic_error@std@@6B@  1005c478     libcpmt:xthrow.obj
 0002:0001348c       ??_R3logic_error@std@@8    1005c48c     libcpmt:xthrow.obj
 0002:0001349c       ??_R2logic_error@std@@8    1005c49c     libcpmt:xthrow.obj
 0002:000134a8       ??_R1A@?0A@EA@logic_error@std@@8 1005c4a8     libcpmt:xthrow.obj
 0002:000134c4       ??_R4length_error@std@@6B@ 1005c4c4     libcpmt:xthrow.obj
 0002:000134d8       ??_R3length_error@std@@8   1005c4d8     libcpmt:xthrow.obj
 0002:000134e8       ??_R2length_error@std@@8   1005c4e8     libcpmt:xthrow.obj
 0002:000134f8       ??_R1A@?0A@EA@length_error@std@@8 1005c4f8     libcpmt:xthrow.obj
 0002:00013514       ??_R4runtime_error@std@@6B@ 1005c514     libcpmt:xthrow.obj
 0002:00013528       ??_R3runtime_error@std@@8  1005c528     libcpmt:xthrow.obj
 0002:00013538       ??_R2runtime_error@std@@8  1005c538     libcpmt:xthrow.obj
 0002:00013544       ??_R1A@?0A@EA@runtime_error@std@@8 1005c544     libcpmt:xthrow.obj
 0002:00013560       ??_R4bad_function_call@std@@6B@ 1005c560     libcpmt:xthrow.obj
 0002:00013574       ??_R3bad_function_call@std@@8 1005c574     libcpmt:xthrow.obj
 0002:00013584       ??_R2bad_function_call@std@@8 1005c584     libcpmt:xthrow.obj
 0002:00013590       ??_R1A@?0A@EA@bad_function_call@std@@8 1005c590     libcpmt:xthrow.obj
 0002:000135ac       ??_R4_System_error@std@@6B@ 1005c5ac     libcpmt:xonce.obj
 0002:000135c0       ??_R3_System_error@std@@8  1005c5c0     libcpmt:xonce.obj
 0002:000135d0       ??_R2_System_error@std@@8  1005c5d0     libcpmt:xonce.obj
 0002:000135e0       ??_R1A@?0A@EA@_System_error@std@@8 1005c5e0     libcpmt:xonce.obj
 0002:000135fc       ??_R4_Facet_base@std@@6B@  1005c5fc     libcpmt:locale0.obj
 0002:00013610       ??_R3_Facet_base@std@@8    1005c610     libcpmt:locale0.obj
 0002:00013620       ??_R2_Facet_base@std@@8    1005c620     libcpmt:locale0.obj
 0002:00013628       ??_R1A@?0A@EA@_Facet_base@std@@8 1005c628     libcpmt:locale0.obj
 0002:00013644       ??_R4_Locimp@locale@std@@6B@ 1005c644     libcpmt:locale0.obj
 0002:00013658       ??_R3_Locimp@locale@std@@8 1005c658     libcpmt:locale0.obj
 0002:00013668       ??_R2_Locimp@locale@std@@8 1005c668     libcpmt:locale0.obj
 0002:0001367c       ??_R1A@?0A@EA@_Locimp@locale@std@@8 1005c67c     libcpmt:locale0.obj
 0002:00013698       ??_R1A@?0A@EA@facet@locale@std@@8 1005c698     libcpmt:locale0.obj
 0002:000136b4       ??_R3facet@locale@std@@8   1005c6b4     libcpmt:locale0.obj
 0002:000136c4       ??_R2facet@locale@std@@8   1005c6c4     libcpmt:locale0.obj
 0002:000136d4       ??_R13?0A@EA@_Crt_new_delete@std@@8 1005c6d4     libcpmt:locale0.obj
 0002:000136f0       ??_R3_Crt_new_delete@std@@8 1005c6f0     libcpmt:locale0.obj
 0002:00013700       ??_R2_Crt_new_delete@std@@8 1005c700     libcpmt:locale0.obj
 0002:00013708       ??_R1A@?0A@EA@_Crt_new_delete@std@@8 1005c708     libcpmt:locale0.obj
 0002:00013724       ??_R3ctype_base@std@@8     1005c724     libcpmt:locale.obj
 0002:00013734       ??_R2ctype_base@std@@8     1005c734     libcpmt:locale.obj
 0002:00013748       ??_R1A@?0A@EA@ctype_base@std@@8 1005c748     libcpmt:locale.obj
 0002:00013764       ??_R4?$ctype@D@std@@6B@    1005c764     libcpmt:locale.obj
 0002:00013778       ??_R3?$ctype@D@std@@8      1005c778     libcpmt:locale.obj
 0002:00013788       ??_R2?$ctype@D@std@@8      1005c788     libcpmt:locale.obj
 0002:000137a0       ??_R1A@?0A@EA@?$ctype@D@std@@8 1005c7a0     libcpmt:locale.obj
 0002:000137bc       ??_R4type_info@@6B@        1005c7bc     LIBCMT:std_type_info_static.obj
 0002:000137d0       ??_R3type_info@@8          1005c7d0     LIBCMT:std_type_info_static.obj
 0002:000137e0       ??_R2type_info@@8          1005c7e0     LIBCMT:std_type_info_static.obj
 0002:000137e8       ??_R1A@?0A@EA@type_info@@8 1005c7e8     LIBCMT:std_type_info_static.obj
 0002:00013804       ??_R4bad_array_new_length@std@@6B@ 1005c804     LIBCMT:throw_bad_alloc.obj
 0002:00013818       ??_R3bad_array_new_length@std@@8 1005c818     LIBCMT:throw_bad_alloc.obj
 0002:00013828       ??_R2bad_array_new_length@std@@8 1005c828     LIBCMT:throw_bad_alloc.obj
 0002:00013838       ??_R1A@?0A@EA@bad_array_new_length@std@@8 1005c838     LIBCMT:throw_bad_alloc.obj
 0002:00013854       ??_R4bad_exception@std@@6B@ 1005c854     libvcruntime:frame.obj
 0002:00013868       ??_R3bad_exception@std@@8  1005c868     libvcruntime:frame.obj
 0002:00013878       ??_R2bad_exception@std@@8  1005c878     libvcruntime:frame.obj
 0002:00013884       ??_R1A@?0A@EA@bad_exception@std@@8 1005c884     libvcruntime:frame.obj
 0002:000138a0       ___safe_se_handler_table   1005c8a0     <linker-defined>
 0002:00013e78       ___rtc_iaa                 1005ce78     LIBCMT:initsect.obj
 0002:00013e7c       ___rtc_izz                 1005ce7c     LIBCMT:initsect.obj
 0002:00013e80       ___rtc_taa                 1005ce80     LIBCMT:initsect.obj
 0002:00013e84       ___rtc_tzz                 1005ce84     LIBCMT:initsect.obj
 0002:00015c64       __TI2?AVbad_alloc@std@@    1005ec64     libcpmt:xthrow.obj
 0002:00015c74       __CTA2?AVbad_alloc@std@@   1005ec74     libcpmt:xthrow.obj
 0002:00015c80       __CT??_R0?AVbad_alloc@std@@@8??0bad_alloc@std@@QAE@ABV01@@Z12 1005ec80     libcpmt:xthrow.obj
 0002:00015c9c       __CT??_R0?AVexception@std@@@8??0exception@std@@QAE@ABV01@@Z12 1005ec9c     libcpmt:xthrow.obj
 0002:00015cb8       __CT??_R0?AVlogic_error@std@@@8??0logic_error@std@@QAE@ABV01@@Z12 1005ecb8     libcpmt:xthrow.obj
 0002:00015cd4       __TI3?AVlength_error@std@@ 1005ecd4     libcpmt:xthrow.obj
 0002:00015ce4       __CTA3?AVlength_error@std@@ 1005ece4     libcpmt:xthrow.obj
 0002:00015cf4       __CT??_R0?AVlength_error@std@@@8??0length_error@std@@QAE@ABV01@@Z12 1005ecf4     libcpmt:xthrow.obj
 0002:00015d10       __TI2?AVbad_function_call@std@@ 1005ed10     libcpmt:xthrow.obj
 0002:00015d20       __CTA2?AVbad_function_call@std@@ 1005ed20     libcpmt:xthrow.obj
 0002:00015d2c       __CT??_R0?AVbad_function_call@std@@@8??0bad_function_call@std@@QAE@ABV01@@Z12 1005ed2c     libcpmt:xthrow.obj
 0002:00015e5c       __TI3?AVbad_array_new_length@std@@ 1005ee5c     LIBCMT:throw_bad_alloc.obj
 0002:00015e6c       __CTA3?AVbad_array_new_length@std@@ 1005ee6c     LIBCMT:throw_bad_alloc.obj
 0002:00015e7c       __CT??_R0?AVbad_array_new_length@std@@@8??0bad_array_new_length@std@@QAE@ABV01@@Z12 1005ee7c     LIBCMT:throw_bad_alloc.obj
 0002:00015ff4       __TI2?AVbad_exception@std@@ 1005eff4     libvcruntime:frame.obj
 0002:00016004       __CTA2?AVbad_exception@std@@ 1005f004     libvcruntime:frame.obj
 0002:00016010       __CT??_R0?AVbad_exception@std@@@8??0bad_exception@std@@QAE@ABV01@@Z12 1005f010     libvcruntime:frame.obj
 0002:00016674       __CT??_R0?AW4_cairo_status@@@84 1005f674     Canvas.obj
 0002:00016690       __CT??_R0PAX@84            1005f690     Canvas.obj
 0002:000166ac       __TI2PAD                   1005f6ac     Canvas.obj
 0002:000166bc       __TI1?AW4_cairo_status@@   1005f6bc     Canvas.obj
 0002:000166cc       __CT??_R0PAD@84            1005f6cc     Canvas.obj
 0002:000166e8       __CTA2PAD                  1005f6e8     Canvas.obj
 0002:000166f4       __CTA1?AW4_cairo_status@@  1005f6f4     Canvas.obj
 0002:000166fc       __DELAY_IMPORT_DESCRIPTOR_node_exe 1005f6fc     node:node.exe
 0002:0001671c       __NULL_DELAY_IMPORT_DESCRIPTOR 1005f71c     node:node.exe
 0002:000168dc       \177node_NULL_THUNK_DATA_DLN 1005f8dc     node:node.exe
 0002:0001844c       \177node_NULL_THUNK_DATA_DLB 1006144c     node:node.exe
 0002:00018830       __IMPORT_DESCRIPTOR_KERNEL32 10061830     kernel32:KERNEL32.dll
 0002:00018844       __IMPORT_DESCRIPTOR_GDI32  10061844     gdi32:GDI32.dll
 0002:00018858       __IMPORT_DESCRIPTOR_libcairo-2 10061858     cairo:libcairo-2.dll
 0002:0001886c       __IMPORT_DESCRIPTOR_libpng14-14 1006186c     libpng:libpng14-14.dll
 0002:00018880       __IMPORT_DESCRIPTOR_libpangocairo-1.0-0 10061880     pangocairo-1.0:libpangocairo-1.0-0.dll
 0002:00018894       __IMPORT_DESCRIPTOR_libpango-1.0-0 10061894     pango-1.0:libpango-1.0-0.dll
 0002:000188a8       __IMPORT_DESCRIPTOR_freetype6 100618a8     freetype:freetype6.dll
 0002:000188bc       __IMPORT_DESCRIPTOR_libglib-2.0-0 100618bc     glib-2.0:libglib-2.0-0.dll
 0002:000188d0       __IMPORT_DESCRIPTOR_libgobject-2.0-0 100618d0     gobject-2.0:libgobject-2.0-0.dll
 0002:000188e4       __IMPORT_DESCRIPTOR_jpeg62 100618e4     jpeg:jpeg62.dll
 0002:000188f8       __NULL_IMPORT_DESCRIPTOR   100618f8     kernel32:KERNEL32.dll
 0003:00000004       ?_Sync@ios_base@std@@0_NA  10064004     libcpmt:ios.obj
 0003:00000008       ?_PJP_CPP_Copyright@@3PADA 10064008     libcpmt:iosptrs.obj
 0003:00000060       ___scrt_native_dllmain_reason 10064060     LIBCMT:utility.obj
 0003:00000064       ___security_cookie_complement 10064064     LIBCMT:gs_cookie.obj
 0003:00000068       ___security_cookie         10064068     LIBCMT:gs_cookie.obj
 0003:0000006c       __fltused                  1006406c     LIBCMT:fltused.obj
 0003:00000070       ___isa_enabled             10064070     LIBCMT:cpu_disp.obj
 0003:00000090       __NLG_Destination          10064090     libvcruntime:exsup.obj
 0003:000000a0       ___abort_behavior          100640a0     libucrt:abort.obj
 0003:000000a8       __iob                      100640a8     libucrt:_file.obj
 0003:00000158       __pctype                   10064158     libucrt:ctype.obj
 0003:0000015c       __pwctype                  1006415c     libucrt:ctype.obj
 0003:00000160       ___acrt_lconv_c            10064160     libucrt:localeconv.obj
 0003:000001b0       ___acrt_lconv              100641b0     libucrt:localeconv.obj
 0003:000001b4       ___acrt_lconv_static_decimal 100641b4     libucrt:localeconv.obj
 0003:000001b8       ___acrt_lconv_static_W_decimal 100641b8     libucrt:localeconv.obj
 0003:000001c8       ___mb_cur_max              100641c8     libucrt:nlsdata.obj
 0003:000001d0       ___acrt_initial_locale_data 100641d0     libucrt:nlsdata.obj
 0003:00000288       ___acrt_initial_locale_pointers 10064288     libucrt:nlsdata.obj
 0003:00000290       ___acrt_wide_c_locale_string 10064290     libucrt:nlsdata.obj
 0003:00000298       ___badioinfo               10064298     libucrt:ioinit.obj
 0003:000002d0       __lookuptrailbytes         100642d0     libucrt:read.obj
 0003:000003d0       ___globallocalestatus      100643d0     libucrt:glstatus.obj
 0003:00000480       ___acrt_initial_multibyte_data 10064480     libucrt:mbctype.obj
 0003:000009e0       ??_R0?AVbad_alloc@std@@@8  100649e0     libcpmt:xthrow.obj
 0003:000009fc       ??_R0?AVexception@std@@@8  100649fc     libcpmt:xthrow.obj
 0003:00000a18       ??_R0?AVlogic_error@std@@@8 10064a18     libcpmt:xthrow.obj
 0003:00000a38       ??_R0?AVlength_error@std@@@8 10064a38     libcpmt:xthrow.obj
 0003:00000a58       ??_R0?AVruntime_error@std@@@8 10064a58     libcpmt:xthrow.obj
 0003:00000a78       ??_R0?AVbad_function_call@std@@@8 10064a78     libcpmt:xthrow.obj
 0003:00000a9c       ??_R0?AV_System_error@std@@@8 10064a9c     libcpmt:xonce.obj
 0003:00000abc       ??_R0?AV_Facet_base@std@@@8 10064abc     libcpmt:locale0.obj
 0003:00000adc       ??_R0?AV_Locimp@locale@std@@@8 10064adc     libcpmt:locale0.obj
 0003:00000b00       ??_R0?AVfacet@locale@std@@@8 10064b00     libcpmt:locale0.obj
 0003:00000b20       ??_R0?AU_Crt_new_delete@std@@@8 10064b20     libcpmt:locale0.obj
 0003:00000b44       ??_R0?AUctype_base@std@@@8 10064b44     libcpmt:locale.obj
 0003:00000b64       ??_R0?AV?$ctype@D@std@@@8  10064b64     libcpmt:locale.obj
 0003:00000b80       ??_R0?AVtype_info@@@8      10064b80     LIBCMT:std_type_info_static.obj
 0003:00000b98       ??_R0?AVbad_array_new_length@std@@@8 10064b98     LIBCMT:throw_bad_alloc.obj
 0003:00000bc0       ??_R0?AVbad_exception@std@@@8 10064bc0     libvcruntime:frame.obj
 0003:00000be0       ??_R0?AVbad_alloc@stdext@@@8 10064be0     PdfBackend.obj
 0003:00000c00       ??_R0PAX@8                 10064c00     Canvas.obj
 0003:00000c10       ??_R0?AW4_cairo_status@@@8 10064c10     Canvas.obj
 0003:00000c30       ??_R0PAD@8                 10064c30     Canvas.obj
 0003:00000ce8       __imp_?GetCurrentContext@Isolate@v8@@QAE?AV?$Local@VContext@v8@@@2@XZ 10064ce8     node:node.exe
 0003:00000cec       __imp_?GetCurrent@Isolate@v8@@SAPAV12@XZ 10064cec     node:node.exe
 0003:00000cf0       __imp_??1HandleScope@v8@@QAE@XZ 10064cf0     node:node.exe
 0003:00000cf4       __imp_??0HandleScope@v8@@QAE@PAVIsolate@1@@Z 10064cf4     node:node.exe
 0003:00000cf8       __imp_?ClearWeak@V8@v8@@CAPAXPAPAVObject@internal@2@@Z 10064cf8     node:node.exe
 0003:00000cfc       __imp_?MakeWeak@V8@v8@@CAXPAPAVObject@internal@2@PAXP6AXABV?$WeakCallbackInfo@X@2@@ZW4WeakCallbackType@2@@Z 10064cfc     node:node.exe
 0003:00000d00       __imp_?DisposeGlobal@V8@v8@@CAXPAPAVObject@internal@2@@Z 10064d00     node:node.exe
 0003:00000d04       __imp_?GlobalizeReference@V8@v8@@CAPAPAVObject@internal@2@PAVIsolate@42@PAPAV342@@Z 10064d04     node:node.exe
 0003:00000d08       __imp_?Uint32Value@Value@v8@@QBE?AV?$Maybe@I@2@V?$Local@VContext@v8@@@2@@Z 10064d08     node:node.exe
 0003:00000d0c       __imp_?IsNumber@Value@v8@@QBE_NXZ 10064d0c     node:node.exe
 0003:00000d10       __imp_?SetAlignedPointerInInternalField@Object@v8@@QAEXHPAX@Z 10064d10     node:node.exe
 0003:00000d14       __imp_?InternalFieldCount@Object@v8@@QAEHXZ 10064d14     node:node.exe
 0003:00000d18       __imp_?Value@External@v8@@QBEPAXXZ 10064d18     node:node.exe
 0003:00000d1c       __imp_?New@External@v8@@SA?AV?$Local@VExternal@v8@@@2@PAVIsolate@2@PAX@Z 10064d1c     node:node.exe
 0003:00000d20       __imp_?ReportExternalAllocationLimitReached@Isolate@v8@@AAEXXZ 10064d20     node:node.exe
 0003:00000d24       __imp_?CreateHandle@HandleScope@v8@@KAPAPAVObject@internal@2@PAVIsolate@42@PAV342@@Z 10064d24     node:node.exe
 0003:00000d28       __imp_?CreateHandle@HandleScope@v8@@CAPAPAVObject@internal@2@PAVHeapObject@42@PAV342@@Z 10064d28     node:node.exe
 0003:00000d2c       __imp_?SetClassName@FunctionTemplate@v8@@QAEXV?$Local@VString@v8@@@2@@Z 10064d2c     node:node.exe
 0003:00000d30       __imp_?InstanceTemplate@FunctionTemplate@v8@@QAE?AV?$Local@VObjectTemplate@v8@@@2@XZ 10064d30     node:node.exe
 0003:00000d34       __imp_?GetFunction@FunctionTemplate@v8@@QAE?AV?$Local@VFunction@v8@@@2@XZ 10064d34     node:node.exe
 0003:00000d38       __imp_?New@FunctionTemplate@v8@@SA?AV?$Local@VFunctionTemplate@v8@@@2@PAVIsolate@2@P6AXABV?$FunctionCallbackInfo@VValue@v8@@@2@@ZV?$Local@VValue@v8@@@2@V?$Local@VSignature@v8@@@2@HW4ConstructorBehavior@2@@Z 10064d38     node:node.exe
 0003:00000d3c       __imp_?ToLocalEmpty@V8@v8@@CAXXZ 10064d3c     node:node.exe
 0003:00000d40       __imp_?Escape@EscapableHandleScope@v8@@AAEPAPAVObject@internal@2@PAPAV342@@Z 10064d40     node:node.exe
 0003:00000d44       __imp_??0EscapableHandleScope@v8@@QAE@PAVIsolate@1@@Z 10064d44     node:node.exe
 0003:00000d48       __imp_?NewFromUtf8@String@v8@@SA?AV?$MaybeLocal@VString@v8@@@2@PAVIsolate@2@PBDW4NewStringType@2@H@Z 10064d48     node:node.exe
 0003:00000d4c       __imp_?SlowGetInternalField@Object@v8@@AAE?AV?$Local@VValue@v8@@@2@H@Z 10064d4c     node:node.exe
 0003:00000d50       __imp_?SetInternalField@Object@v8@@QAEXHV?$Local@VValue@v8@@@2@@Z 10064d50     node:node.exe
 0003:00000d54       __imp_?Set@Object@v8@@QAE_NV?$Local@VValue@v8@@@2@0@Z 10064d54     node:node.exe
 0003:00000d58       __imp_?SetInternalFieldCount@ObjectTemplate@v8@@QAEXH@Z 10064d58     node:node.exe
 0003:00000d5c       __imp_?NewInstance@ObjectTemplate@v8@@QAE?AV?$MaybeLocal@VObject@v8@@@2@V?$Local@VContext@v8@@@2@@Z 10064d5c     node:node.exe
 0003:00000d60       __imp_?New@ObjectTemplate@v8@@SA?AV?$Local@VObjectTemplate@v8@@@2@PAVIsolate@2@V?$Local@VFunctionTemplate@v8@@@2@@Z 10064d60     node:node.exe
 0003:00000d64       __imp_??1EscapableHandleScope@v8@@QAE@XZ 10064d64     node:node.exe
 0003:00000d68       __imp_?New@Object@v8@@SA?AV?$Local@VObject@v8@@@2@PAVIsolate@2@@Z 10064d68     node:node.exe
 0003:00000d6c       __imp__uv_queue_work       10064d6c     node:node.exe
 0003:00000d70       __imp_?Global@Context@v8@@QAE?AV?$Local@VObject@v8@@@2@XZ 10064d70     node:node.exe
 0003:00000d74       __imp_?NewFromUnsigned@Integer@v8@@SA?AV?$Local@VInteger@v8@@@2@PAVIsolate@2@I@Z 10064d74     node:node.exe
 0003:00000d78       __imp_?New@Signature@v8@@SA?AV?$Local@VSignature@v8@@@2@PAVIsolate@2@V?$Local@VFunctionTemplate@v8@@@2@@Z 10064d78     node:node.exe
 0003:00000d7c       __imp_?ThrowException@Isolate@v8@@QAE?AV?$Local@VValue@v8@@@2@V32@@Z 10064d7c     node:node.exe
 0003:00000d80       __imp_?Length@TypedArray@v8@@QAEIXZ 10064d80     node:node.exe
 0003:00000d84       __imp_?Set@Template@v8@@QAEXV?$Local@VName@v8@@@2@V?$Local@VData@v8@@@2@W4PropertyAttribute@2@@Z 10064d84     node:node.exe
 0003:00000d88       __imp_?ByteLength@ArrayBufferView@v8@@QAEIXZ 10064d88     node:node.exe
 0003:00000d8c       __imp_?ByteOffset@ArrayBufferView@v8@@QAEIXZ 10064d8c     node:node.exe
 0003:00000d90       __imp_?Buffer@ArrayBufferView@v8@@QAE?AV?$Local@VArrayBuffer@v8@@@2@XZ 10064d90     node:node.exe
 0003:00000d94       __imp_?Error@Exception@v8@@SA?AV?$Local@VValue@v8@@@2@V?$Local@VString@v8@@@2@@Z 10064d94     node:node.exe
 0003:00000d98       __imp_?TypeError@Exception@v8@@SA?AV?$Local@VValue@v8@@@2@V?$Local@VString@v8@@@2@@Z 10064d98     node:node.exe
 0003:00000d9c       __imp_?New@AccessorSignature@v8@@SA?AV?$Local@VAccessorSignature@v8@@@2@PAVIsolate@2@V?$Local@VFunctionTemplate@v8@@@2@@Z 10064d9c     node:node.exe
 0003:00000da0       __imp_?HasInstance@FunctionTemplate@v8@@QAE_NV?$Local@VValue@v8@@@2@@Z 10064da0     node:node.exe
 0003:00000da4       __imp_?PrototypeTemplate@FunctionTemplate@v8@@QAE?AV?$Local@VObjectTemplate@v8@@@2@XZ 10064da4     node:node.exe
 0003:00000da8       __imp_?GetContents@ArrayBuffer@v8@@QAE?AVContents@12@XZ 10064da8     node:node.exe
 0003:00000dac       __imp_?StrictEquals@Value@v8@@QBE_NV?$Local@VValue@v8@@@2@@Z 10064dac     node:node.exe
 0003:00000db0       __imp_?NumberValue@Value@v8@@QBE?AV?$Maybe@N@2@V?$Local@VContext@v8@@@2@@Z 10064db0     node:node.exe
 0003:00000db4       __imp_?BooleanValue@Value@v8@@QBE?AV?$Maybe@_N@2@V?$Local@VContext@v8@@@2@@Z 10064db4     node:node.exe
 0003:00000db8       __imp_?ToUint32@Value@v8@@QBE?AV?$MaybeLocal@VUint32@v8@@@2@V?$Local@VContext@v8@@@2@@Z 10064db8     node:node.exe
 0003:00000dbc       __imp_?ToObject@Value@v8@@QBE?AV?$MaybeLocal@VObject@v8@@@2@V?$Local@VContext@v8@@@2@@Z 10064dbc     node:node.exe
 0003:00000dc0       __imp_?IsUint8ClampedArray@Value@v8@@QBE_NXZ 10064dc0     node:node.exe
 0003:00000dc4       __imp_?IsArrayBufferView@Value@v8@@QBE_NXZ 10064dc4     node:node.exe
 0003:00000dc8       __imp_?IsUint32@Value@v8@@QBE_NXZ 10064dc8     node:node.exe
 0003:00000dcc       __imp_?IsBoolean@Value@v8@@QBE_NXZ 10064dcc     node:node.exe
 0003:00000dd0       __imp_?IsObject@Value@v8@@QBE_NXZ 10064dd0     node:node.exe
 0003:00000dd4       __imp_?IsFunction@Value@v8@@QBE_NXZ 10064dd4     node:node.exe
 0003:00000dd8       __imp_?ReThrow@TryCatch@v8@@QAE?AV?$Local@VValue@v8@@@2@XZ 10064dd8     node:node.exe
 0003:00000ddc       __imp_?HasCaught@TryCatch@v8@@QBE_NXZ 10064ddc     node:node.exe
 0003:00000de0       __imp_??1TryCatch@v8@@QAE@XZ 10064de0     node:node.exe
 0003:00000de4       __imp_??0TryCatch@v8@@QAE@PAVIsolate@1@@Z 10064de4     node:node.exe
 0003:00000de8       __imp_?WriteUtf8@String@v8@@QBEHPADHPAHH@Z 10064de8     node:node.exe
 0003:00000dec       __imp_?Length@String@v8@@QBEHXZ 10064dec     node:node.exe
 0003:00000df0       __imp_?New@Number@v8@@SA?AV?$Local@VNumber@v8@@@2@PAVIsolate@2@N@Z 10064df0     node:node.exe
 0003:00000df4       __imp_?SlowGetAlignedPointerFromInternalField@Object@v8@@AAEPAXH@Z 10064df4     node:node.exe
 0003:00000df8       __imp_?Get@Object@v8@@QAE?AV?$Local@VValue@v8@@@2@V32@@Z 10064df8     node:node.exe
 0003:00000dfc       __imp_?Set@Object@v8@@QAE?AV?$Maybe@_N@2@V?$Local@VContext@v8@@@2@V?$Local@VValue@v8@@@2@1@Z 10064dfc     node:node.exe
 0003:00000e00       __imp_?Call@Function@v8@@QAE?AV?$MaybeLocal@VValue@v8@@@2@V?$Local@VContext@v8@@@2@V?$Local@VValue@v8@@@2@HQAV52@@Z 10064e00     node:node.exe
 0003:00000e04       __imp_?SetAccessor@ObjectTemplate@v8@@QAEXV?$Local@VName@v8@@@2@P6AX0ABV?$PropertyCallbackInfo@VValue@v8@@@2@@ZP6AX0V?$Local@VValue@v8@@@2@ABV?$PropertyCallbackInfo@X@2@@Z3W4AccessControl@2@W4PropertyAttribute@2@V?$Local@VAccessorSignature@v8@@@2@@Z 10064e04     node:node.exe
 0003:00000e08       __imp_?New@Buffer@node@@YA?AV?$MaybeLocal@VObject@v8@@@v8@@PAVIsolate@4@PADIP6AX1PAX@Z2@Z 10064e08     node:node.exe
 0003:00000e0c       __imp_?New@Buffer@node@@YA?AV?$MaybeLocal@VObject@v8@@@v8@@PAVIsolate@4@PADI@Z 10064e0c     node:node.exe
 0003:00000e10       __imp_?Copy@Buffer@node@@YA?AV?$MaybeLocal@VObject@v8@@@v8@@PAVIsolate@4@PBDI@Z 10064e10     node:node.exe
 0003:00000e14       __imp_?MakeCallback@node@@YA?AV?$Local@VValue@v8@@@v8@@PAVIsolate@3@V?$Local@VObject@v8@@@3@V?$Local@VFunction@v8@@@3@HPAV23@@Z 10064e14     node:node.exe
 0003:00000e18       __imp__uv_default_loop     10064e18     node:node.exe
 0003:00000e1c       __imp_?ToString@Value@v8@@QBE?AV?$Local@VString@v8@@@2@XZ 10064e1c     node:node.exe
 0003:00000e20       __imp_?New@Uint8ClampedArray@v8@@SA?AV?$Local@VUint8ClampedArray@v8@@@2@V?$Local@VArrayBuffer@v8@@@2@II@Z 10064e20     node:node.exe
 0003:00000e24       __imp_?New@Integer@v8@@SA?AV?$Local@VInteger@v8@@@2@PAVIsolate@2@H@Z 10064e24     node:node.exe
 0003:00000e28       __imp_?New@Array@v8@@SA?AV?$Local@VArray@v8@@@2@PAVIsolate@2@H@Z 10064e28     node:node.exe
 0003:00000e2c       __imp_?Length@Array@v8@@QBEIXZ 10064e2c     node:node.exe
 0003:00000e30       __imp_?GetFunction@FunctionTemplate@v8@@QAE?AV?$MaybeLocal@VFunction@v8@@@2@V?$Local@VContext@v8@@@2@@Z 10064e30     node:node.exe
 0003:00000e34       __imp_?New@ArrayBuffer@v8@@SA?AV?$Local@VArrayBuffer@v8@@@2@PAVIsolate@2@I@Z 10064e34     node:node.exe
 0003:00000e38       __imp_?FromJustIsNothing@V8@v8@@CAXXZ 10064e38     node:node.exe
 0003:00000e3c       __imp_?InstanceOf@Value@v8@@QAE?AV?$Maybe@_N@2@V?$Local@VContext@v8@@@2@V?$Local@VObject@v8@@@2@@Z 10064e3c     node:node.exe
 0003:00000e40       __imp_?Int32Value@Value@v8@@QBE?AV?$Maybe@H@2@V?$Local@VContext@v8@@@2@@Z 10064e40     node:node.exe
 0003:00000e44       __imp_?ToInt32@Value@v8@@QBE?AV?$MaybeLocal@VInt32@v8@@@2@V?$Local@VContext@v8@@@2@@Z 10064e44     node:node.exe
 0003:00000e48       __imp_?ToString@Value@v8@@QBE?AV?$MaybeLocal@VString@v8@@@2@V?$Local@VContext@v8@@@2@@Z 10064e48     node:node.exe
 0003:00000e4c       __imp_?IsArray@Value@v8@@QBE_NXZ 10064e4c     node:node.exe
 0003:00000e50       __imp_?New@Float64Array@v8@@SA?AV?$Local@VFloat64Array@v8@@@2@V?$Local@VArrayBuffer@v8@@@2@II@Z 10064e50     node:node.exe
 0003:00000e54       __imp_?New@Uint16Array@v8@@SA?AV?$Local@VUint16Array@v8@@@2@V?$Local@VArrayBuffer@v8@@@2@II@Z 10064e54     node:node.exe
 0003:00000e58       __imp_?Get@Object@v8@@QAE?AV?$MaybeLocal@VValue@v8@@@2@V?$Local@VContext@v8@@@2@V?$Local@VValue@v8@@@2@@Z 10064e58     node:node.exe
 0003:00000e5c       __imp_?Get@Object@v8@@QAE?AV?$Local@VValue@v8@@@2@I@Z 10064e5c     node:node.exe
 0003:00000e60       __imp_?NewInstance@Function@v8@@QBE?AV?$MaybeLocal@VObject@v8@@@2@V?$Local@VContext@v8@@@2@HQAV?$Local@VValue@v8@@@2@@Z 10064e60     node:node.exe
 0003:00000e64       __imp_?New@Function@v8@@SA?AV?$Local@VFunction@v8@@@2@PAVIsolate@2@P6AXABV?$FunctionCallbackInfo@VValue@v8@@@2@@ZV?$Local@VValue@v8@@@2@H@Z 10064e64     node:node.exe
 0003:00000e68       __imp_?Call@Function@v8@@QAE?AV?$Local@VValue@v8@@@2@V32@HQAV32@@Z 10064e68     node:node.exe
 0003:00000e6c       __imp_?HasInstance@Buffer@node@@YA_NV?$Local@VValue@v8@@@v8@@@Z 10064e6c     node:node.exe
 0003:00000e70       __imp_?Data@Buffer@node@@YAPADV?$Local@VObject@v8@@@v8@@@Z 10064e70     node:node.exe
 0003:00000e74       __imp_?Length@Buffer@node@@YAIV?$Local@VObject@v8@@@v8@@@Z 10064e74     node:node.exe
 0003:00000e78       __imp_?ErrnoException@node@@YA?AV?$Local@VValue@v8@@@v8@@PAVIsolate@3@HPBD11@Z 10064e78     node:node.exe
 0003:00000e7c       __imp_?RangeError@Exception@v8@@SA?AV?$Local@VValue@v8@@@2@V?$Local@VString@v8@@@2@@Z 10064e7c     node:node.exe
 0003:00000e80       __imp_?IsUint16Array@Value@v8@@QBE_NXZ 10064e80     node:node.exe
 0003:00000e84       __imp__node_module_register 10064e84     node:node.exe
 0003:00000e88       \177node_NULL_THUNK_DATA_DLA 10064e88     node:node.exe
 0003:00000e90       __hmod__node_exe           10064e90     node:node.exe
 0003:00000e94       ?nothrow@std@@3Unothrow_t@1@B 10064e94     libcpmt:nothrow.obj
 0003:00000f60       ?_Id_cnt@id@locale@std@@0HA 10064f60     libcpmt:locale0.obj
 0003:00000f64       ?_Clocptr@_Locimp@locale@std@@0PAV123@A 10064f64     libcpmt:locale0.obj
 0003:00000f68       ?id@?$ctype@G@std@@2V0locale@2@A 10064f68     libcpmt:locale0.obj
 0003:00000f6c       ?id@?$codecvt@_WDU_Mbstatet@@@std@@2V0locale@2@A 10064f6c     libcpmt:locale0.obj
 0003:00000f70       ?id@?$codecvt@GDU_Mbstatet@@@std@@2V0locale@2@A 10064f70     libcpmt:locale0.obj
 0003:00000f74       ?id@?$ctype@_W@std@@2V0locale@2@A 10064f74     libcpmt:locale0.obj
 0003:00000f78       ?id@?$ctype@D@std@@2V0locale@2@A 10064f78     libcpmt:locale0.obj
 0003:00000f94       ?_Index@ios_base@std@@0HA  10064f94     libcpmt:ios.obj
 0003:00000fcc       ?_Raise_handler@std@@3P6AXABVexception@stdext@@@ZA 10064fcc     libcpmt:raisehan.obj
 0003:00000fd0       ___encodedKERNEL32Functions 10064fd0     libcpmt:winapisupp.obj
 0003:00001070       ?id@?$num_get@DV?$istreambuf_iterator@DU?$char_traits@D@std@@@std@@@std@@2V0locale@2@A 10065070     libcpmt:locale.obj
 0003:00001074       ?id@?$num_put@DV?$ostreambuf_iterator@DU?$char_traits@D@std@@@std@@@std@@2V0locale@2@A 10065074     libcpmt:locale.obj
 0003:00001078       ?id@?$numpunct@D@std@@2V0locale@2@A 10065078     libcpmt:locale.obj
 0003:0000107c       ?id@?$codecvt@DDU_Mbstatet@@@std@@2V0locale@2@A 1006507c     libcpmt:locale.obj
 0003:00001080       ?_Ptr_cin@std@@3PAV?$basic_istream@DU?$char_traits@D@std@@@1@A 10065080     libcpmt:iosptrs.obj
 0003:00001084       ?_Ptr_cout@std@@3PAV?$basic_ostream@DU?$char_traits@D@std@@@1@A 10065084     libcpmt:iosptrs.obj
 0003:00001088       ?_Ptr_cerr@std@@3PAV?$basic_ostream@DU?$char_traits@D@std@@@1@A 10065088     libcpmt:iosptrs.obj
 0003:0000108c       ?_Ptr_clog@std@@3PAV?$basic_ostream@DU?$char_traits@D@std@@@1@A 1006508c     libcpmt:iosptrs.obj
 0003:00001090       ?_Ptr_wcin@std@@3PAV?$basic_istream@_WU?$char_traits@_W@std@@@1@A 10065090     libcpmt:iosptrs.obj
 0003:00001094       ?_Ptr_wcout@std@@3PAV?$basic_ostream@_WU?$char_traits@_W@std@@@1@A 10065094     libcpmt:iosptrs.obj
 0003:00001098       ?_Ptr_wcerr@std@@3PAV?$basic_ostream@_WU?$char_traits@_W@std@@@1@A 10065098     libcpmt:iosptrs.obj
 0003:0000109c       ?_Ptr_wclog@std@@3PAV?$basic_ostream@_WU?$char_traits@_W@std@@@1@A 1006509c     libcpmt:iosptrs.obj
 0003:000010cc       ?id@?$time_put@_WV?$ostreambuf_iterator@_WU?$char_traits@_W@std@@@std@@@std@@2V0locale@2@A 100650cc     libcpmt:wlocale.obj
 0003:000010d0       ?id@?$num_get@_WV?$istreambuf_iterator@_WU?$char_traits@_W@std@@@std@@@std@@2V0locale@2@A 100650d0     libcpmt:wlocale.obj
 0003:000010d4       ?id@?$num_put@_WV?$ostreambuf_iterator@_WU?$char_traits@_W@std@@@std@@@std@@2V0locale@2@A 100650d4     libcpmt:wlocale.obj
 0003:000010d8       ?id@?$numpunct@_W@std@@2V0locale@2@A 100650d8     libcpmt:wlocale.obj
 0003:000010dc       ?id@?$collate@_W@std@@2V0locale@2@A 100650dc     libcpmt:wlocale.obj
 0003:000010e0       ?id@?$messages@_W@std@@2V0locale@2@A 100650e0     libcpmt:wlocale.obj
 0003:000010e4       ?id@?$money_get@_WV?$istreambuf_iterator@_WU?$char_traits@_W@std@@@std@@@std@@2V0locale@2@A 100650e4     libcpmt:wlocale.obj
 0003:000010e8       ?id@?$money_put@_WV?$ostreambuf_iterator@_WU?$char_traits@_W@std@@@std@@@std@@2V0locale@2@A 100650e8     libcpmt:wlocale.obj
 0003:000010ec       ?id@?$moneypunct@_W$0A@@std@@2V0locale@2@A 100650ec     libcpmt:wlocale.obj
 0003:000010f0       ?id@?$moneypunct@_W$00@std@@2V0locale@2@A 100650f0     libcpmt:wlocale.obj
 0003:000010f4       ?id@?$time_get@_WV?$istreambuf_iterator@_WU?$char_traits@_W@std@@@std@@@std@@2V0locale@2@A 100650f4     libcpmt:wlocale.obj
 0003:000010f8       ?id@?$num_get@GV?$istreambuf_iterator@GU?$char_traits@G@std@@@std@@@std@@2V0locale@2@A 100650f8     libcpmt:wlocale.obj
 0003:000010fc       ?id@?$num_put@GV?$ostreambuf_iterator@GU?$char_traits@G@std@@@std@@@std@@2V0locale@2@A 100650fc     libcpmt:wlocale.obj
 0003:00001100       ?id@?$numpunct@G@std@@2V0locale@2@A 10065100     libcpmt:wlocale.obj
 0003:00001104       ?id@?$collate@G@std@@2V0locale@2@A 10065104     libcpmt:wlocale.obj
 0003:00001108       ?id@?$messages@G@std@@2V0locale@2@A 10065108     libcpmt:wlocale.obj
 0003:0000110c       ?id@?$money_get@GV?$istreambuf_iterator@GU?$char_traits@G@std@@@std@@@std@@2V0locale@2@A 1006510c     libcpmt:wlocale.obj
 0003:00001110       ?id@?$money_put@GV?$ostreambuf_iterator@GU?$char_traits@G@std@@@std@@@std@@2V0locale@2@A 10065110     libcpmt:wlocale.obj
 0003:00001114       ?id@?$moneypunct@G$0A@@std@@2V0locale@2@A 10065114     libcpmt:wlocale.obj
 0003:00001118       ?id@?$moneypunct@G$00@std@@2V0locale@2@A 10065118     libcpmt:wlocale.obj
 0003:0000111c       ?id@?$time_get@GV?$istreambuf_iterator@GU?$char_traits@G@std@@@std@@@std@@2V0locale@2@A 1006511c     libcpmt:wlocale.obj
 0003:00001120       ?id@?$time_put@GV?$ostreambuf_iterator@GU?$char_traits@G@std@@@std@@@std@@2V0locale@2@A 10065120     libcpmt:wlocale.obj
 0003:00001124       ?id@?$collate@D@std@@2V0locale@2@A 10065124     libcpmt:xlocale.obj
 0003:00001128       ?id@?$messages@D@std@@2V0locale@2@A 10065128     libcpmt:xlocale.obj
 0003:0000112c       ?id@?$money_get@DV?$istreambuf_iterator@DU?$char_traits@D@std@@@std@@@std@@2V0locale@2@A 1006512c     libcpmt:xlocale.obj
 0003:00001130       ?id@?$money_put@DV?$ostreambuf_iterator@DU?$char_traits@D@std@@@std@@@std@@2V0locale@2@A 10065130     libcpmt:xlocale.obj
 0003:00001134       ?id@?$moneypunct@D$0A@@std@@2V0locale@2@A 10065134     libcpmt:xlocale.obj
 0003:00001138       ?id@?$moneypunct@D$00@std@@2V0locale@2@A 10065138     libcpmt:xlocale.obj
 0003:0000113c       ?id@?$time_get@DV?$istreambuf_iterator@DU?$char_traits@D@std@@@std@@@std@@2V0locale@2@A 1006513c     libcpmt:xlocale.obj
 0003:00001140       ?id@?$time_put@DV?$ostreambuf_iterator@DU?$char_traits@D@std@@@std@@@std@@2V0locale@2@A 10065140     libcpmt:xlocale.obj
 0003:00001144       ___scrt_current_native_startup_state 10065144     LIBCMT:utility.obj
 0003:00001148       ___scrt_native_startup_lock 10065148     LIBCMT:utility.obj
 0003:0000148c       ___isa_available           1006548c     LIBCMT:cpu_disp.obj
 0003:00001490       ___favor                   10065490     LIBCMT:cpu_disp.obj
 0003:00001494       ___scrt_debugger_hook_flag 10065494     LIBCMT:utility_desktop.obj
 0003:00001498       ?__type_info_root_node@@3U__type_info_node@@A 10065498     LIBCMT:tncleanup.obj
 0003:000014a0       ?_OptionsStorage@?1??__local_stdio_scanf_options@@9@4_KA 100654a0     LIBCMT:default_local_stdio_options.obj
 0003:000014a8       ?__WinRTOutOfMemoryExceptionCallback@@3P6GPAXXZA 100654a8     libvcruntime:ehhelpers.obj
 0003:000014d4       ___pPurecall               100654d4     libvcruntime:purevirt_data.obj
 0003:00001514       ?pArgList@UnDecorator@@0PAVReplicator@@A 10065514     libvcruntime:undname.obj
 0003:00001518       ?pZNameList@UnDecorator@@0PAVReplicator@@A 10065518     libvcruntime:undname.obj
 0003:0000151c       ?pTemplateArgList@UnDecorator@@0PAVReplicator@@A 1006551c     libvcruntime:undname.obj
 0003:00001520       ?gName@UnDecorator@@0PBDB  10065520     libvcruntime:undname.obj
 0003:00001524       ?name@UnDecorator@@0PBDB   10065524     libvcruntime:undname.obj
 0003:00001528       ?disableFlags@UnDecorator@@0KA 10065528     libvcruntime:undname.obj
 0003:0000152c       ?fExplicitTemplateParams@UnDecorator@@0_NA 1006552c     libvcruntime:undname.obj
 0003:0000152d       ?fGetTemplateArgumentList@UnDecorator@@0_NA 1006552d     libvcruntime:undname.obj
 0003:00001530       ?m_pGetParameter@UnDecorator@@0P6APADJ@ZA 10065530     libvcruntime:undname.obj
 0003:00001534       ?m_CHPENameOffset@UnDecorator@@0KA 10065534     libvcruntime:undname.obj
 0003:00001538       ?m_recursionLevel@UnDecorator@@0KA 10065538     libvcruntime:undname.obj
 0003:00001554       __nstream                  10065554     libucrt:_file.obj
 0003:00001558       ___piob                    10065558     libucrt:_file.obj
 0003:0000155c       __cflush                   1006555c     libucrt:_file.obj
 0003:000016b4       ___acrt_lconv_static_null  100656b4     libucrt:localeconv.obj
 0003:000016b8       ___acrt_lconv_static_W_null 100656b8     libucrt:localeconv.obj
 0003:000016c8       ?c_exit_complete@?1???R<lambda_6e4b09c48022b2350581041d5f6b0c4c>@@QBE@XZ@4_NA 100656c8     libucrt:exit.obj
 0003:000017d8       __environ_table            100657d8     libucrt:environment_initialization.obj
 0003:000017dc       __wenviron_table           100657dc     libucrt:environment_initialization.obj
 0003:000017e0       ___dcrt_initial_wide_environment 100657e0     libucrt:environment_initialization.obj
 0003:000017e4       ___dcrt_initial_narrow_environment 100657e4     libucrt:environment_initialization.obj
 0003:000017e8       ___acrt_atexit_table       100657e8     libucrt:onexit.obj
 0003:000017f4       ___acrt_at_quick_exit_table 100657f4     libucrt:onexit.obj
 0003:00001818       ___acrt_locale_changed_data 10065818     libucrt:wsetlocale.obj
 0003:0000181c       ___acrt_current_locale_data 1006581c     libucrt:nlsdata.obj
 0003:00001900       ___pioinfo                 10065900     libucrt:ioinit.obj
 0003:00001b00       __nhandle                  10065b00     libucrt:ioinit.obj
 0003:00001b10       ___acrt_stdout_buffer      10065b10     libucrt:_sftbuf.obj
 0003:00001b14       ___acrt_stderr_buffer      10065b14     libucrt:_sftbuf.obj
 0003:00001b18       ___fastflag                10065b18     libucrt:fp_flags.obj
 0003:00001b1c       ?_timezone@@3V?$dual_state_global@J@__crt_state_management@@A 10065b1c     libucrt:timeset.obj
 0003:00001b20       ?_daylight@@3V?$dual_state_global@H@__crt_state_management@@A 10065b20     libucrt:timeset.obj
 0003:00001b24       ?_dstbias@@3V?$dual_state_global@J@__crt_state_management@@A 10065b24     libucrt:timeset.obj
 0003:00001bf0       ___acrt_current_multibyte_data 10065bf0     libucrt:mbctype.obj
 0003:00001bf4       __mbctype                  10065bf4     libucrt:mbctype.obj
 0003:00001bf8       __mbcasemap                10065bf8     libucrt:mbctype.obj
 0003:00001c04       __pgmptr                   10065c04     libucrt:argv_data.obj
 0003:00001c08       ___argc                    10065c08     libucrt:argv_data.obj
 0003:00001c0c       ___argv                    10065c0c     libucrt:argv_data.obj
 0003:00001c10       ___wargv                   10065c10     libucrt:argv_data.obj
 0003:00001c14       __acmdln                   10065c14     libucrt:argv_data.obj
 0003:00001c18       __wcmdln                   10065c18     libucrt:argv_data.obj
 0003:00001c1c       ___acrt_heap               10065c1c     libucrt:heap_handle.obj
 0003:00001c28       __commode                  10065c28     libucrt:ncommode.obj
 0003:00001c38       __umaskval                 10065c38     libucrt:umask.obj
 0003:00001c44       __fmode                    10065c44     libucrt:txtmode.obj
 0003:00001c48       ?DloadKernel32@@3PAUHINSTANCE__@@A 10065c48     DelayImp:delayhlp.obj
 0003:00001c4c       ?DloadAcquireSRWLockExclusive@@3P6GXPAK@ZA 10065c4c     DelayImp:delayhlp.obj
 0003:00001c50       ?DloadReleaseSRWLockExclusive@@3P6GXPAK@ZA 10065c50     DelayImp:delayhlp.obj
 0003:00001c54       ?DloadSrwLock@@3KA         10065c54     DelayImp:delayhlp.obj
 0003:00001c58       ?DloadSectionLockCount@@3KA 10065c58     DelayImp:delayhlp.obj
 0003:00001c5c       ?DloadSectionOldProtection@@3KA 10065c5c     DelayImp:delayhlp.obj
 0003:00001c60       ?DloadSectionCommitPermanent@@3KA 10065c60     DelayImp:delayhlp.obj
 0003:00001c64       ?_Flag@?1???$_Immortalize@V_Iostream_error_category@std@@@std@@YAAAV_Iostream_error_category@1@XZ@4PAXA 10065c64     Canvas.obj
 0003:00001c68       ?_Storage@?1???$_Immortalize@V_Iostream_error_category@std@@@std@@YAAAV_Iostream_error_category@1@XZ@4T?$_Align_type@H$07@1@A 10065c68     Canvas.obj
 0003:00001c70       ?_Psave@?$_Facetptr@V?$ctype@D@std@@@std@@2PBVfacet@locale@2@B 10065c70     Canvas.obj
 0003:00001c74       ?pattern_repeat_key@@3PBU_cairo_user_data_key@@B 10065c74     CanvasPattern.obj
 0003:00001c78       ?constructor@ImageBackend@@2V?$Persistent@VFunctionTemplate@v8@@V?$NonCopyablePersistentTraits@VFunctionTemplate@v8@@@2@@Nan@@A 10065c78     ImageBackend.obj
 0003:00001c7c       ?constructor@PdfBackend@@2V?$Persistent@VFunctionTemplate@v8@@V?$NonCopyablePersistentTraits@VFunctionTemplate@v8@@@2@@Nan@@A 10065c7c     PdfBackend.obj
 0003:00001c80       ?constructor@SvgBackend@@2V?$Persistent@VFunctionTemplate@v8@@V?$NonCopyablePersistentTraits@VFunctionTemplate@v8@@@2@@Nan@@A 10065c80     SvgBackend.obj
 0003:00001c84       ?font_face_list@@3V?$vector@VFontFace@@V?$allocator@VFontFace@@@std@@@std@@A 10065c84     Canvas.obj
 0003:00001c90       ?constructor@Canvas@@2V?$Persistent@VFunctionTemplate@v8@@V?$NonCopyablePersistentTraits@VFunctionTemplate@v8@@@2@@Nan@@A 10065c90     Canvas.obj
 0003:00001c94       ?constructor@Gradient@@2V?$Persistent@VFunctionTemplate@v8@@V?$NonCopyablePersistentTraits@VFunctionTemplate@v8@@@2@@Nan@@A 10065c94     CanvasGradient.obj
 0003:00001c98       ?constructor@Pattern@@2V?$Persistent@VFunctionTemplate@v8@@V?$NonCopyablePersistentTraits@VFunctionTemplate@v8@@@2@@Nan@@A 10065c98     CanvasPattern.obj
 0003:00001c9c       ?constructor@Context2d@@2V?$Persistent@VFunctionTemplate@v8@@V?$NonCopyablePersistentTraits@VFunctionTemplate@v8@@@2@@Nan@@A 10065c9c     CanvasRenderingContext2d.obj
 0003:00001ca0       ?_DOMMatrix@Context2d@@2V?$Persistent@VFunction@v8@@V?$NonCopyablePersistentTraits@VFunction@v8@@@2@@Nan@@A 10065ca0     CanvasRenderingContext2d.obj
 0003:00001ca4       ?_parseFont@Context2d@@2V?$Persistent@VFunction@v8@@V?$NonCopyablePersistentTraits@VFunction@v8@@@2@@Nan@@A 10065ca4     CanvasRenderingContext2d.obj
 0003:00001cb0       ?constructor@Image@@2V?$Persistent@VFunctionTemplate@v8@@V?$NonCopyablePersistentTraits@VFunctionTemplate@v8@@@2@@Nan@@A 10065cb0     Image.obj
 0003:00001cb4       ?constructor@ImageData@@2V?$Persistent@VFunctionTemplate@v8@@V?$NonCopyablePersistentTraits@VFunctionTemplate@v8@@@2@@Nan@@A 10065cb4     ImageData.obj
 0003:00001cb8       ?_OptionsStorage@?1??__local_stdio_printf_options@@9@4_KA 10065cb8     color.obj
 0003:00001cc0       ___dyn_tls_init_callback   10065cc0     <common>
 0003:00001cc4       ___scrt_ucrt_dll_is_in_use 10065cc4     <common>
 0003:00001cc8       __pmatherr                 10065cc8     <common>
 0003:00001ccc       ___use_sse2_mathfcns       10065ccc     <common>

 entry point at        0001:000236a5

 Static symbols

 0000:fff94000       .debug$S                   10000000     kernel32:KERNEL32.dll
 0000:fff94000       .debug$S                   10000000     gdi32:GDI32.dll
 0000:fff94000       .debug$S                   10000000     node:node.exe
 0000:fff94000       .debug$S                   10000000     node:node.exe
 0000:fff94000       .debug$S                   10000000     pango-1.0:libpango-1.0-0.dll
 0000:fff94000       .debug$S                   10000000     node:node.exe
 0000:fff94000       .debug$S                   10000000     node:node.exe
 0000:fff94000       .debug$S                   10000000     node:node.exe
 0000:fff94000       .debug$S                   10000000     node:node.exe
 0000:fff94000       .debug$S                   10000000     node:node.exe
 0000:fff94000       .debug$S                   10000000     node:node.exe
 0000:fff94000       .debug$S                   10000000     node:node.exe
 0000:fff94000       .debug$S                   10000000     node:node.exe
 0000:fff94000       .debug$S                   10000000     node:node.exe
 0000:fff94000       .debug$S                   10000000     node:node.exe
 0000:fff94000       .debug$S                   10000000     kernel32:KERNEL32.dll
 0000:fff94000       .debug$S                   10000000     node:node.exe
 0000:fff94000       .debug$S                   10000000     node:node.exe
 0000:fff94000       .debug$S                   10000000     node:node.exe
 0000:fff94000       .debug$S                   10000000     node:node.exe
 0000:fff94000       .debug$S                   10000000     node:node.exe
 0000:fff94000       .debug$S                   10000000     node:node.exe
 0000:fff94000       .debug$S                   10000000     node:node.exe
 0000:fff94000       .debug$S                   10000000     node:node.exe
 0000:fff94000       .debug$S                   10000000     node:node.exe
 0000:fff94000       .debug$S                   10000000     node:node.exe
 0000:fff94000       .debug$S                   10000000     kernel32:KERNEL32.dll
 0000:fff94000       .debug$S                   10000000     node:node.exe
 0000:fff94000       .debug$S                   10000000     node:node.exe
 0000:fff94000       .debug$S                   10000000     node:node.exe
 0000:fff94000       .debug$S                   10000000     node:node.exe
 0000:fff94000       .debug$S                   10000000     node:node.exe
 0000:fff94000       .debug$S                   10000000     node:node.exe
 0000:fff94000       .debug$S                   10000000     node:node.exe
 0000:fff94000       .debug$S                   10000000     node:node.exe
 0000:fff94000       .debug$S                   10000000     node:node.exe
 0000:fff94000       .debug$S                   10000000     node:node.exe
 0000:fff94000       .debug$S                   10000000     kernel32:KERNEL32.dll
 0000:fff94000       .debug$S                   10000000     node:node.exe
 0000:fff94000       .debug$S                   10000000     kernel32:KERNEL32.dll
 0000:fff94000       .debug$S                   10000000     kernel32:KERNEL32.dll
 0000:fff94000       .debug$S                   10000000     node:node.exe
 0000:fff94000       .debug$S                   10000000     kernel32:KERNEL32.dll
 0000:fff94000       .debug$S                   10000000     node:node.exe
 0000:fff94000       .debug$S                   10000000     node:node.exe
 0000:fff94000       .debug$S                   10000000     node:node.exe
 0000:fff94000       .debug$S                   10000000     node:node.exe
 0000:fff94000       .debug$S                   10000000     node:node.exe
 0000:fff94000       .debug$S                   10000000     node:node.exe
 0000:fff94000       .debug$S                   10000000     kernel32:KERNEL32.dll
 0000:fff94000       .debug$S                   10000000     node:node.exe
 0000:fff94000       .debug$S                   10000000     node:node.exe
 0000:fff94000       .debug$S                   10000000     node:node.exe
 0000:fff94000       .debug$S                   10000000     node:node.exe
 0000:fff94000       .debug$S                   10000000     node:node.exe
 0000:fff94000       .debug$S                   10000000     node:node.exe
 0000:fff94000       .debug$S                   10000000     node:node.exe
 0000:fff94000       .debug$S                   10000000     node:node.exe
 0000:fff94000       .debug$S                   10000000     kernel32:KERNEL32.dll
 0000:fff94000       .debug$S                   10000000     node:node.exe
 0000:fff94000       .debug$S                   10000000     node:node.exe
 0000:fff94000       .debug$S                   10000000     node:node.exe
 0000:fff94000       .debug$S                   10000000     node:node.exe
 0000:fff94000       .debug$S                   10000000     node:node.exe
 0000:fff94000       .debug$S                   10000000     node:node.exe
 0000:fff94000       .debug$S                   10000000     node:node.exe
 0000:fff94000       .debug$S                   10000000     node:node.exe
 0000:fff94000       .debug$S                   10000000     node:node.exe
 0000:fff94000       .debug$S                   10000000     node:node.exe
 0000:fff94000       .debug$S                   10000000     kernel32:KERNEL32.dll
 0000:fff94000       .debug$S                   10000000     node:node.exe
 0000:fff94000       .debug$S                   10000000     node:node.exe
 0000:fff94000       .debug$S                   10000000     node:node.exe
 0000:fff94000       .debug$S                   10000000     node:node.exe
 0000:fff94000       .debug$S                   10000000     node:node.exe
 0000:fff94000       .debug$S                   10000000     node:node.exe
 0000:fff94000       .debug$S                   10000000     node:node.exe
 0000:fff94000       .debug$S                   10000000     node:node.exe
 0000:fff94000       .debug$S                   10000000     node:node.exe
 0000:fff94000       .debug$S                   10000000     kernel32:KERNEL32.dll
 0000:fff94000       .debug$S                   10000000     node:node.exe
 0000:fff94000       .debug$S                   10000000     node:node.exe
 0000:fff94000       .debug$S                   10000000     node:node.exe
 0000:fff94000       .debug$S                   10000000     node:node.exe
 0000:fff94000       .debug$S                   10000000     node:node.exe
 0000:fff94000       .debug$S                   10000000     node:node.exe
 0000:fff94000       .debug$S                   10000000     node:node.exe
 0000:fff94000       .debug$S                   10000000     node:node.exe
 0000:fff94000       .debug$S                   10000000     node:node.exe
 0000:fff94000       .debug$S                   10000000     node:node.exe
 0000:fff94000       .debug$S                   10000000     kernel32:KERNEL32.dll
 0000:fff94000       .debug$S                   10000000     kernel32:KERNEL32.dll
 0000:fff94000       .debug$S                   10000000     node:node.exe
 0000:fff94000       .debug$S                   10000000     node:node.exe
 0000:fff94000       .debug$S                   10000000     node:node.exe
 0000:fff94000       .debug$S                   10000000     node:node.exe
 0000:fff94000       .debug$S                   10000000     node:node.exe
 0000:fff94000       .debug$S                   10000000     kernel32:KERNEL32.dll
 0000:fff94000       .debug$S                   10000000     node:node.exe
 0000:fff94000       .debug$S                   10000000     node:node.exe
 0000:fff94000       .debug$S                   10000000     node:node.exe
 0000:fff94000       .debug$S                   10000000     node:node.exe
 0000:fff94000       .debug$S                   10000000     node:node.exe
 0000:fff94000       .debug$S                   10000000     node:node.exe
 0000:fff94000       .debug$S                   10000000     node:node.exe
 0000:fff94000       .debug$S                   10000000     node:node.exe
 0000:fff94000       .debug$S                   10000000     node:node.exe
 0000:fff94000       .debug$S                   10000000     node:node.exe
 0000:fff94000       .debug$S                   10000000     node:node.exe
 0000:fff94000       .debug$S                   10000000     node:node.exe
 0000:fff94000       .debug$S                   10000000     node:node.exe
 0000:fff94000       .debug$S                   10000000     kernel32:KERNEL32.dll
 0000:fff94000       .debug$S                   10000000     kernel32:KERNEL32.dll
 0000:fff94000       .debug$S                   10000000     kernel32:KERNEL32.dll
 0000:fff94000       .debug$S                   10000000     kernel32:KERNEL32.dll
 0000:fff94000       .debug$S                   10000000     kernel32:KERNEL32.dll
 0000:fff94000       .debug$S                   10000000     kernel32:KERNEL32.dll
 0000:fff94000       .debug$S                   10000000     kernel32:KERNEL32.dll
 0000:fff94000       .debug$S                   10000000     kernel32:KERNEL32.dll
 0000:fff94000       .debug$S                   10000000     kernel32:KERNEL32.dll
 0000:fff94000       .debug$S                   10000000     kernel32:KERNEL32.dll
 0000:fff94000       .debug$S                   10000000     kernel32:KERNEL32.dll
 0000:fff94000       .debug$S                   10000000     kernel32:KERNEL32.dll
 0000:fff94000       .debug$S                   10000000     pango-1.0:libpango-1.0-0.dll
 0000:fff94000       .debug$S                   10000000     pango-1.0:libpango-1.0-0.dll
 0000:fff94000       .debug$S                   10000000     node:node.exe
 0000:fff94000       .debug$S                   10000000     node:node.exe
 0000:fff94000       .debug$S                   10000000     node:node.exe
 0000:fff94000       .debug$S                   10000000     kernel32:KERNEL32.dll
 0000:fff94000       .debug$S                   10000000     kernel32:KERNEL32.dll
 0000:fff94000       .debug$S                   10000000     kernel32:KERNEL32.dll
 0000:fff94000       .debug$S                   10000000     pango-1.0:libpango-1.0-0.dll
 0000:fff94000       .debug$S                   10000000     node:node.exe
 0000:fff94000       .debug$S                   10000000     node:node.exe
 0000:fff94000       .debug$S                   10000000     node:node.exe
 0000:fff94000       .debug$S                   10000000     node:node.exe
 0000:fff94000       .debug$S                   10000000     node:node.exe
 0000:fff94000       .debug$S                   10000000     node:node.exe
 0000:fff94000       .debug$S                   10000000     node:node.exe
 0000:fff94000       .debug$S                   10000000     node:node.exe
 0000:fff94000       .debug$S                   10000000     node:node.exe
 0000:fff94000       .debug$S                   10000000     node:node.exe
 0000:fff94000       .debug$S                   10000000     kernel32:KERNEL32.dll
 0000:fff94000       .debug$S                   10000000     kernel32:KERNEL32.dll
 0000:fff94000       .debug$S                   10000000     kernel32:KERNEL32.dll
 0000:fff94000       .debug$S                   10000000     kernel32:KERNEL32.dll
 0000:fff94000       .debug$S                   10000000     kernel32:KERNEL32.dll
 0000:fff94000       .debug$S                   10000000     kernel32:KERNEL32.dll
 0000:fff94000       .debug$S                   10000000     kernel32:KERNEL32.dll
 0000:fff94000       .debug$S                   10000000     kernel32:KERNEL32.dll
 0000:fff94000       .debug$S                   10000000     kernel32:KERNEL32.dll
 0000:fff94000       .debug$S                   10000000     kernel32:KERNEL32.dll
 0000:fff94000       .debug$S                   10000000     kernel32:KERNEL32.dll
 0000:fff94000       .debug$S                   10000000     kernel32:KERNEL32.dll
 0000:fff94000       .debug$S                   10000000     kernel32:KERNEL32.dll
 0000:fff94000       .debug$S                   10000000     kernel32:KERNEL32.dll
 0000:fff94000       .debug$S                   10000000     pango-1.0:libpango-1.0-0.dll
 0000:fff94000       .debug$S                   10000000     kernel32:KERNEL32.dll
 0000:fff94000       .debug$S                   10000000     node:node.exe
 0000:fff94000       .debug$S                   10000000     node:node.exe
 0000:fff94000       .debug$S                   10000000     node:node.exe
 0000:fff94000       .debug$S                   10000000     node:node.exe
 0000:fff94000       .debug$S                   10000000     node:node.exe
 0000:fff94000       .debug$S                   10000000     node:node.exe
 0000:fff94000       .debug$S                   10000000     node:node.exe
 0000:fff94000       .debug$S                   10000000     node:node.exe
 0000:fff94000       .debug$S                   10000000     node:node.exe
 0000:fff94000       .debug$S                   10000000     node:node.exe
 0000:fff94000       .debug$S                   10000000     node:node.exe
 0000:fff94000       .debug$S                   10000000     node:node.exe
 0000:fff94000       .debug$S                   10000000     node:node.exe
 0000:fff94000       .debug$S                   10000000     node:node.exe
 0000:fff94000       .debug$S                   10000000     cairo:libcairo-2.dll
 0000:fff94000       .debug$S                   10000000     cairo:libcairo-2.dll
 0000:fff94000       .debug$S                   10000000     cairo:libcairo-2.dll
 0000:fff94000       .debug$S                   10000000     cairo:libcairo-2.dll
 0000:fff94000       .debug$S                   10000000     cairo:libcairo-2.dll
 0000:fff94000       .debug$S                   10000000     cairo:libcairo-2.dll
 0000:fff94000       .debug$S                   10000000     cairo:libcairo-2.dll
 0000:fff94000       .debug$S                   10000000     cairo:libcairo-2.dll
 0000:fff94000       .debug$S                   10000000     kernel32:KERNEL32.dll
 0000:fff94000       .debug$S                   10000000     kernel32:KERNEL32.dll
 0000:fff94000       .debug$S                   10000000     kernel32:KERNEL32.dll
 0000:fff94000       .debug$S                   10000000     kernel32:KERNEL32.dll
 0000:fff94000       .debug$S                   10000000     kernel32:KERNEL32.dll
 0000:fff94000       .debug$S                   10000000     kernel32:KERNEL32.dll
 0000:fff94000       .debug$S                   10000000     kernel32:KERNEL32.dll
 0000:fff94000       .debug$S                   10000000     kernel32:KERNEL32.dll
 0000:fff94000       .debug$S                   10000000     kernel32:KERNEL32.dll
 0000:fff94000       .debug$S                   10000000     kernel32:KERNEL32.dll
 0000:fff94000       .debug$S                   10000000     kernel32:KERNEL32.dll
 0000:fff94000       .debug$S                   10000000     kernel32:KERNEL32.dll
 0000:fff94000       .debug$S                   10000000     kernel32:KERNEL32.dll
 0000:fff94000       .debug$S                   10000000     kernel32:KERNEL32.dll
 0000:fff94000       .debug$S                   10000000     kernel32:KERNEL32.dll
 0000:fff94000       .debug$S                   10000000     kernel32:KERNEL32.dll
 0000:fff94000       .debug$S                   10000000     kernel32:KERNEL32.dll
 0000:fff94000       .debug$S                   10000000     kernel32:KERNEL32.dll
 0000:fff94000       .debug$S                   10000000     kernel32:KERNEL32.dll
 0000:fff94000       .debug$S                   10000000     kernel32:KERNEL32.dll
 0000:fff94000       .debug$S                   10000000     kernel32:KERNEL32.dll
 0000:fff94000       .debug$S                   10000000     kernel32:KERNEL32.dll
 0000:fff94000       .debug$S                   10000000     kernel32:KERNEL32.dll
 0000:fff94000       .debug$S                   10000000     kernel32:KERNEL32.dll
 0000:fff94000       .debug$S                   10000000     kernel32:KERNEL32.dll
 0000:fff94000       .debug$S                   10000000     kernel32:KERNEL32.dll
 0000:fff94000       .debug$S                   10000000     kernel32:KERNEL32.dll
 0000:fff94000       .debug$S                   10000000     kernel32:KERNEL32.dll
 0000:fff94000       .debug$S                   10000000     kernel32:KERNEL32.dll
 0000:fff94000       .debug$S                   10000000     kernel32:KERNEL32.dll
 0000:fff94000       .debug$S                   10000000     pango-1.0:libpango-1.0-0.dll
 0000:fff94000       .debug$S                   10000000     kernel32:KERNEL32.dll
 0000:fff94000       .debug$S                   10000000     pango-1.0:libpango-1.0-0.dll
 0000:fff94000       .debug$S                   10000000     pango-1.0:libpango-1.0-0.dll
 0000:fff94000       .debug$S                   10000000     pango-1.0:libpango-1.0-0.dll
 0000:fff94000       .debug$S                   10000000     pango-1.0:libpango-1.0-0.dll
 0000:fff94000       .debug$S                   10000000     pango-1.0:libpango-1.0-0.dll
 0000:fff94000       .debug$S                   10000000     pango-1.0:libpango-1.0-0.dll
 0000:fff94000       .debug$S                   10000000     pango-1.0:libpango-1.0-0.dll
 0000:fff94000       .debug$S                   10000000     freetype:freetype6.dll
 0000:fff94000       .debug$S                   10000000     freetype:freetype6.dll
 0000:fff94000       .debug$S                   10000000     freetype:freetype6.dll
 0000:fff94000       .debug$S                   10000000     freetype:freetype6.dll
 0000:fff94000       .debug$S                   10000000     freetype:freetype6.dll
 0000:fff94000       .debug$S                   10000000     freetype:freetype6.dll
 0000:fff94000       .debug$S                   10000000     freetype:freetype6.dll
 0000:fff94000       .debug$S                   10000000     glib-2.0:libglib-2.0-0.dll
 0000:fff94000       .debug$S                   10000000     glib-2.0:libglib-2.0-0.dll
 0000:fff94000       .debug$S                   10000000     glib-2.0:libglib-2.0-0.dll
 0000:fff94000       .debug$S                   10000000     glib-2.0:libglib-2.0-0.dll
 0000:fff94000       .debug$S                   10000000     glib-2.0:libglib-2.0-0.dll
 0000:fff94000       .debug$S                   10000000     glib-2.0:libglib-2.0-0.dll
 0000:fff94000       .debug$S                   10000000     cairo:libcairo-2.dll
 0000:fff94000       .debug$S                   10000000     cairo:libcairo-2.dll
 0000:fff94000       .debug$S                   10000000     cairo:libcairo-2.dll
 0000:fff94000       .debug$S                   10000000     cairo:libcairo-2.dll
 0000:fff94000       .debug$S                   10000000     cairo:libcairo-2.dll
 0000:fff94000       .debug$S                   10000000     cairo:libcairo-2.dll
 0000:fff94000       .debug$S                   10000000     cairo:libcairo-2.dll
 0000:fff94000       .debug$S                   10000000     cairo:libcairo-2.dll
 0000:fff94000       .debug$S                   10000000     cairo:libcairo-2.dll
 0000:fff94000       .debug$S                   10000000     cairo:libcairo-2.dll
 0000:fff94000       .debug$S                   10000000     cairo:libcairo-2.dll
 0000:fff94000       .debug$S                   10000000     cairo:libcairo-2.dll
 0000:fff94000       .debug$S                   10000000     cairo:libcairo-2.dll
 0000:fff94000       .debug$S                   10000000     cairo:libcairo-2.dll
 0000:fff94000       .debug$S                   10000000     cairo:libcairo-2.dll
 0000:fff94000       .debug$S                   10000000     cairo:libcairo-2.dll
 0000:fff94000       .debug$S                   10000000     cairo:libcairo-2.dll
 0000:fff94000       .debug$S                   10000000     cairo:libcairo-2.dll
 0000:fff94000       .debug$S                   10000000     cairo:libcairo-2.dll
 0000:fff94000       .debug$S                   10000000     cairo:libcairo-2.dll
 0000:fff94000       .debug$S                   10000000     cairo:libcairo-2.dll
 0000:fff94000       .debug$S                   10000000     cairo:libcairo-2.dll
 0000:fff94000       .debug$S                   10000000     cairo:libcairo-2.dll
 0000:fff94000       .debug$S                   10000000     cairo:libcairo-2.dll
 0000:fff94000       .debug$S                   10000000     cairo:libcairo-2.dll
 0000:fff94000       .debug$S                   10000000     cairo:libcairo-2.dll
 0000:fff94000       .debug$S                   10000000     cairo:libcairo-2.dll
 0000:fff94000       .debug$S                   10000000     cairo:libcairo-2.dll
 0000:fff94000       .debug$S                   10000000     cairo:libcairo-2.dll
 0000:fff94000       .debug$S                   10000000     cairo:libcairo-2.dll
 0000:fff94000       .debug$S                   10000000     kernel32:KERNEL32.dll
 0000:fff94000       .debug$S                   10000000     kernel32:KERNEL32.dll
 0000:fff94000       .debug$S                   10000000     glib-2.0:libglib-2.0-0.dll
 0000:fff94000       .debug$S                   10000000     glib-2.0:libglib-2.0-0.dll
 0000:fff94000       .debug$S                   10000000     gobject-2.0:libgobject-2.0-0.dll
 0000:fff94000       .debug$S                   10000000     kernel32:KERNEL32.dll
 0000:fff94000       .debug$S                   10000000     kernel32:KERNEL32.dll
 0000:fff94000       .debug$S                   10000000     kernel32:KERNEL32.dll
 0000:fff94000       .debug$S                   10000000     kernel32:KERNEL32.dll
 0000:fff94000       .debug$S                   10000000     kernel32:KERNEL32.dll
 0000:fff94000       .debug$S                   10000000     kernel32:KERNEL32.dll
 0000:fff94000       .debug$S                   10000000     kernel32:KERNEL32.dll
 0000:fff94000       .debug$S                   10000000     kernel32:KERNEL32.dll
 0000:fff94000       .debug$S                   10000000     kernel32:KERNEL32.dll
 0000:fff94000       .debug$S                   10000000     kernel32:KERNEL32.dll
 0000:fff94000       .debug$S                   10000000     kernel32:KERNEL32.dll
 0000:fff94000       .debug$S                   10000000     kernel32:KERNEL32.dll
 0000:fff94000       .debug$S                   10000000     kernel32:KERNEL32.dll
 0000:fff94000       .debug$S                   10000000     kernel32:KERNEL32.dll
 0000:fff94000       .debug$S                   10000000     kernel32:KERNEL32.dll
 0000:fff94000       .debug$S                   10000000     kernel32:KERNEL32.dll
 0000:fff94000       .debug$S                   10000000     kernel32:KERNEL32.dll
 0000:fff94000       .debug$S                   10000000     kernel32:KERNEL32.dll
 0000:fff94000       .debug$S                   10000000     kernel32:KERNEL32.dll
 0000:fff94000       .debug$S                   10000000     kernel32:KERNEL32.dll
 0000:fff94000       .debug$S                   10000000     kernel32:KERNEL32.dll
 0000:fff94000       .debug$S                   10000000     kernel32:KERNEL32.dll
 0000:fff94000       .debug$S                   10000000     canvas.exp
 0000:fff94000       .debug$S                   10000000     jpeg:jpeg62.dll
 0000:fff94000       .debug$S                   10000000     jpeg:jpeg62.dll
 0000:fff94000       .debug$S                   10000000     jpeg:jpeg62.dll
 0000:fff94000       .debug$S                   10000000     jpeg:jpeg62.dll
 0000:fff94000       .debug$S                   10000000     jpeg:jpeg62.dll
 0000:fff94000       .debug$S                   10000000     jpeg:jpeg62.dll
 0000:fff94000       .debug$S                   10000000     jpeg:jpeg62.dll
 0000:fff94000       .debug$S                   10000000     jpeg:jpeg62.dll
 0000:fff94000       .debug$S                   10000000     jpeg:jpeg62.dll
 0000:fff94000       .debug$S                   10000000     jpeg:jpeg62.dll
 0000:fff94000       .debug$S                   10000000     jpeg:jpeg62.dll
 0000:fff94000       .debug$S                   10000000     jpeg:jpeg62.dll
 0000:fff94000       .debug$S                   10000000     jpeg:jpeg62.dll
 0000:fff94000       .debug$S                   10000000     jpeg:jpeg62.dll
 0000:fff94000       .debug$S                   10000000     jpeg:jpeg62.dll
 0000:fff94000       .debug$S                   10000000     cairo:libcairo-2.dll
 0000:fff94000       .debug$S                   10000000     cairo:libcairo-2.dll
 0000:fff94000       .debug$S                   10000000     cairo:libcairo-2.dll
 0000:fff94000       .debug$S                   10000000     cairo:libcairo-2.dll
 0000:fff94000       .debug$S                   10000000     cairo:libcairo-2.dll
 0000:fff94000       .debug$S                   10000000     cairo:libcairo-2.dll
 0000:fff94000       .debug$S                   10000000     cairo:libcairo-2.dll
 0000:fff94000       .debug$S                   10000000     cairo:libcairo-2.dll
 0000:fff94000       .debug$S                   10000000     cairo:libcairo-2.dll
 0000:fff94000       .debug$S                   10000000     cairo:libcairo-2.dll
 0000:fff94000       .debug$S                   10000000     cairo:libcairo-2.dll
 0000:fff94000       .debug$S                   10000000     cairo:libcairo-2.dll
 0000:fff94000       .debug$S                   10000000     cairo:libcairo-2.dll
 0000:fff94000       .debug$S                   10000000     cairo:libcairo-2.dll
 0000:fff94000       .debug$S                   10000000     cairo:libcairo-2.dll
 0000:fff94000       .debug$S                   10000000     cairo:libcairo-2.dll
 0000:fff94000       .debug$S                   10000000     cairo:libcairo-2.dll
 0000:fff94000       .debug$S                   10000000     cairo:libcairo-2.dll
 0000:fff94000       .debug$S                   10000000     cairo:libcairo-2.dll
 0000:fff94000       .debug$S                   10000000     cairo:libcairo-2.dll
 0000:fff94000       .debug$S                   10000000     cairo:libcairo-2.dll
 0000:fff94000       .debug$S                   10000000     cairo:libcairo-2.dll
 0000:fff94000       .debug$S                   10000000     cairo:libcairo-2.dll
 0000:fff94000       .debug$S                   10000000     cairo:libcairo-2.dll
 0000:fff94000       .debug$S                   10000000     cairo:libcairo-2.dll
 0000:fff94000       .debug$S                   10000000     cairo:libcairo-2.dll
 0000:fff94000       .debug$S                   10000000     cairo:libcairo-2.dll
 0000:fff94000       .debug$S                   10000000     cairo:libcairo-2.dll
 0000:fff94000       .debug$S                   10000000     cairo:libcairo-2.dll
 0000:fff94000       .debug$S                   10000000     cairo:libcairo-2.dll
 0000:fff94000       .debug$S                   10000000     cairo:libcairo-2.dll
 0000:fff94000       .debug$S                   10000000     cairo:libcairo-2.dll
 0000:fff94000       .debug$S                   10000000     cairo:libcairo-2.dll
 0000:fff94000       .debug$S                   10000000     cairo:libcairo-2.dll
 0000:fff94000       .debug$S                   10000000     cairo:libcairo-2.dll
 0000:fff94000       .debug$S                   10000000     cairo:libcairo-2.dll
 0000:fff94000       .debug$S                   10000000     cairo:libcairo-2.dll
 0000:fff94000       .debug$S                   10000000     cairo:libcairo-2.dll
 0000:fff94000       .debug$S                   10000000     cairo:libcairo-2.dll
 0000:fff94000       .debug$S                   10000000     cairo:libcairo-2.dll
 0000:fff94000       .debug$S                   10000000     cairo:libcairo-2.dll
 0000:fff94000       .debug$S                   10000000     cairo:libcairo-2.dll
 0000:fff94000       .debug$S                   10000000     cairo:libcairo-2.dll
 0000:fff94000       .debug$S                   10000000     cairo:libcairo-2.dll
 0000:fff94000       .debug$S                   10000000     cairo:libcairo-2.dll
 0000:fff94000       .debug$S                   10000000     cairo:libcairo-2.dll
 0000:fff94000       .debug$S                   10000000     cairo:libcairo-2.dll
 0000:fff94000       .debug$S                   10000000     cairo:libcairo-2.dll
 0000:fff94000       .debug$S                   10000000     cairo:libcairo-2.dll
 0000:fff94000       .debug$S                   10000000     cairo:libcairo-2.dll
 0000:fff94000       .debug$S                   10000000     cairo:libcairo-2.dll
 0000:fff94000       .debug$S                   10000000     cairo:libcairo-2.dll
 0000:fff94000       .debug$S                   10000000     cairo:libcairo-2.dll
 0000:fff94000       .debug$S                   10000000     cairo:libcairo-2.dll
 0000:fff94000       .debug$S                   10000000     cairo:libcairo-2.dll
 0000:fff94000       .debug$S                   10000000     cairo:libcairo-2.dll
 0000:fff94000       .debug$S                   10000000     cairo:libcairo-2.dll
 0000:fff94000       .debug$S                   10000000     cairo:libcairo-2.dll
 0000:fff94000       .debug$S                   10000000     cairo:libcairo-2.dll
 0000:fff94000       .debug$S                   10000000     cairo:libcairo-2.dll
 0000:fff94000       .debug$S                   10000000     cairo:libcairo-2.dll
 0000:fff94000       .debug$S                   10000000     cairo:libcairo-2.dll
 0000:fff94000       .debug$S                   10000000     libpng:libpng14-14.dll
 0000:fff94000       .debug$S                   10000000     libpng:libpng14-14.dll
 0000:fff94000       .debug$S                   10000000     libpng:libpng14-14.dll
 0000:fff94000       .debug$S                   10000000     libpng:libpng14-14.dll
 0000:fff94000       .debug$S                   10000000     libpng:libpng14-14.dll
 0000:fff94000       .debug$S                   10000000     libpng:libpng14-14.dll
 0000:fff94000       .debug$S                   10000000     libpng:libpng14-14.dll
 0000:fff94000       .debug$S                   10000000     libpng:libpng14-14.dll
 0000:fff94000       .debug$S                   10000000     libpng:libpng14-14.dll
 0000:fff94000       .debug$S                   10000000     libpng:libpng14-14.dll
 0000:fff94000       .debug$S                   10000000     libpng:libpng14-14.dll
 0000:fff94000       .debug$S                   10000000     libpng:libpng14-14.dll
 0000:fff94000       .debug$S                   10000000     libpng:libpng14-14.dll
 0000:fff94000       .debug$S                   10000000     libpng:libpng14-14.dll
 0000:fff94000       .debug$S                   10000000     libpng:libpng14-14.dll
 0000:fff94000       .debug$S                   10000000     libpng:libpng14-14.dll
 0000:fff94000       .debug$S                   10000000     libpng:libpng14-14.dll
 0000:fff94000       .debug$S                   10000000     libpng:libpng14-14.dll
 0000:fff94000       .debug$S                   10000000     libpng:libpng14-14.dll
 0000:fff94000       .debug$S                   10000000     libpng:libpng14-14.dll
 0000:fff94000       .debug$S                   10000000     libpng:libpng14-14.dll
 0000:fff94000       .debug$S                   10000000     libpng:libpng14-14.dll
 0000:fff94000       .debug$S                   10000000     libpng:libpng14-14.dll
 0000:fff94000       .debug$S                   10000000     libpng:libpng14-14.dll
 0000:fff94000       .debug$S                   10000000     pangocairo-1.0:libpangocairo-1.0-0.dll
 0000:fff94000       .debug$S                   10000000     pangocairo-1.0:libpangocairo-1.0-0.dll
 0000:fff94000       .debug$S                   10000000     pangocairo-1.0:libpangocairo-1.0-0.dll
 0000:fff94000       .debug$S                   10000000     pangocairo-1.0:libpangocairo-1.0-0.dll
 0000:fff94000       .debug$S                   10000000     pangocairo-1.0:libpangocairo-1.0-0.dll
 0000:fff94000       .debug$S                   10000000     pango-1.0:libpango-1.0-0.dll
 0000:fff94000       .debug$S                   10000000     pango-1.0:libpango-1.0-0.dll
 0000:fff94000       .debug$S                   10000000     pango-1.0:libpango-1.0-0.dll
 0000:fff94000       .debug$S                   10000000     pango-1.0:libpango-1.0-0.dll
 0000:fff94000       .debug$S                   10000000     pango-1.0:libpango-1.0-0.dll
 0000:fff94000       .debug$S                   10000000     pango-1.0:libpango-1.0-0.dll
 0000:fff94000       .debug$S                   10000000     pango-1.0:libpango-1.0-0.dll
 0000:fff94000       .debug$S                   10000000     pango-1.0:libpango-1.0-0.dll
 0000:fff94000       .debug$S                   10000000     pango-1.0:libpango-1.0-0.dll
 0000:fff94000       .debug$S                   10000000     pango-1.0:libpango-1.0-0.dll
 0000:fff94000       .debug$S                   10000000     pango-1.0:libpango-1.0-0.dll
 0000:fff94000       .debug$S                   10000000     pango-1.0:libpango-1.0-0.dll
 0000:fff94000       .debug$S                   10000000     pango-1.0:libpango-1.0-0.dll
 0000:fff94000       .debug$S                   10000000     jpeg:jpeg62.dll
 0000:fff94000       .debug$S                   10000000     jpeg:jpeg62.dll
 0000:fff94000       .debug$S                   10000000     jpeg:jpeg62.dll
 0001:00000000       ??__E?constructor@ImageBackend@@2V?$Persistent@VFunctionTemplate@v8@@V?$NonCopyablePersistentTraits@VFunctionTemplate@v8@@@2@@Nan@@A@@YAXXZ 10001000 f   ImageBackend.obj
 0001:00000010       ??__E?constructor@PdfBackend@@2V?$Persistent@VFunctionTemplate@v8@@V?$NonCopyablePersistentTraits@VFunctionTemplate@v8@@@2@@Nan@@A@@YAXXZ 10001010 f   PdfBackend.obj
 0001:00000020       ??__E?constructor@SvgBackend@@2V?$Persistent@VFunctionTemplate@v8@@V?$NonCopyablePersistentTraits@VFunctionTemplate@v8@@@2@@Nan@@A@@YAXXZ 10001020 f   SvgBackend.obj
 0001:00000030       ??__E?constructor@Canvas@@2V?$Persistent@VFunctionTemplate@v8@@V?$NonCopyablePersistentTraits@VFunctionTemplate@v8@@@2@@Nan@@A@@YAXXZ 10001030 f   Canvas.obj
 0001:00000040       ??__Efont_face_list@@YAXXZ 10001040 f   Canvas.obj
 0001:00000050       ??__E?constructor@Gradient@@2V?$Persistent@VFunctionTemplate@v8@@V?$NonCopyablePersistentTraits@VFunctionTemplate@v8@@@2@@Nan@@A@@YAXXZ 10001050 f   CanvasGradient.obj
 0001:00000060       ??__E?constructor@Pattern@@2V?$Persistent@VFunctionTemplate@v8@@V?$NonCopyablePersistentTraits@VFunctionTemplate@v8@@@2@@Nan@@A@@YAXXZ 10001060 f   CanvasPattern.obj
 0001:00000070       ??__E?constructor@Context2d@@2V?$Persistent@VFunctionTemplate@v8@@V?$NonCopyablePersistentTraits@VFunctionTemplate@v8@@@2@@Nan@@A@@YAXXZ 10001070 f   CanvasRenderingContext2d.obj
 0001:00000080       ??__E?_DOMMatrix@Context2d@@2V?$Persistent@VFunction@v8@@V?$NonCopyablePersistentTraits@VFunction@v8@@@2@@Nan@@A@@YAXXZ 10001080 f   CanvasRenderingContext2d.obj
 0001:00000090       ??__E?_parseFont@Context2d@@2V?$Persistent@VFunction@v8@@V?$NonCopyablePersistentTraits@VFunction@v8@@@2@@Nan@@A@@YAXXZ 10001090 f   CanvasRenderingContext2d.obj
 0001:000000a0       ??__Enamed_colors@@YAXXZ   100010a0 f   color.obj
 0001:00001d50       ??__E?constructor@Image@@2V?$Persistent@VFunctionTemplate@v8@@V?$NonCopyablePersistentTraits@VFunctionTemplate@v8@@@2@@Nan@@A@@YAXXZ 10002d50 f   Image.obj
 0001:00001d60       ??__E?constructor@ImageData@@2V?$Persistent@VFunctionTemplate@v8@@V?$NonCopyablePersistentTraits@VFunctionTemplate@v8@@@2@@Nan@@A@@YAXXZ 10002d60 f   ImageData.obj
 0001:00001d6c       ??__Einitlocks@std@@YAXXZ  10002d6c f   libcpmt:xlock.obj
 0001:00001d82       ??__E_Fac_tidy_reg@std@@YAXXZ 10002d82 f   libcpmt:locale0.obj
 0001:00001d8e       ??__Eclassic_locale@std@@YAXXZ 10002d8e f   libcpmt:locale0.obj
 0001:00001d9a       ??__Einit_atexit@@YAXXZ    10002d9a f   libcpmt:iosptrs.obj
 0001:00001da6       ??__Einitlocks@std@@YAXXZ  10002da6 f   libcpmt:iosptrs.obj
 0001:00001dd0       ?canvas_png_flush@@YAXPAUpng_struct_def@@@Z 10002dd0 f i Canvas.obj
 0001:00002c70       ?FunctionCallbackWrapper@imp@Nan@@YAXABV?$FunctionCallbackInfo@VValue@v8@@@v8@@@Z 10003c70 f   CanvasRenderingContext2d.obj
 0001:00002c70       ?FunctionCallbackWrapper@imp@Nan@@YAXABV?$FunctionCallbackInfo@VValue@v8@@@v8@@@Z 10003c70 f   ImageBackend.obj
 0001:00003088       $LN31                      10004088     ImageBackend.obj
 0001:0000311c       $LN15                      1000411c     ImageBackend.obj
 0001:0000341c       __catch$?writeVec@Closure@@SA?AW4_cairo_status@@PAXPBEI@Z$0 1000441c f i PdfBackend.obj
 0001:00006440       ?GetterCallbackWrapper@imp@Nan@@YAXV?$Local@VName@v8@@@v8@@ABV?$PropertyCallbackInfo@VValue@v8@@@4@@Z 10007440 f   Canvas.obj
 0001:000064f0       ?SetterCallbackWrapper@imp@Nan@@YAXV?$Local@VName@v8@@@v8@@V?$Local@VValue@v8@@@4@ABV?$PropertyCallbackInfo@X@4@@Z 100074f0 f   Canvas.obj
 0001:00006e60       ?canvas_convert_data_to_bytes@@YAXPAUpng_struct_def@@PAUpng_row_info_struct@@PAE@Z 10007e60 f   Canvas.obj
 0001:00006eb0       ?canvas_unpremultiply_data@@YAXPAUpng_struct_def@@PAUpng_row_info_struct@@PAE@Z 10007eb0 f   Canvas.obj
 0001:00006f60       ?canvas_convert_565_to_888@@YAXPAUpng_struct_def@@PAUpng_row_info_struct@@PAE@Z 10007f60 f   Canvas.obj
 0001:00007040       ?canvas_write_png@@YA?AW4_cairo_status@@PAU_cairo_surface@@P6AXPAUpng_struct_def@@PAEI@ZPAUcanvas_png_write_closure_t@@@Z 10008040 f   Canvas.obj
 0001:000074f8       $LN47                      100084f8     Canvas.obj
 0001:00007510       ?canvas_stream_write_func@@YAXPAUpng_struct_def@@PAEI@Z 10008510 f   Canvas.obj
 0001:00007560       ?canvas_write_to_png_stream@@YA?AW4_cairo_status@@PAU_cairo_surface@@P6A?AW41@PAXPBEI@ZPAUPngClosure@@@Z 10008560 f   Canvas.obj
 0001:00008e40       ?parsePNGArgs@@YAXV?$Local@VValue@v8@@@v8@@AAUPngClosure@@@Z 10009e40 f   Canvas.obj
 0001:00009220       ?parseJPEGArgs@@YAXV?$Local@VValue@v8@@@v8@@AAUJpegClosure@@@Z 1000a220 f   Canvas.obj
 0001:0000996d       __catch$?ToBuffer@Canvas@@SAXABV?$FunctionCallbackInfo@VValue@v8@@@Nan@@@Z$3 1000a96d f   Canvas.obj
 0001:000099c7       __catch$?ToBuffer@Canvas@@SAXABV?$FunctionCallbackInfo@VValue@v8@@@Nan@@@Z$4 1000a9c7 f   Canvas.obj
 0001:00009b11       __catch$?ToBuffer@Canvas@@SAXABV?$FunctionCallbackInfo@VValue@v8@@@Nan@@@Z$6 1000ab11 f   Canvas.obj
 0001:00009d82       __catch$?ToBuffer@Canvas@@SAXABV?$FunctionCallbackInfo@VValue@v8@@@Nan@@@Z$0 1000ad82 f   Canvas.obj
 0001:00009da7       __catch$?ToBuffer@Canvas@@SAXABV?$FunctionCallbackInfo@VValue@v8@@@Nan@@@Z$1 1000ada7 f   Canvas.obj
 0001:00009ea0       ?streamPNG@@YA?AW4_cairo_status@@PAXPBEI@Z 1000aea0 f   Canvas.obj
 0001:0000c5b0       _no_op_initialize          1000d5b0 f i libucrt:wsetlocale.obj
 0001:0000ec90       ?checkArgs@@YA_NABV?$FunctionCallbackInfo@VValue@v8@@@Nan@@PANHH@Z 1000fc90 f   CanvasRenderingContext2d.obj
 0001:00011694       $LN258                     10012694     CanvasRenderingContext2d.obj
 0001:000120c0       $LN473                     100130c0     CanvasRenderingContext2d.obj
 0001:000127f4       $LN437                     100137f4     CanvasRenderingContext2d.obj
 0001:000139d4       $LN79                      100149d4     CanvasRenderingContext2d.obj
 0001:00013d20       $LN53                      10014d20     CanvasRenderingContext2d.obj
 0001:00015158       $LN55                      10016158     CanvasRenderingContext2d.obj
 0001:0001c1b0       ?parse_clipped_percentage@@YA_NPAPBDPAM@Z 1001d1b0 f   color.obj
 0001:0001c210       ?h@@YAHD@Z                 1001d210 f   color.obj
 0001:0001c234       $LN10                      1001d234     color.obj
 0001:0001c244       $LN8                       1001d244     color.obj
 0001:0001c440       ?rgba_from_hsla@@YAHMMMM@Z 1001d440 f   color.obj
 0001:0001c720       ?rgba_from_rgba_string@@YAHPBDPAF@Z 1001d720 f   color.obj
 0001:0001c8f0       ?rgba_from_hsla_string@@YAHPBDPAF@Z 1001d8f0 f   color.obj
 0001:0001caf0       ?rgba_from_hsl_string@@YAHPBDPAF@Z 1001daf0 f   color.obj
 0001:0001cc80       ?rgba_from_hex_string@@YAHPBDPAF@Z 1001dc80 f   color.obj
 0001:0001ce58       $LN31                      1001de58     color.obj
 0001:0001ce70       ?rgba_from_name_string@@YAHPBDPAF@Z 1001de70 f   color.obj
 0001:0001d5f0       ??$parse_integer@H@@YA_NPAPBDPAH@Z 1001e5f0 f   color.obj
 0001:0001d660       ??$parse_css_number@M@@YA_NPAPBDPAM@Z 1001e660 f   color.obj
 0001:0001fc20       ?canvas_jpeg_error_exit@@YAXPAUjpeg_common_struct@@@Z 10020c20 f   Image.obj
 0001:0001fc40       ?canvas_jpeg_output_message@@YAXPAUjpeg_common_struct@@@Z 10020c40 f   Image.obj
 0001:00020610       ?_Delete_this@?$_Func_impl_no_alloc@V<lambda_8c41ca94039f6ef8ccdaa302799fd2d7>@@IPAE@std@@EAEX_N@Z 10021610 f   Image.obj
 0001:00020610       ?_Delete_this@?$_Func_impl_no_alloc@V<lambda_c4e14124f083972f9d754b35e2fb4677>@@IPAE@std@@EAEX_N@Z 10021610 f   Image.obj
 0001:00020610       ?_Delete_this@?$_Func_impl_no_alloc@V<lambda_b17cc139142ae7c534f649ceca365072>@@IPAE@std@@EAEX_N@Z 10021610 f   Image.obj
 0001:00020630       ?_Get@?$_Func_impl_no_alloc@V<lambda_8c41ca94039f6ef8ccdaa302799fd2d7>@@IPAE@std@@EBEPBXXZ 10021630 f   Image.obj
 0001:00020630       ?_Get@?$_Func_impl_no_alloc@V<lambda_b17cc139142ae7c534f649ceca365072>@@IPAE@std@@EBEPBXXZ 10021630 f   Image.obj
 0001:00020630       ?_Get@?$_Func_impl_no_alloc@V<lambda_c4e14124f083972f9d754b35e2fb4677>@@IPAE@std@@EBEPBXXZ 10021630 f   Image.obj
 0001:00020640       ?_Target_type@?$_Func_impl_no_alloc@V<lambda_b17cc139142ae7c534f649ceca365072>@@IPAE@std@@EBEABVtype_info@@XZ 10021640 f   Image.obj
 0001:00020650       ?_Move@?$_Func_impl_no_alloc@V<lambda_b17cc139142ae7c534f649ceca365072>@@IPAE@std@@EAEPAV?$_Func_base@IPAE@2@PAX@Z 10021650 f   Image.obj
 0001:00020650       ?_Copy@?$_Func_impl_no_alloc@V<lambda_b17cc139142ae7c534f649ceca365072>@@IPAE@std@@EBEPAV?$_Func_base@IPAE@2@PAX@Z 10021650 f   Image.obj
 0001:00020660       ?_Target_type@?$_Func_impl_no_alloc@V<lambda_8c41ca94039f6ef8ccdaa302799fd2d7>@@IPAE@std@@EBEABVtype_info@@XZ 10021660 f   Image.obj
 0001:00020670       ?_Move@?$_Func_impl_no_alloc@V<lambda_8c41ca94039f6ef8ccdaa302799fd2d7>@@IPAE@std@@EAEPAV?$_Func_base@IPAE@2@PAX@Z 10021670 f   Image.obj
 0001:00020670       ?_Copy@?$_Func_impl_no_alloc@V<lambda_8c41ca94039f6ef8ccdaa302799fd2d7>@@IPAE@std@@EBEPAV?$_Func_base@IPAE@2@PAX@Z 10021670 f   Image.obj
 0001:00020680       ?_Target_type@?$_Func_impl_no_alloc@V<lambda_c4e14124f083972f9d754b35e2fb4677>@@IPAE@std@@EBEABVtype_info@@XZ 10021680 f   Image.obj
 0001:00020690       ?_Copy@?$_Func_impl_no_alloc@V<lambda_c4e14124f083972f9d754b35e2fb4677>@@IPAE@std@@EBEPAV?$_Func_base@IPAE@2@PAX@Z 10021690 f   Image.obj
 0001:00020690       ?_Move@?$_Func_impl_no_alloc@V<lambda_c4e14124f083972f9d754b35e2fb4677>@@IPAE@std@@EAEPAV?$_Func_base@IPAE@2@PAX@Z 10021690 f   Image.obj
 0001:000206a0       ?_Do_call@?$_Func_impl_no_alloc@V<lambda_c4e14124f083972f9d754b35e2fb4677>@@IPAE@std@@EAEI$$QAPAE@Z 100216a0 f   Image.obj
 0001:00020700       ?_Do_call@?$_Func_impl_no_alloc@V<lambda_8c41ca94039f6ef8ccdaa302799fd2d7>@@IPAE@std@@EAEI$$QAPAE@Z 10021700 f   Image.obj
 0001:00020730       ?_Do_call@?$_Func_impl_no_alloc@V<lambda_b17cc139142ae7c534f649ceca365072>@@IPAE@std@@EAEI$$QAPAE@Z 10021730 f   Image.obj
 0001:000213e0       __register_canvas          100223e0 f   init.obj
 0001:000217fc       $LN46                      100227fc     register_font.obj
 0001:00021820       ?load_exe_hook@@YGP6GHXZIPAUDelayLoadInfo@@@Z 10022820 f   win_delay_load_hook.obj
 0001:000222bd       _tidy_global               100232bd f   libcpmt:locale0.obj
 0001:0002266c       ?initialize_pointers@@YAHXZ 1002366c f   libcpmt:winapisupp.obj
 0001:00022f04       ?find_pe_section@@YAPAU_IMAGE_SECTION_HEADER@@QAEI@Z 10023f04 f   LIBCMT:utility.obj
 0001:00023385       ?dllmain_crt_dispatch@@YGHQAUHINSTANCE__@@KQAX@Z 10024385 f   LIBCMT:dll_dllmain.obj
 0001:000233d8       ?dllmain_crt_process_attach@@YAHQAUHINSTANCE__@@QAX@Z 100243d8 f   LIBCMT:dll_dllmain.obj
 0001:000234e2       ?dllmain_crt_process_detach@@YAH_N@Z 100244e2 f   LIBCMT:dll_dllmain.obj
 0001:00023574       ?dllmain_dispatch@@YAHQAUHINSTANCE__@@KQAX@Z 10024574 f   LIBCMT:dll_dllmain.obj
 0001:0002367a       ?dllmain_raw@@YGHQAUHINSTANCE__@@KQAX@Z 1002467a f   LIBCMT:dll_dllmain.obj
 0001:00023790       $$000000                   10024790     LIBCMT:alloca16.obj
 0001:000237c0       $$000000                   100247c0     LIBCMT:llmul.obj
 0001:00023800       $$000000                   10024800     LIBCMT:ulldiv.obj
 0001:00023d90       $$000000                   10024d90     LIBCMT:sehprolg4.obj
 0001:00023e23       __catch$??2@YAPAXIABUnothrow_t@std@@@Z$0 10024e23 f   LIBCMT:new_scalar_nothrow.obj
 0001:00023e3b       ___get_entropy             10024e3b f   LIBCMT:gs_support.obj
 0001:00023f80       $$000000                   10024f80     LIBCMT:chkstk.obj
 0001:000244e0       $$000000                   100254e0     libvcruntime:strstr.obj
 0001:00024840       $$000000                   10025840     libvcruntime:memcpy.obj
 0001:00024aa4       TrailingUpVec              10025aa4     libvcruntime:memcpy.obj
 0001:00024b50       TrailingDownVec            10025b50     libvcruntime:memcpy.obj
 0001:00024dc0       $$000000                   10025dc0     libvcruntime:memmove.obj
 0001:00025024       TrailingUpVec              10026024     libvcruntime:memmove.obj
 0001:000250d0       TrailingDownVec            100260d0     libvcruntime:memmove.obj
 0001:00025340       $$000000                   10026340     libvcruntime:memset.obj
 0001:000254a0       $$000000                   100264a0     libvcruntime:memchr.obj
 0001:00026471       $LN1285                    10027471     libvcruntime:memcmp.obj
 0001:00026560       _ValidateLocalCookies      10027560 f   libvcruntime:chandler4.obj
 0001:00026896       ??$BuildCatchObjectHelperInternal@V__FrameHandler3@@@@YAHPAUEHExceptionRecord@@PAXPBU_s_HandlerType@@PBU_s_CatchableType@@@Z 10027896 f   libvcruntime:frame.obj
 0001:000269d5       ??$BuildCatchObjectInternal@V__FrameHandler3@@@@YAXPAUEHExceptionRecord@@PAXPBU_s_HandlerType@@PBU_s_CatchableType@@@Z 100279d5 f   libvcruntime:frame.obj
 0001:00026a6e       ??$CatchIt@V__FrameHandler3@@@@YAXPAUEHExceptionRecord@@PAUEHRegistrationNode@@PAU_CONTEXT@@PAXPBU_s_FuncInfo@@PBU_s_HandlerType@@PBU_s_CatchableType@@PBU_s_TryBlockMapEntry@@H1E@Z 10027a6e f   libvcruntime:frame.obj
 0001:00026aee       ??$FindHandler@V__FrameHandler3@@@@YAXPAUEHExceptionRecord@@PAUEHRegistrationNode@@PAU_CONTEXT@@PAXPBU_s_FuncInfo@@EH1@Z 10027aee f   libvcruntime:frame.obj
 0001:00026e7c       ??$FindHandlerForForeignException@V__FrameHandler3@@@@YAXPAUEHExceptionRecord@@PAUEHRegistrationNode@@PAU_CONTEXT@@PAXPBU_s_FuncInfo@@HH1@Z 10027e7c f   libvcruntime:frame.obj
 0001:0002716f       ?CallCatchBlock@@YAPAXPAUEHExceptionRecord@@PAUEHRegistrationNode@@PAU_CONTEXT@@PBU_s_FuncInfo@@PAXHK@Z 1002816f f   libvcruntime:frame.obj
 0001:00027333       ?CallUnexpected@@YAXPBU_s_ESTypeList@@@Z 10028333 f   libvcruntime:frame.obj
 0001:00027353       __catch$?CallUnexpected@@YAXPBU_s_ESTypeList@@@Z$0 10028353 f   libvcruntime:frame.obj
 0001:0002736d       ?ExFilterRethrow@@YAHPAU_EXCEPTION_POINTERS@@@Z 1002836d f   libvcruntime:frame.obj
 0001:000274b7       ?IsInExceptionSpec@@YAEPAUEHExceptionRecord@@PBU_s_ESTypeList@@@Z 100284b7 f   libvcruntime:frame.obj
 0001:00027580       $$000000                   10028580     libvcruntime:lowhelpr.obj
 0001:00027640       $$000000                   10028640     libvcruntime:longjmp.obj
 0001:00027700       $$000000                   10028700     libvcruntime:strchr.obj
 0001:00027896       ?try_get_first_available_module@@YAPAUHINSTANCE__@@QBW4module_id@?A0x5d2a34d3@@0@Z 10028896 f   libvcruntime:winapi_downlevel.obj
 0001:0002795a       ?try_get_function@@YAPAXW4function_id@?A0x5d2a34d3@@QBDQBW4module_id@2@2@Z 1002895a f   libvcruntime:winapi_downlevel.obj
 0001:00027b60       $$000000                   10028b60     libvcruntime:exsup4.obj
 0001:00027bf0       __unwind_handler4          10028bf0 f   libvcruntime:exsup4.obj
 0001:00027d10       $$000000                   10028d10     libvcruntime:exsup.obj
 0001:00027d31       __unwind_handler           10028d31 f   libvcruntime:exsup.obj
 0001:00027e9c       ??$common_assert_to_message_box@_W@@YAXQB_W0IQAX@Z 10028e9c f   libucrt:assert.obj
